 ext_client

 Timestamp is 6a2dab5d (Sat Jun 13 22:11:25 2026)

 Preferred load address is 10000000

 Start         Length     Name                   Class
 0001:00000000 00000320H .text$di                CODE
 0001:00000320 000b32f0H .text$mn                CODE
 0001:000b3610 00002080H .text$x                 CODE
 0001:000b5690 00000249H .text$yd                CODE
 0002:00000000 00000324H .idata$5                DATA
 0002:00000324 00000008H .00cfg                  DATA
 0002:0000032c 00000004H .CRT$XCA                DATA
 0002:00000330 0000000cH .CRT$XCC                DATA
 0002:0000033c 00000008H .CRT$XCL                DATA
 0002:00000344 00000054H .CRT$XCU                DATA
 0002:00000398 00000004H .CRT$XCZ                DATA
 0002:0000039c 00000004H .CRT$XDA                DATA
 0002:000003a0 00000004H .CRT$XDZ                DATA
 0002:000003a4 00000004H .CRT$XIA                DATA
 0002:000003a8 00000018H .CRT$XIC                DATA
 0002:000003c0 00000004H .CRT$XIZ                DATA
 0002:000003c4 00000004H .CRT$XLA                DATA
 0002:000003c8 00000004H .CRT$XLC                DATA
 0002:000003cc 00000004H .CRT$XLZ                DATA
 0002:000003d0 00000004H .CRT$XPA                DATA
 0002:000003d4 00000008H .CRT$XPX                DATA
 0002:000003dc 00000004H .CRT$XPXA               DATA
 0002:000003e0 00000004H .CRT$XPZ                DATA
 0002:000003e4 00000004H .CRT$XTA                DATA
 0002:000003e8 00000018H .CRT$XTZ                DATA
 0002:000003ec 00000000H .gfids$y                DATA
 0002:00000400 0001c680H .rdata                  DATA
 0002:0001ca80 00000000H .rdata$CastGuardVftablesA DATA
 0002:0001ca80 00000000H .rdata$CastGuardVftablesC DATA
 0002:0001ca80 00000018H .rdata$T                DATA
 0002:0001ca98 0000152cH .rdata$r                DATA
 0002:0001dfc4 000001b0H .rdata$voltmd           DATA
 0002:0001e174 00000430H .rdata$zzzdbg           DATA
 0002:0001e5a4 00000004H .rtc$IAA                DATA
 0002:0001e5a8 00000004H .rtc$IZZ                DATA
 0002:0001e5ac 00000004H .rtc$TAA                DATA
 0002:0001e5b0 00000004H .rtc$TZZ                DATA
 0002:0001e5b4 00000004H .tls                    DATA
 0002:0001e5b8 00000018H .tls$                   DATA
 0002:0001e5d0 00000008H .tls$ZZZ                DATA
 0002:0001e5d8 000029f4H .xdata$x                DATA
 0002:00020fcc 00000000H .edata                  DATA
 0002:00020fcc 00000064H .idata$2                DATA
 0002:00021030 00000014H .idata$3                DATA
 0002:00021044 00000324H .idata$4                DATA
 0002:00021368 00000e48H .idata$6                DATA
 0003:00000000 00001120H .data                   DATA
 0003:00001120 00000818H .data$r                 DATA
 0003:00001938 00001058H .data$rs                DATA
 0003:00002990 00004298H .bss                    DATA
 0004:00000000 00000080H .fptable                DATA
 0005:00000000 00000060H .rsrc$01                DATA
 0005:00000060 00000180H .rsrc$02                DATA

  Address         Publics by Value              Rva+Base       Lib:Object

 0000:00000000       ___AbsoluteZero            00000000     <absolute>
 0000:00000000       ___arm64x_extra_rfe_table  00000000     <absolute>
 0000:00000000       ___arm64x_extra_rfe_table_size 00000000     <absolute>
 0000:00000000       ___arm64x_native_entrypoint 00000000     <absolute>
 0000:00000000       ___arm64x_redirection_metadata 00000000     <absolute>
 0000:00000000       ___arm64x_redirection_metadata_count 00000000     <absolute>
 0000:00000000       ___dynamic_value_reloc_table 00000000     <absolute>
 0000:00000000       ___enclave_config          00000000     <absolute>
 0000:00000000       ___guard_check_icall_a64n_fptr 00000000     <absolute>
 0000:00000000       ___guard_eh_cont_count     00000000     <absolute>
 0000:00000000       ___guard_eh_cont_table     00000000     <absolute>
 0000:00000000       ___guard_fids_count        00000000     <absolute>
 0000:00000000       ___guard_fids_table        00000000     <absolute>
 0000:00000000       ___guard_iat_count         00000000     <absolute>
 0000:00000000       ___guard_iat_table         00000000     <absolute>
 0000:00000000       ___guard_longjmp_count     00000000     <absolute>
 0000:00000000       ___guard_longjmp_table     00000000     <absolute>
 0000:00000000       ___hybrid_auxiliary_delayload_iat 00000000     <absolute>
 0000:00000000       ___hybrid_auxiliary_delayload_iat_copy 00000000     <absolute>
 0000:00000000       ___hybrid_auxiliary_iat    00000000     <absolute>
 0000:00000000       ___hybrid_auxiliary_iat_copy 00000000     <absolute>
 0000:00000000       ___hybrid_code_map         00000000     <absolute>
 0000:00000000       ___hybrid_code_map_count   00000000     <absolute>
 0000:00000000       ___hybrid_image_info_bitfield 00000000     <absolute>
 0000:00000000       ___safe_se_handler_count   00000000     <absolute>
 0000:00000000       ___safe_se_handler_table   00000000     <absolute>
 0000:00000000       ___x64_code_ranges_to_entry_points 00000000     <absolute>
 0000:00000000       ___x64_code_ranges_to_entry_points_count 00000000     <absolute>
 0000:00000000       __except_list              00000000     <absolute>
 0000:0000002c       __tls_array                0000002c     <absolute>
 0000:00000100       ___guard_flags             00000100     <absolute>
 0000:00000000       ___ImageBase               10000000     <linker-defined>
 0001:00000340       _DllMain@12                10001340 f   dllmain.cpp.obj
 0001:00000390       ??$sleep_for@_JU?$ratio@$00$0DOI@@std@@@this_thread@std@@YAXABV?$duration@_JU?$ratio@$00$0DOI@@std@@@chrono@1@@Z 10001390 f i ext_client.cpp.obj
 0001:00000560       ?apply@?$make_hook@$00XH@utils@ext_client@@QAE_NIP6GXH@Z@Z 10001560 f i ext_client.cpp.obj
 0001:00000560       ?apply@?$make_hook@$00XI@utils@ext_client@@QAE_NIP6GXI@Z@Z 10001560 f i ext_client.cpp.obj
 0001:00000560       ?apply@?$make_hook@$0A@XPAX@utils@ext_client@@QAE_NIP6IXPAX@Z@Z 10001560 f i ext_client.cpp.obj
 0001:00000590       ?cleanup@core@ext_client@@QAEXXZ 10001590 f   ext_client.cpp.obj
 0001:00000640       ?get@core@ext_client@@SAAAV12@XZ 10001640 f   ext_client.cpp.obj
 0001:00000650       ?get_module@core@ext_client@@QBEPAUHINSTANCE__@@XZ 10001650 f   ext_client.cpp.obj
 0001:00000660       ?load@?$_Atomic_storage@_N$00@std@@QBE_NW4memory_order@2@@Z 10001660 f i ext_client.cpp.obj
 0001:00000670       ?now@steady_clock@chrono@std@@SA?AV?$time_point@Usteady_clock@chrono@std@@V?$duration@_JU?$ratio@$00$0DLJKMKAA@@std@@@23@@23@XZ 10001670 f i ext_client.cpp.obj
 0001:000007e0       ?run@core@ext_client@@QAEXPAUHINSTANCE__@@@Z 100017e0 f   ext_client.cpp.obj
 0001:000009c0       ?set_main_thread_id@core@ext_client@@QAEXK@Z 100019c0 f   ext_client.cpp.obj
 0001:000009d0       ?store@?$_Atomic_storage@_N$00@std@@QAEX_NW4memory_order@2@@Z 100019d0 f i ext_client.cpp.obj
 0001:000009f0       ?tick@core@ext_client@@QAEXXZ 100019f0 f   ext_client.cpp.obj
 0001:00000a00       ?apply_detour@utils@ext_client@@YA_NPAD0PAPAD@Z 10001a00 f   hooks.cpp.obj
 0001:00000a70       ?hook_lib_init@utils@ext_client@@YA_NXZ 10001a70 f   hooks.cpp.obj
 0001:00000aa0       ?hook_lib_shutdown@utils@ext_client@@YA_NXZ 10001aa0 f   hooks.cpp.obj
 0001:00000ad0       ?remove_detour@utils@ext_client@@YA_NPAD@Z 10001ad0 f   hooks.cpp.obj
 0001:00000b00       ?arm@shutdown_guard@utils@ext_client@@YAXPBD@Z 10001b00 f   shutdown_guard.cpp.obj
 0001:00000b40       ?poll@shutdown_guard@utils@ext_client@@YAXXZ 10001b40 f   shutdown_guard.cpp.obj
 0001:00000b90       ??$_Destroy_range@V?$allocator@V?$function@$$A6AXXZ@std@@@std@@@std@@YAXPAV?$function@$$A6AXXZ@0@QAV10@AAV?$allocator@V?$function@$$A6AXXZ@std@@@0@@Z 10001b90 f i d3d_hook.cpp.obj
 0001:00000bd0       ??$_Emplace_reallocate@V?$function@$$A6AXXZ@std@@@?$vector@V?$function@$$A6AXXZ@std@@V?$allocator@V?$function@$$A6AXXZ@std@@@2@@std@@AAEPAV?$function@$$A6AXXZ@1@QAV21@$$QAV21@@Z 10001bd0 f i d3d_hook.cpp.obj
 0001:00000dd0       ??$_Uninitialized_move@PAV?$function@$$A6AXXZ@std@@V?$allocator@V?$function@$$A6AXXZ@std@@@2@@std@@YAPAV?$function@$$A6AXXZ@0@QAV10@0PAV10@AAV?$allocator@V?$function@$$A6AXXZ@std@@@0@@Z 10001dd0 f i d3d_hook.cpp.obj
 0001:00000e60       ??0bad_alloc@std@@QAE@ABV01@@Z 10001e60 f i d3d_hook.cpp.obj
 0001:00000e90       ??0bad_array_new_length@std@@QAE@ABV01@@Z 10001e90 f i d3d_hook.cpp.obj
 0001:00000ec0       ??0bad_array_new_length@std@@QAE@XZ 10001ec0 f i d3d_hook.cpp.obj
 0001:00000ee0       ??0exception@std@@QAE@ABV01@@Z 10001ee0 f i d3d_hook.cpp.obj
 0001:00000f10       ??1?$function@$$A6A?AW4handler_result@net_manager@ext_client@@AAUpacket_view@23@@Z@std@@QAE@XZ 10001f10 f i net_manager.cpp.obj
 0001:00000f10       ??1?$function@$$A6AXXZ@std@@QAE@XZ 10001f10 f i d3d_hook.cpp.obj
 0001:00000f40       ??1?$vector@V?$function@$$A6AXXZ@std@@V?$allocator@V?$function@$$A6AXXZ@std@@@2@@std@@QAE@XZ 10001f40 f i d3d_hook.cpp.obj
 0001:00000fc0       ??1_Init_once_completer@std@@QAE@XZ 10001fc0 f i d3d_hook.cpp.obj
 0001:00000fe0       ??1bad_alloc@std@@UAE@XZ   10001fe0 f i d3d_hook.cpp.obj
 0001:00000fe0       ??1bad_array_new_length@std@@UAE@XZ 10001fe0 f i d3d_hook.cpp.obj
 0001:00000fe0       ??1bad_exception@std@@UAE@XZ 10001fe0 f i libvcruntime:frame.obj
 0001:00000fe0       ??1bad_function_call@std@@UAE@XZ 10001fe0 f i libcpmt:xthrow.obj
 0001:00000fe0       ??1failure@ios_base@std@@UAE@XZ 10001fe0 f i client_config.cpp.obj
 0001:00000fe0       ??1length_error@std@@UAE@XZ 10001fe0 f i libcpmt:xthrow.obj
 0001:00000fe0       ??1out_of_range@std@@UAE@XZ 10001fe0 f i libcpmt:xthrow.obj
 0001:00000fe0       ??1runtime_error@std@@UAE@XZ 10001fe0 f i client_config.cpp.obj
 0001:00000fe0       ??1system_error@std@@UAE@XZ 10001fe0 f i client_config.cpp.obj
 0001:00001000       ??_Ebad_alloc@std@@UAEPAXI@Z 10002000 f i d3d_hook.cpp.obj
 0001:00001000       ??_Ebad_array_new_length@std@@UAEPAXI@Z 10002000 f i d3d_hook.cpp.obj
 0001:00001000       ??_Eexception@std@@UAEPAXI@Z 10002000 f i d3d_hook.cpp.obj
 0001:00001000       ??_Eruntime_error@std@@UAEPAXI@Z 10002000 f i client_config.cpp.obj
 0001:00001000       ??_Gbad_alloc@std@@UAEPAXI@Z 10002000 f i d3d_hook.cpp.obj
 0001:00001000       ??_Gbad_array_new_length@std@@UAEPAXI@Z 10002000 f i d3d_hook.cpp.obj
 0001:00001000       ??_Gexception@std@@UAEPAXI@Z 10002000 f i d3d_hook.cpp.obj
 0001:00001000       ??_Gruntime_error@std@@UAEPAXI@Z 10002000 f i client_config.cpp.obj
 0001:00001030       ?_Copy@?$_Func_impl_no_alloc@V<lambda_59909544974d3be07ecadbe172069b22>@@X$$V@std@@EBEPAV?$_Func_base@X$$V@2@PAX@Z 10002030 f i d3d_hook.cpp.obj
 0001:00001030       ?_Move@?$_Func_impl_no_alloc@V<lambda_59909544974d3be07ecadbe172069b22>@@X$$V@std@@EAEPAV?$_Func_base@X$$V@2@PAX@Z 10002030 f i d3d_hook.cpp.obj
 0001:00001050       ?_Copy@?$_Func_impl_no_alloc@V<lambda_8019bdfe0512b4fe063b74018eb77c39>@@X$$V@std@@EBEPAV?$_Func_base@X$$V@2@PAX@Z 10002050 f i d3d_hook.cpp.obj
 0001:00001050       ?_Move@?$_Func_impl_no_alloc@V<lambda_8019bdfe0512b4fe063b74018eb77c39>@@X$$V@std@@EAEPAV?$_Func_base@X$$V@2@PAX@Z 10002050 f i d3d_hook.cpp.obj
 0001:00001070       ?_Copy@?$_Func_impl_no_alloc@V<lambda_b04c464536f8b168a4c9ecd89205d2d2>@@X$$V@std@@EBEPAV?$_Func_base@X$$V@2@PAX@Z 10002070 f i d3d_hook.cpp.obj
 0001:00001070       ?_Move@?$_Func_impl_no_alloc@V<lambda_b04c464536f8b168a4c9ecd89205d2d2>@@X$$V@std@@EAEPAV?$_Func_base@X$$V@2@PAX@Z 10002070 f i d3d_hook.cpp.obj
 0001:00001090       ?_Copy@?$_Func_impl_no_alloc@V<lambda_ee8dfbd253b68aa19b43fb36ec206597>@@X$$V@std@@EBEPAV?$_Func_base@X$$V@2@PAX@Z 10002090 f i d3d_hook.cpp.obj
 0001:00001090       ?_Move@?$_Func_impl_no_alloc@V<lambda_ee8dfbd253b68aa19b43fb36ec206597>@@X$$V@std@@EAEPAV?$_Func_base@X$$V@2@PAX@Z 10002090 f i d3d_hook.cpp.obj
 0001:000010b0       ?_Delete_this@?$_Func_impl_no_alloc@V<lambda_00dbecd7ce64df782535c75b83b36d9b>@@X$$V@std@@EAEX_N@Z 100020b0 f i quest_hook.cpp.obj
 0001:000010b0       ?_Delete_this@?$_Func_impl_no_alloc@V<lambda_05397b0f5f50f30f14183dccbd5f6e17>@@X$$V@std@@EAEX_N@Z 100020b0 f i packet_hook.cpp.obj
 0001:000010b0       ?_Delete_this@?$_Func_impl_no_alloc@V<lambda_0753aca32cbf0d54a6a3e7c426e16cb4>@@X$$V@std@@EAEX_N@Z 100020b0 f i version_check_hook.cpp.obj
 0001:000010b0       ?_Delete_this@?$_Func_impl_no_alloc@V<lambda_079c22eb3c80a0513874cc5549a2b922>@@X$$V@std@@EAEX_N@Z 100020b0 f i packet_hook.cpp.obj
 0001:000010b0       ?_Delete_this@?$_Func_impl_no_alloc@V<lambda_102cef23f42d3c4b8824b1393e54502b>@@X$$V@std@@EAEX_N@Z 100020b0 f i assert_hook.cpp.obj
 0001:000010b0       ?_Delete_this@?$_Func_impl_no_alloc@V<lambda_148d939d3f328850d25f1b60d13e1a30>@@X$$V@std@@EAEX_N@Z 100020b0 f i packet_hook.cpp.obj
 0001:000010b0       ?_Delete_this@?$_Func_impl_no_alloc@V<lambda_19ea2bfdb895bb65b013e89caf4128fb>@@X$$V@std@@EAEX_N@Z 100020b0 f i version_check_hook.cpp.obj
 0001:000010b0       ?_Delete_this@?$_Func_impl_no_alloc@V<lambda_2361990076fc079cb21c0372f92e4945>@@X$$V@std@@EAEX_N@Z 100020b0 f i intro_hook.cpp.obj
 0001:000010b0       ?_Delete_this@?$_Func_impl_no_alloc@V<lambda_2b4e874bcc56da08e0b7e4d871685d0b>@@X$$V@std@@EAEX_N@Z 100020b0 f i version_check_hook.cpp.obj
 0001:000010b0       ?_Delete_this@?$_Func_impl_no_alloc@V<lambda_31d96936e7aec46c316efa19b922f190>@@X$$V@std@@EAEX_N@Z 100020b0 f i version_check_hook.cpp.obj
 0001:000010b0       ?_Delete_this@?$_Func_impl_no_alloc@V<lambda_567523d5fd7dcefcd0bcfc084fe47d8c>@@X$$V@std@@EAEX_N@Z 100020b0 f i interface_hide_hook.cpp.obj
 0001:000010b0       ?_Delete_this@?$_Func_impl_no_alloc@V<lambda_59909544974d3be07ecadbe172069b22>@@X$$V@std@@EAEX_N@Z 100020b0 f i d3d_hook.cpp.obj
 0001:000010b0       ?_Delete_this@?$_Func_impl_no_alloc@V<lambda_8019bdfe0512b4fe063b74018eb77c39>@@X$$V@std@@EAEX_N@Z 100020b0 f i d3d_hook.cpp.obj
 0001:000010b0       ?_Delete_this@?$_Func_impl_no_alloc@V<lambda_8392ef37813845485c1600dec211f7dd>@@X$$V@std@@EAEX_N@Z 100020b0 f i character_select_hook.cpp.obj
 0001:000010b0       ?_Delete_this@?$_Func_impl_no_alloc@V<lambda_871a06b5f1626861ab912f565d990cd1>@@X$$V@std@@EAEX_N@Z 100020b0 f i packet_hook.cpp.obj
 0001:000010b0       ?_Delete_this@?$_Func_impl_no_alloc@V<lambda_919ba523871a6660731b860850c24c35>@@X$$V@std@@EAEX_N@Z 100020b0 f i title_hook.cpp.obj
 0001:000010b0       ?_Delete_this@?$_Func_impl_no_alloc@V<lambda_9c931b08981ab1c8b2118511c7bdace0>@@X$$V@std@@EAEX_N@Z 100020b0 f i version_check_hook.cpp.obj
 0001:000010b0       ?_Delete_this@?$_Func_impl_no_alloc@V<lambda_9e54353aa454f7d92a3812adb7bd9804>@@X$$V@std@@EAEX_N@Z 100020b0 f i character_select_hook.cpp.obj
 0001:000010b0       ?_Delete_this@?$_Func_impl_no_alloc@V<lambda_a280fd544349889b841fe2b307d35585>@@X$$V@std@@EAEX_N@Z 100020b0 f i interface_hide_hook.cpp.obj
 0001:000010b0       ?_Delete_this@?$_Func_impl_no_alloc@V<lambda_a62fe0be53d700e6aed8d3501e17d169>@@X$$V@std@@EAEX_N@Z 100020b0 f i interface_hide_hook.cpp.obj
 0001:000010b0       ?_Delete_this@?$_Func_impl_no_alloc@V<lambda_a9ab3610afa722316d9e4be261787542>@@X$$V@std@@EAEX_N@Z 100020b0 f i character_select_hook.cpp.obj
 0001:000010b0       ?_Delete_this@?$_Func_impl_no_alloc@V<lambda_b04c464536f8b168a4c9ecd89205d2d2>@@X$$V@std@@EAEX_N@Z 100020b0 f i d3d_hook.cpp.obj
 0001:000010b0       ?_Delete_this@?$_Func_impl_no_alloc@V<lambda_c87f17a2cdfaa0e3acdd13ec8caf5dcf>@@X$$V@std@@EAEX_N@Z 100020b0 f i welcome_msg_hook.cpp.obj
 0001:000010b0       ?_Delete_this@?$_Func_impl_no_alloc@V<lambda_cf0eba39f8e1eaab3d7f90723a1611a1>@@X$$V@std@@EAEX_N@Z 100020b0 f i sight_range_hook.cpp.obj
 0001:000010b0       ?_Delete_this@?$_Func_impl_no_alloc@V<lambda_d5387bcdc0c40a1de130e5b4a363145c>@@X$$V@std@@EAEX_N@Z 100020b0 f i character_select_hook.cpp.obj
 0001:000010b0       ?_Delete_this@?$_Func_impl_no_alloc@V<lambda_d808f1789c8518bdbc5271d6edea4e84>@@X$$V@std@@EAEX_N@Z 100020b0 f i packet_hook.cpp.obj
 0001:000010b0       ?_Delete_this@?$_Func_impl_no_alloc@V<lambda_dcdab12d9be94e416b0298cb70ec5c72>@@X$$V@std@@EAEX_N@Z 100020b0 f i version_check_hook.cpp.obj
 0001:000010b0       ?_Delete_this@?$_Func_impl_no_alloc@V<lambda_ee8dfbd253b68aa19b43fb36ec206597>@@X$$V@std@@EAEX_N@Z 100020b0 f i d3d_hook.cpp.obj
 0001:000010b0       ?_Delete_this@?$_Func_impl_no_alloc@V<lambda_faf072030710147a91b256853ea97040>@@X$$V@std@@EAEX_N@Z 100020b0 f i title_hook.cpp.obj
 0001:000010d0       ?_Do_call@?$_Func_impl_no_alloc@V<lambda_00dbecd7ce64df782535c75b83b36d9b>@@X$$V@std@@EAEXXZ 100020d0 f i quest_hook.cpp.obj
 0001:000010d0       ?_Do_call@?$_Func_impl_no_alloc@V<lambda_05397b0f5f50f30f14183dccbd5f6e17>@@X$$V@std@@EAEXXZ 100020d0 f i packet_hook.cpp.obj
 0001:000010d0       ?_Do_call@?$_Func_impl_no_alloc@V<lambda_0753aca32cbf0d54a6a3e7c426e16cb4>@@X$$V@std@@EAEXXZ 100020d0 f i version_check_hook.cpp.obj
 0001:000010d0       ?_Do_call@?$_Func_impl_no_alloc@V<lambda_079c22eb3c80a0513874cc5549a2b922>@@X$$V@std@@EAEXXZ 100020d0 f i packet_hook.cpp.obj
 0001:000010d0       ?_Do_call@?$_Func_impl_no_alloc@V<lambda_102cef23f42d3c4b8824b1393e54502b>@@X$$V@std@@EAEXXZ 100020d0 f i assert_hook.cpp.obj
 0001:000010d0       ?_Do_call@?$_Func_impl_no_alloc@V<lambda_148d939d3f328850d25f1b60d13e1a30>@@X$$V@std@@EAEXXZ 100020d0 f i packet_hook.cpp.obj
 0001:000010d0       ?_Do_call@?$_Func_impl_no_alloc@V<lambda_19ea2bfdb895bb65b013e89caf4128fb>@@X$$V@std@@EAEXXZ 100020d0 f i version_check_hook.cpp.obj
 0001:000010d0       ?_Do_call@?$_Func_impl_no_alloc@V<lambda_2361990076fc079cb21c0372f92e4945>@@X$$V@std@@EAEXXZ 100020d0 f i intro_hook.cpp.obj
 0001:000010d0       ?_Do_call@?$_Func_impl_no_alloc@V<lambda_2b4e874bcc56da08e0b7e4d871685d0b>@@X$$V@std@@EAEXXZ 100020d0 f i version_check_hook.cpp.obj
 0001:000010d0       ?_Do_call@?$_Func_impl_no_alloc@V<lambda_31d96936e7aec46c316efa19b922f190>@@X$$V@std@@EAEXXZ 100020d0 f i version_check_hook.cpp.obj
 0001:000010d0       ?_Do_call@?$_Func_impl_no_alloc@V<lambda_567523d5fd7dcefcd0bcfc084fe47d8c>@@X$$V@std@@EAEXXZ 100020d0 f i interface_hide_hook.cpp.obj
 0001:000010d0       ?_Do_call@?$_Func_impl_no_alloc@V<lambda_59909544974d3be07ecadbe172069b22>@@X$$V@std@@EAEXXZ 100020d0 f i d3d_hook.cpp.obj
 0001:000010d0       ?_Do_call@?$_Func_impl_no_alloc@V<lambda_8019bdfe0512b4fe063b74018eb77c39>@@X$$V@std@@EAEXXZ 100020d0 f i d3d_hook.cpp.obj
 0001:000010d0       ?_Do_call@?$_Func_impl_no_alloc@V<lambda_8392ef37813845485c1600dec211f7dd>@@X$$V@std@@EAEXXZ 100020d0 f i character_select_hook.cpp.obj
 0001:000010d0       ?_Do_call@?$_Func_impl_no_alloc@V<lambda_871a06b5f1626861ab912f565d990cd1>@@X$$V@std@@EAEXXZ 100020d0 f i packet_hook.cpp.obj
 0001:000010d0       ?_Do_call@?$_Func_impl_no_alloc@V<lambda_919ba523871a6660731b860850c24c35>@@X$$V@std@@EAEXXZ 100020d0 f i title_hook.cpp.obj
 0001:000010d0       ?_Do_call@?$_Func_impl_no_alloc@V<lambda_9c931b08981ab1c8b2118511c7bdace0>@@X$$V@std@@EAEXXZ 100020d0 f i version_check_hook.cpp.obj
 0001:000010d0       ?_Do_call@?$_Func_impl_no_alloc@V<lambda_9e54353aa454f7d92a3812adb7bd9804>@@X$$V@std@@EAEXXZ 100020d0 f i character_select_hook.cpp.obj
 0001:000010d0       ?_Do_call@?$_Func_impl_no_alloc@V<lambda_a280fd544349889b841fe2b307d35585>@@X$$V@std@@EAEXXZ 100020d0 f i interface_hide_hook.cpp.obj
 0001:000010d0       ?_Do_call@?$_Func_impl_no_alloc@V<lambda_a62fe0be53d700e6aed8d3501e17d169>@@X$$V@std@@EAEXXZ 100020d0 f i interface_hide_hook.cpp.obj
 0001:000010d0       ?_Do_call@?$_Func_impl_no_alloc@V<lambda_a9ab3610afa722316d9e4be261787542>@@X$$V@std@@EAEXXZ 100020d0 f i character_select_hook.cpp.obj
 0001:000010d0       ?_Do_call@?$_Func_impl_no_alloc@V<lambda_b04c464536f8b168a4c9ecd89205d2d2>@@X$$V@std@@EAEXXZ 100020d0 f i d3d_hook.cpp.obj
 0001:000010d0       ?_Do_call@?$_Func_impl_no_alloc@V<lambda_c87f17a2cdfaa0e3acdd13ec8caf5dcf>@@X$$V@std@@EAEXXZ 100020d0 f i welcome_msg_hook.cpp.obj
 0001:000010d0       ?_Do_call@?$_Func_impl_no_alloc@V<lambda_cf0eba39f8e1eaab3d7f90723a1611a1>@@X$$V@std@@EAEXXZ 100020d0 f i sight_range_hook.cpp.obj
 0001:000010d0       ?_Do_call@?$_Func_impl_no_alloc@V<lambda_d5387bcdc0c40a1de130e5b4a363145c>@@X$$V@std@@EAEXXZ 100020d0 f i character_select_hook.cpp.obj
 0001:000010d0       ?_Do_call@?$_Func_impl_no_alloc@V<lambda_d808f1789c8518bdbc5271d6edea4e84>@@X$$V@std@@EAEXXZ 100020d0 f i packet_hook.cpp.obj
 0001:000010d0       ?_Do_call@?$_Func_impl_no_alloc@V<lambda_dcdab12d9be94e416b0298cb70ec5c72>@@X$$V@std@@EAEXXZ 100020d0 f i version_check_hook.cpp.obj
 0001:000010d0       ?_Do_call@?$_Func_impl_no_alloc@V<lambda_ee8dfbd253b68aa19b43fb36ec206597>@@X$$V@std@@EAEXXZ 100020d0 f i d3d_hook.cpp.obj
 0001:000010d0       ?_Do_call@?$_Func_impl_no_alloc@V<lambda_faf072030710147a91b256853ea97040>@@X$$V@std@@EAEXXZ 100020d0 f i title_hook.cpp.obj
 0001:000010f0       ?_Get@?$_Func_impl_no_alloc@V<lambda_00dbecd7ce64df782535c75b83b36d9b>@@X$$V@std@@EBEPBXXZ 100020f0 f i quest_hook.cpp.obj
 0001:000010f0       ?_Get@?$_Func_impl_no_alloc@V<lambda_05397b0f5f50f30f14183dccbd5f6e17>@@X$$V@std@@EBEPBXXZ 100020f0 f i packet_hook.cpp.obj
 0001:000010f0       ?_Get@?$_Func_impl_no_alloc@V<lambda_0753aca32cbf0d54a6a3e7c426e16cb4>@@X$$V@std@@EBEPBXXZ 100020f0 f i version_check_hook.cpp.obj
 0001:000010f0       ?_Get@?$_Func_impl_no_alloc@V<lambda_079c22eb3c80a0513874cc5549a2b922>@@X$$V@std@@EBEPBXXZ 100020f0 f i packet_hook.cpp.obj
 0001:000010f0       ?_Get@?$_Func_impl_no_alloc@V<lambda_102cef23f42d3c4b8824b1393e54502b>@@X$$V@std@@EBEPBXXZ 100020f0 f i assert_hook.cpp.obj
 0001:000010f0       ?_Get@?$_Func_impl_no_alloc@V<lambda_148d939d3f328850d25f1b60d13e1a30>@@X$$V@std@@EBEPBXXZ 100020f0 f i packet_hook.cpp.obj
 0001:000010f0       ?_Get@?$_Func_impl_no_alloc@V<lambda_19ea2bfdb895bb65b013e89caf4128fb>@@X$$V@std@@EBEPBXXZ 100020f0 f i version_check_hook.cpp.obj
 0001:000010f0       ?_Get@?$_Func_impl_no_alloc@V<lambda_2361990076fc079cb21c0372f92e4945>@@X$$V@std@@EBEPBXXZ 100020f0 f i intro_hook.cpp.obj
 0001:000010f0       ?_Get@?$_Func_impl_no_alloc@V<lambda_2b4e874bcc56da08e0b7e4d871685d0b>@@X$$V@std@@EBEPBXXZ 100020f0 f i version_check_hook.cpp.obj
 0001:000010f0       ?_Get@?$_Func_impl_no_alloc@V<lambda_31d96936e7aec46c316efa19b922f190>@@X$$V@std@@EBEPBXXZ 100020f0 f i version_check_hook.cpp.obj
 0001:000010f0       ?_Get@?$_Func_impl_no_alloc@V<lambda_567523d5fd7dcefcd0bcfc084fe47d8c>@@X$$V@std@@EBEPBXXZ 100020f0 f i interface_hide_hook.cpp.obj
 0001:000010f0       ?_Get@?$_Func_impl_no_alloc@V<lambda_59909544974d3be07ecadbe172069b22>@@X$$V@std@@EBEPBXXZ 100020f0 f i d3d_hook.cpp.obj
 0001:000010f0       ?_Get@?$_Func_impl_no_alloc@V<lambda_8019bdfe0512b4fe063b74018eb77c39>@@X$$V@std@@EBEPBXXZ 100020f0 f i d3d_hook.cpp.obj
 0001:000010f0       ?_Get@?$_Func_impl_no_alloc@V<lambda_8392ef37813845485c1600dec211f7dd>@@X$$V@std@@EBEPBXXZ 100020f0 f i character_select_hook.cpp.obj
 0001:000010f0       ?_Get@?$_Func_impl_no_alloc@V<lambda_871a06b5f1626861ab912f565d990cd1>@@X$$V@std@@EBEPBXXZ 100020f0 f i packet_hook.cpp.obj
 0001:000010f0       ?_Get@?$_Func_impl_no_alloc@V<lambda_919ba523871a6660731b860850c24c35>@@X$$V@std@@EBEPBXXZ 100020f0 f i title_hook.cpp.obj
 0001:000010f0       ?_Get@?$_Func_impl_no_alloc@V<lambda_9c931b08981ab1c8b2118511c7bdace0>@@X$$V@std@@EBEPBXXZ 100020f0 f i version_check_hook.cpp.obj
 0001:000010f0       ?_Get@?$_Func_impl_no_alloc@V<lambda_9e54353aa454f7d92a3812adb7bd9804>@@X$$V@std@@EBEPBXXZ 100020f0 f i character_select_hook.cpp.obj
 0001:000010f0       ?_Get@?$_Func_impl_no_alloc@V<lambda_a280fd544349889b841fe2b307d35585>@@X$$V@std@@EBEPBXXZ 100020f0 f i interface_hide_hook.cpp.obj
 0001:000010f0       ?_Get@?$_Func_impl_no_alloc@V<lambda_a62fe0be53d700e6aed8d3501e17d169>@@X$$V@std@@EBEPBXXZ 100020f0 f i interface_hide_hook.cpp.obj
 0001:000010f0       ?_Get@?$_Func_impl_no_alloc@V<lambda_a9ab3610afa722316d9e4be261787542>@@X$$V@std@@EBEPBXXZ 100020f0 f i character_select_hook.cpp.obj
 0001:000010f0       ?_Get@?$_Func_impl_no_alloc@V<lambda_b04c464536f8b168a4c9ecd89205d2d2>@@X$$V@std@@EBEPBXXZ 100020f0 f i d3d_hook.cpp.obj
 0001:000010f0       ?_Get@?$_Func_impl_no_alloc@V<lambda_c87f17a2cdfaa0e3acdd13ec8caf5dcf>@@X$$V@std@@EBEPBXXZ 100020f0 f i welcome_msg_hook.cpp.obj
 0001:000010f0       ?_Get@?$_Func_impl_no_alloc@V<lambda_cf0eba39f8e1eaab3d7f90723a1611a1>@@X$$V@std@@EBEPBXXZ 100020f0 f i sight_range_hook.cpp.obj
 0001:000010f0       ?_Get@?$_Func_impl_no_alloc@V<lambda_d5387bcdc0c40a1de130e5b4a363145c>@@X$$V@std@@EBEPBXXZ 100020f0 f i character_select_hook.cpp.obj
 0001:000010f0       ?_Get@?$_Func_impl_no_alloc@V<lambda_d808f1789c8518bdbc5271d6edea4e84>@@X$$V@std@@EBEPBXXZ 100020f0 f i packet_hook.cpp.obj
 0001:000010f0       ?_Get@?$_Func_impl_no_alloc@V<lambda_dcdab12d9be94e416b0298cb70ec5c72>@@X$$V@std@@EBEPBXXZ 100020f0 f i version_check_hook.cpp.obj
 0001:000010f0       ?_Get@?$_Func_impl_no_alloc@V<lambda_ee8dfbd253b68aa19b43fb36ec206597>@@X$$V@std@@EBEPBXXZ 100020f0 f i d3d_hook.cpp.obj
 0001:000010f0       ?_Get@?$_Func_impl_no_alloc@V<lambda_faf072030710147a91b256853ea97040>@@X$$V@std@@EBEPBXXZ 100020f0 f i title_hook.cpp.obj
 0001:00001100       ?_Target_type@?$_Func_impl_no_alloc@V<lambda_59909544974d3be07ecadbe172069b22>@@X$$V@std@@EBEABVtype_info@@XZ 10002100 f i d3d_hook.cpp.obj
 0001:00001110       ?_Target_type@?$_Func_impl_no_alloc@V<lambda_8019bdfe0512b4fe063b74018eb77c39>@@X$$V@std@@EBEABVtype_info@@XZ 10002110 f i d3d_hook.cpp.obj
 0001:00001120       ?_Target_type@?$_Func_impl_no_alloc@V<lambda_b04c464536f8b168a4c9ecd89205d2d2>@@X$$V@std@@EBEABVtype_info@@XZ 10002120 f i d3d_hook.cpp.obj
 0001:00001130       ?_Target_type@?$_Func_impl_no_alloc@V<lambda_ee8dfbd253b68aa19b43fb36ec206597>@@X$$V@std@@EBEABVtype_info@@XZ 10002130 f i d3d_hook.cpp.obj
 0001:00001140       ?_Throw_bad_array_new_length@std@@YAXXZ 10002140 f i d3d_hook.cpp.obj
 0001:00001160       ?_Xlength@?$vector@EV?$allocator@E@std@@@std@@CAXXZ 10002160 f i packet_hook.cpp.obj
 0001:00001160       ?_Xlength@?$vector@PAVcgwnd@@V?$allocator@PAVcgwnd@@@std@@@std@@CAXXZ 10002160 f i widget_inspector.cpp.obj
 0001:00001160       ?_Xlength@?$vector@Uentry@net_manager@ext_client@@V?$allocator@Uentry@net_manager@ext_client@@@std@@@std@@CAXXZ 10002160 f i net_manager.cpp.obj
 0001:00001160       ?_Xlength@?$vector@Ures_map_entry@cif_manager@ext_client@@V?$allocator@Ures_map_entry@cif_manager@ext_client@@@std@@@std@@CAXXZ 10002160 f i cif_manager.cpp.obj
 0001:00001160       ?_Xlength@?$vector@Uwidget_info@cif_manager@ext_client@@V?$allocator@Uwidget_info@cif_manager@ext_client@@@std@@@std@@CAXXZ 10002160 f i widget_inspector.cpp.obj
 0001:00001160       ?_Xlength@?$vector@V?$function@$$A6AXXZ@std@@V?$allocator@V?$function@$$A6AXXZ@std@@@2@@std@@CAXXZ 10002160 f i d3d_hook.cpp.obj
 0001:00001810       ?install@d3d@hooks@ext_client@@YA_NXZ 10002810 f   d3d_hook.cpp.obj
 0001:00001990       ?is_installed@d3d@hooks@ext_client@@YA_NXZ 10002990 f   d3d_hook.cpp.obj
 0001:000019b0       ?push_back@?$vector@V?$function@$$A6AXXZ@std@@V?$allocator@V?$function@$$A6AXXZ@std@@@2@@std@@QAEX$$QAV?$function@$$A6AXXZ@2@@Z 100029b0 f i d3d_hook.cpp.obj
 0001:00001af0       ?uninstall@d3d@hooks@ext_client@@YAXXZ 10002af0 f   d3d_hook.cpp.obj
 0001:00001b50       ?uninstall@hook_group@utils@ext_client@@QAEXXZ 10002b50 f i d3d_hook.cpp.obj
 0001:00001ba0       ?what@exception@std@@UBEPBDXZ 10002ba0 f i d3d_hook.cpp.obj
 0001:00001c80       ?install_all@manager@hooks@ext_client@@YA_NXZ 10002c80 f   hook_manager.cpp.obj
 0001:00001d80       ?tick@manager@hooks@ext_client@@YAXXZ 10002d80 f   hook_manager.cpp.obj
 0001:00001d90       ?uninstall_all@manager@hooks@ext_client@@YAXXZ 10002d90 f   hook_manager.cpp.obj
 0001:00001dd0       ??$install@V?$make_hook@$01H$$V@utils@ext_client@@P6AHXZ@hook_group@utils@ext_client@@QAE_NAAV?$make_hook@$01H$$V@12@IP6AHXZPBD2@Z 10002dd0 f i version_check_hook.cpp.obj
 0001:00001f00       ??1?$vector@EV?$allocator@E@std@@@std@@QAE@XZ 10002f00 f i version_check_hook.cpp.obj
 0001:00001f00       ?_Tidy@?$vector@EV?$allocator@E@std@@@std@@AAEXXZ 10002f00 f i version_check_hook.cpp.obj
 0001:00001f60       ??_EBitmap@Gdiplus@@UAEPAXI@Z 10002f60 f i version_check_hook.cpp.obj
 0001:00001f60       ??_EImage@Gdiplus@@UAEPAXI@Z 10002f60 f i version_check_hook.cpp.obj
 0001:00001f60       ??_GBitmap@Gdiplus@@UAEPAXI@Z 10002f60 f i version_check_hook.cpp.obj
 0001:00001f60       ??_GImage@Gdiplus@@UAEPAXI@Z 10002f60 f i version_check_hook.cpp.obj
 0001:00001fa0       ?Clone@Image@Gdiplus@@UAEPAV12@XZ 10002fa0 f i version_check_hook.cpp.obj
 0001:00001ff0       ?_Copy@?$_Func_impl_no_alloc@V<lambda_0753aca32cbf0d54a6a3e7c426e16cb4>@@X$$V@std@@EBEPAV?$_Func_base@X$$V@2@PAX@Z 10002ff0 f i version_check_hook.cpp.obj
 0001:00001ff0       ?_Move@?$_Func_impl_no_alloc@V<lambda_0753aca32cbf0d54a6a3e7c426e16cb4>@@X$$V@std@@EAEPAV?$_Func_base@X$$V@2@PAX@Z 10002ff0 f i version_check_hook.cpp.obj
 0001:00002010       ?_Copy@?$_Func_impl_no_alloc@V<lambda_19ea2bfdb895bb65b013e89caf4128fb>@@X$$V@std@@EBEPAV?$_Func_base@X$$V@2@PAX@Z 10003010 f i version_check_hook.cpp.obj
 0001:00002010       ?_Move@?$_Func_impl_no_alloc@V<lambda_19ea2bfdb895bb65b013e89caf4128fb>@@X$$V@std@@EAEPAV?$_Func_base@X$$V@2@PAX@Z 10003010 f i version_check_hook.cpp.obj
 0001:00002030       ?_Copy@?$_Func_impl_no_alloc@V<lambda_2b4e874bcc56da08e0b7e4d871685d0b>@@X$$V@std@@EBEPAV?$_Func_base@X$$V@2@PAX@Z 10003030 f i version_check_hook.cpp.obj
 0001:00002030       ?_Move@?$_Func_impl_no_alloc@V<lambda_2b4e874bcc56da08e0b7e4d871685d0b>@@X$$V@std@@EAEPAV?$_Func_base@X$$V@2@PAX@Z 10003030 f i version_check_hook.cpp.obj
 0001:00002050       ?_Copy@?$_Func_impl_no_alloc@V<lambda_31d96936e7aec46c316efa19b922f190>@@X$$V@std@@EBEPAV?$_Func_base@X$$V@2@PAX@Z 10003050 f i version_check_hook.cpp.obj
 0001:00002050       ?_Move@?$_Func_impl_no_alloc@V<lambda_31d96936e7aec46c316efa19b922f190>@@X$$V@std@@EAEPAV?$_Func_base@X$$V@2@PAX@Z 10003050 f i version_check_hook.cpp.obj
 0001:00002070       ?_Copy@?$_Func_impl_no_alloc@V<lambda_9c931b08981ab1c8b2118511c7bdace0>@@X$$V@std@@EBEPAV?$_Func_base@X$$V@2@PAX@Z 10003070 f i version_check_hook.cpp.obj
 0001:00002070       ?_Move@?$_Func_impl_no_alloc@V<lambda_9c931b08981ab1c8b2118511c7bdace0>@@X$$V@std@@EAEPAV?$_Func_base@X$$V@2@PAX@Z 10003070 f i version_check_hook.cpp.obj
 0001:00002090       ?_Copy@?$_Func_impl_no_alloc@V<lambda_dcdab12d9be94e416b0298cb70ec5c72>@@X$$V@std@@EBEPAV?$_Func_base@X$$V@2@PAX@Z 10003090 f i version_check_hook.cpp.obj
 0001:00002090       ?_Move@?$_Func_impl_no_alloc@V<lambda_dcdab12d9be94e416b0298cb70ec5c72>@@X$$V@std@@EAEPAV?$_Func_base@X$$V@2@PAX@Z 10003090 f i version_check_hook.cpp.obj
 0001:000020b0       ?_Target_type@?$_Func_impl_no_alloc@V<lambda_0753aca32cbf0d54a6a3e7c426e16cb4>@@X$$V@std@@EBEABVtype_info@@XZ 100030b0 f i version_check_hook.cpp.obj
 0001:000020c0       ?_Target_type@?$_Func_impl_no_alloc@V<lambda_19ea2bfdb895bb65b013e89caf4128fb>@@X$$V@std@@EBEABVtype_info@@XZ 100030c0 f i version_check_hook.cpp.obj
 0001:000020d0       ?_Target_type@?$_Func_impl_no_alloc@V<lambda_2b4e874bcc56da08e0b7e4d871685d0b>@@X$$V@std@@EBEABVtype_info@@XZ 100030d0 f i version_check_hook.cpp.obj
 0001:000020e0       ?_Target_type@?$_Func_impl_no_alloc@V<lambda_31d96936e7aec46c316efa19b922f190>@@X$$V@std@@EBEABVtype_info@@XZ 100030e0 f i version_check_hook.cpp.obj
 0001:000020f0       ?_Target_type@?$_Func_impl_no_alloc@V<lambda_9c931b08981ab1c8b2118511c7bdace0>@@X$$V@std@@EBEABVtype_info@@XZ 100030f0 f i version_check_hook.cpp.obj
 0001:00002100       ?_Target_type@?$_Func_impl_no_alloc@V<lambda_dcdab12d9be94e416b0298cb70ec5c72>@@X$$V@std@@EBEABVtype_info@@XZ 10003100 f i version_check_hook.cpp.obj
 0001:00002110       ??3@YAXPAXUImNewWrapper@@0@Z 10003110 f i imgui.cpp.obj
 0001:00002110       ?_Lock@?$basic_streambuf@DU?$char_traits@D@std@@@std@@UAEXXZ 10003110 f i client_config.cpp.obj
 0001:00002110       ?_Unlock@?$basic_streambuf@DU?$char_traits@D@std@@@std@@UAEXXZ 10003110 f i client_config.cpp.obj
 0001:00002110       ?__empty_global_delete@@YAXPAXI@Z 10003110 f i version_check_hook.cpp.obj
 0001:00002110       ?__global_delete@@YAXPAXI@Z 10003110 f i version_check_hook.cpp.obj
 0001:00002110       @_guard_check_icall_nop@4  10003110 f i LIBCMT:guard_support.obj
 0001:00002110       _InitializeBuffer          10003110 f i minhook:buffer.c.obj
 0001:000024a0       ?control_panel@version_check@hooks@ext_client@@YAAAUversion_check_t@settings@config@3@XZ 100034a0 f   version_check_hook.cpp.obj
 0001:00002a90       ?deallocate@?$allocator@E@std@@QAEXQAEI@Z 10003a90 f i version_check_hook.cpp.obj
 0001:00002ad0       ?install@version_check@hooks@ext_client@@YA_NXZ 10003ad0 f   version_check_hook.cpp.obj
 0001:00004200       ?tick@version_check@hooks@ext_client@@YAXXZ 10005200 f   version_check_hook.cpp.obj
 0001:00004280       ?uninstall@version_check@hooks@ext_client@@YAXXZ 10005280 f   version_check_hook.cpp.obj
 0001:000043c0       ___local_stdio_printf_options 100053c0 f i version_check_hook.cpp.obj
 0001:000043d0       _snprintf                  100053d0 f i version_check_hook.cpp.obj
 0001:00004910       ?start@loading_splash_overlay@hooks@ext_client@@YA_NPAUHWND__@@ABUconfig@123@@Z 10005910 f   loading_splash_overlay.cpp.obj
 0001:000049f0       ?stop@loading_splash_overlay@hooks@ext_client@@YAXXZ 100059f0 f   loading_splash_overlay.cpp.obj
 0001:00004ca0       ??1?$basic_string@_WU?$char_traits@_W@std@@V?$allocator@_W@2@@std@@QAE@XZ 10005ca0 f i title_hook.cpp.obj
 0001:00004d00       ?_Copy@?$_Func_impl_no_alloc@V<lambda_919ba523871a6660731b860850c24c35>@@X$$V@std@@EBEPAV?$_Func_base@X$$V@2@PAX@Z 10005d00 f i title_hook.cpp.obj
 0001:00004d00       ?_Move@?$_Func_impl_no_alloc@V<lambda_919ba523871a6660731b860850c24c35>@@X$$V@std@@EAEPAV?$_Func_base@X$$V@2@PAX@Z 10005d00 f i title_hook.cpp.obj
 0001:00004d20       ?_Copy@?$_Func_impl_no_alloc@V<lambda_faf072030710147a91b256853ea97040>@@X$$V@std@@EBEPAV?$_Func_base@X$$V@2@PAX@Z 10005d20 f i title_hook.cpp.obj
 0001:00004d20       ?_Move@?$_Func_impl_no_alloc@V<lambda_faf072030710147a91b256853ea97040>@@X$$V@std@@EAEPAV?$_Func_base@X$$V@2@PAX@Z 10005d20 f i title_hook.cpp.obj
 0001:00004d40       ?_Target_type@?$_Func_impl_no_alloc@V<lambda_919ba523871a6660731b860850c24c35>@@X$$V@std@@EBEABVtype_info@@XZ 10005d40 f i title_hook.cpp.obj
 0001:00004d50       ?_Target_type@?$_Func_impl_no_alloc@V<lambda_faf072030710147a91b256853ea97040>@@X$$V@std@@EBEABVtype_info@@XZ 10005d50 f i title_hook.cpp.obj
 0001:00004d60       ?apply_from_control@title@hooks@ext_client@@YAXXZ 10005d60 f   title_hook.cpp.obj
 0001:000054b0       ?apply_version_label_layout@title@hooks@ext_client@@YAXXZ 100064b0 f   title_hook.cpp.obj
 0001:00005760       ?apply_version_labels@title@hooks@ext_client@@YAXXZ 10006760 f   title_hook.cpp.obj
 0001:000057a0       ?captured_version_label_count@title@hooks@ext_client@@YAHXZ 100067a0 f   title_hook.cpp.obj
 0001:000057c0       ?control_panel@title@hooks@ext_client@@YAAAUtitle_t@settings@config@3@XZ 100067c0 f   title_hook.cpp.obj
 0001:00005b70       ?install@title@hooks@ext_client@@YA_NXZ 10006b70 f   title_hook.cpp.obj
 0001:000064b0       ?on_set_child_process@title@hooks@ext_client@@YAXHH@Z 100074b0 f   title_hook.cpp.obj
 0001:000066c0       ?tick@title@hooks@ext_client@@YAXXZ 100076c0 f   title_hook.cpp.obj
 0001:000067b0       ?uninstall@title@hooks@ext_client@@YAXXZ 100077b0 f   title_hook.cpp.obj
 0001:00006b80       ___local_stdio_scanf_options 10007b80 f i title_hook.cpp.obj
 0001:00006b90       _swscanf_s                 10007b90 f i title_hook.cpp.obj
 0001:00006bc0       ?apply_eu_frame@title_login_layout@title@hooks@ext_client@@QBE_NPAVcps_title@@PAVcgwnd@@@Z 10007bc0 f   title_login_layout.cpp.obj
 0001:00007170       ?load_from_game@title_login_layout@title@hooks@ext_client@@QAE_NPAVcps_title@@@Z 10008170 f   title_login_layout.cpp.obj
 0001:00007550       ?load_named_or_id@title_login_layout@title@hooks@ext_client@@AAE_NPBDHAAUwidget_rect@1234@@Z 10008550 f   title_login_layout.cpp.obj
 0001:00007840       ?_Copy@?$_Func_impl_no_alloc@V<lambda_8392ef37813845485c1600dec211f7dd>@@X$$V@std@@EBEPAV?$_Func_base@X$$V@2@PAX@Z 10008840 f i character_select_hook.cpp.obj
 0001:00007840       ?_Move@?$_Func_impl_no_alloc@V<lambda_8392ef37813845485c1600dec211f7dd>@@X$$V@std@@EAEPAV?$_Func_base@X$$V@2@PAX@Z 10008840 f i character_select_hook.cpp.obj
 0001:00007860       ?_Copy@?$_Func_impl_no_alloc@V<lambda_9e54353aa454f7d92a3812adb7bd9804>@@X$$V@std@@EBEPAV?$_Func_base@X$$V@2@PAX@Z 10008860 f i character_select_hook.cpp.obj
 0001:00007860       ?_Move@?$_Func_impl_no_alloc@V<lambda_9e54353aa454f7d92a3812adb7bd9804>@@X$$V@std@@EAEPAV?$_Func_base@X$$V@2@PAX@Z 10008860 f i character_select_hook.cpp.obj
 0001:00007880       ?_Copy@?$_Func_impl_no_alloc@V<lambda_a9ab3610afa722316d9e4be261787542>@@X$$V@std@@EBEPAV?$_Func_base@X$$V@2@PAX@Z 10008880 f i character_select_hook.cpp.obj
 0001:00007880       ?_Move@?$_Func_impl_no_alloc@V<lambda_a9ab3610afa722316d9e4be261787542>@@X$$V@std@@EAEPAV?$_Func_base@X$$V@2@PAX@Z 10008880 f i character_select_hook.cpp.obj
 0001:000078a0       ?_Copy@?$_Func_impl_no_alloc@V<lambda_d5387bcdc0c40a1de130e5b4a363145c>@@X$$V@std@@EBEPAV?$_Func_base@X$$V@2@PAX@Z 100088a0 f i character_select_hook.cpp.obj
 0001:000078a0       ?_Move@?$_Func_impl_no_alloc@V<lambda_d5387bcdc0c40a1de130e5b4a363145c>@@X$$V@std@@EAEPAV?$_Func_base@X$$V@2@PAX@Z 100088a0 f i character_select_hook.cpp.obj
 0001:000078c0       ?_Target_type@?$_Func_impl_no_alloc@V<lambda_8392ef37813845485c1600dec211f7dd>@@X$$V@std@@EBEABVtype_info@@XZ 100088c0 f i character_select_hook.cpp.obj
 0001:000078d0       ?_Target_type@?$_Func_impl_no_alloc@V<lambda_9e54353aa454f7d92a3812adb7bd9804>@@X$$V@std@@EBEABVtype_info@@XZ 100088d0 f i character_select_hook.cpp.obj
 0001:000078e0       ?_Target_type@?$_Func_impl_no_alloc@V<lambda_a9ab3610afa722316d9e4be261787542>@@X$$V@std@@EBEABVtype_info@@XZ 100088e0 f i character_select_hook.cpp.obj
 0001:000078f0       ?_Target_type@?$_Func_impl_no_alloc@V<lambda_d5387bcdc0c40a1de130e5b4a363145c>@@X$$V@std@@EBEABVtype_info@@XZ 100088f0 f i character_select_hook.cpp.obj
 0001:000080c0       ?install@character_select@hooks@ext_client@@YA_NXZ 100090c0 f   character_select_hook.cpp.obj
 0001:00008570       ?uninstall@character_select@hooks@ext_client@@YAXXZ 10009570 f   character_select_hook.cpp.obj
 0001:00008880       _swprintf_s                10009880 f i character_select_hook.cpp.obj
 0001:000088b0       ??$_Allocate_at_least_helper@V?$allocator@E@std@@@std@@YAPAEAAV?$allocator@E@0@AAI@Z 100098b0 f i packet_hook.cpp.obj
 0001:00008900       ??$_Assign_counted_range@PBE@?$vector@EV?$allocator@E@std@@@std@@AAEXPBEI@Z 10009900 f i packet_hook.cpp.obj
 0001:00008a50       ??0?$lock_guard@Vmutex@std@@@std@@QAE@AAVmutex@1@@Z 10009a50 f i packet_hook.cpp.obj
 0001:00008a90       ??1?$basic_string@DU?$char_traits@D@std@@V?$allocator@D@2@@std@@QAE@XZ 10009a90 f i packet_hook.cpp.obj
 0001:00008a90       ?_Tidy_deallocate@?$basic_string@DU?$char_traits@D@std@@V?$allocator@D@2@@std@@AAEXXZ 10009a90 f i packet_hook.cpp.obj
 0001:00008af0       ??1?$lock_guard@Vmutex@std@@@std@@QAE@XZ 10009af0 f i packet_hook.cpp.obj
 0001:00008b00       ??4?$vector@EV?$allocator@E@std@@@std@@QAEAAV01@$$QAV01@@Z 10009b00 f i packet_hook.cpp.obj
 0001:00008b40       ?_Copy@?$_Func_impl_no_alloc@V<lambda_05397b0f5f50f30f14183dccbd5f6e17>@@X$$V@std@@EBEPAV?$_Func_base@X$$V@2@PAX@Z 10009b40 f i packet_hook.cpp.obj
 0001:00008b40       ?_Move@?$_Func_impl_no_alloc@V<lambda_05397b0f5f50f30f14183dccbd5f6e17>@@X$$V@std@@EAEPAV?$_Func_base@X$$V@2@PAX@Z 10009b40 f i packet_hook.cpp.obj
 0001:00008b60       ?_Copy@?$_Func_impl_no_alloc@V<lambda_079c22eb3c80a0513874cc5549a2b922>@@X$$V@std@@EBEPAV?$_Func_base@X$$V@2@PAX@Z 10009b60 f i packet_hook.cpp.obj
 0001:00008b60       ?_Move@?$_Func_impl_no_alloc@V<lambda_079c22eb3c80a0513874cc5549a2b922>@@X$$V@std@@EAEPAV?$_Func_base@X$$V@2@PAX@Z 10009b60 f i packet_hook.cpp.obj
 0001:00008b80       ?_Copy@?$_Func_impl_no_alloc@V<lambda_148d939d3f328850d25f1b60d13e1a30>@@X$$V@std@@EBEPAV?$_Func_base@X$$V@2@PAX@Z 10009b80 f i packet_hook.cpp.obj
 0001:00008b80       ?_Move@?$_Func_impl_no_alloc@V<lambda_148d939d3f328850d25f1b60d13e1a30>@@X$$V@std@@EAEPAV?$_Func_base@X$$V@2@PAX@Z 10009b80 f i packet_hook.cpp.obj
 0001:00008ba0       ?_Copy@?$_Func_impl_no_alloc@V<lambda_871a06b5f1626861ab912f565d990cd1>@@X$$V@std@@EBEPAV?$_Func_base@X$$V@2@PAX@Z 10009ba0 f i packet_hook.cpp.obj
 0001:00008ba0       ?_Move@?$_Func_impl_no_alloc@V<lambda_871a06b5f1626861ab912f565d990cd1>@@X$$V@std@@EAEPAV?$_Func_base@X$$V@2@PAX@Z 10009ba0 f i packet_hook.cpp.obj
 0001:00008bc0       ?_Copy@?$_Func_impl_no_alloc@V<lambda_d808f1789c8518bdbc5271d6edea4e84>@@X$$V@std@@EBEPAV?$_Func_base@X$$V@2@PAX@Z 10009bc0 f i packet_hook.cpp.obj
 0001:00008bc0       ?_Move@?$_Func_impl_no_alloc@V<lambda_d808f1789c8518bdbc5271d6edea4e84>@@X$$V@std@@EAEPAV?$_Func_base@X$$V@2@PAX@Z 10009bc0 f i packet_hook.cpp.obj
 0001:00008be0       ?_Deallocate_for_capacity@?$basic_string@DU?$char_traits@D@std@@V?$allocator@D@2@@std@@CAXAAV?$allocator@D@2@QADI@Z 10009be0 f i packet_hook.cpp.obj
 0001:00008c20       ?_Target_type@?$_Func_impl_no_alloc@V<lambda_05397b0f5f50f30f14183dccbd5f6e17>@@X$$V@std@@EBEABVtype_info@@XZ 10009c20 f i packet_hook.cpp.obj
 0001:00008c30       ?_Target_type@?$_Func_impl_no_alloc@V<lambda_079c22eb3c80a0513874cc5549a2b922>@@X$$V@std@@EBEABVtype_info@@XZ 10009c30 f i packet_hook.cpp.obj
 0001:00008c40       ?_Target_type@?$_Func_impl_no_alloc@V<lambda_148d939d3f328850d25f1b60d13e1a30>@@X$$V@std@@EBEABVtype_info@@XZ 10009c40 f i packet_hook.cpp.obj
 0001:00008c50       ?_Target_type@?$_Func_impl_no_alloc@V<lambda_871a06b5f1626861ab912f565d990cd1>@@X$$V@std@@EBEABVtype_info@@XZ 10009c50 f i packet_hook.cpp.obj
 0001:00008c60       ?_Target_type@?$_Func_impl_no_alloc@V<lambda_d808f1789c8518bdbc5271d6edea4e84>@@X$$V@std@@EBEABVtype_info@@XZ 10009c60 f i packet_hook.cpp.obj
 0001:00008df0       ?clear_overrides@packet@hooks@ext_client@@YAXXZ 10009df0 f   packet_hook.cpp.obj
 0001:00008f30       ?control_panel@packet@hooks@ext_client@@YAAAUpacket_t@settings@config@3@XZ 10009f30 f   packet_hook.cpp.obj
 0001:00009130       ?install@packet@hooks@ext_client@@YA_NXZ 1000a130 f   packet_hook.cpp.obj
 0001:000097b0       ?set_incoming_override@packet@hooks@ext_client@@YAXGPBEI_N@Z 1000a7b0 f   packet_hook.cpp.obj
 0001:00009890       ?set_outgoing_override@packet@hooks@ext_client@@YAXGPBEI_N@Z 1000a890 f   packet_hook.cpp.obj
 0001:00009ac0       ?uninstall@packet@hooks@ext_client@@YAXXZ 1000aac0 f   packet_hook.cpp.obj
 0001:00009ae0       ?_Copy@?$_Func_impl_no_alloc@V<lambda_567523d5fd7dcefcd0bcfc084fe47d8c>@@X$$V@std@@EBEPAV?$_Func_base@X$$V@2@PAX@Z 1000aae0 f i interface_hide_hook.cpp.obj
 0001:00009ae0       ?_Move@?$_Func_impl_no_alloc@V<lambda_567523d5fd7dcefcd0bcfc084fe47d8c>@@X$$V@std@@EAEPAV?$_Func_base@X$$V@2@PAX@Z 1000aae0 f i interface_hide_hook.cpp.obj
 0001:00009b00       ?_Copy@?$_Func_impl_no_alloc@V<lambda_a280fd544349889b841fe2b307d35585>@@X$$V@std@@EBEPAV?$_Func_base@X$$V@2@PAX@Z 1000ab00 f i interface_hide_hook.cpp.obj
 0001:00009b00       ?_Move@?$_Func_impl_no_alloc@V<lambda_a280fd544349889b841fe2b307d35585>@@X$$V@std@@EAEPAV?$_Func_base@X$$V@2@PAX@Z 1000ab00 f i interface_hide_hook.cpp.obj
 0001:00009b20       ?_Copy@?$_Func_impl_no_alloc@V<lambda_a62fe0be53d700e6aed8d3501e17d169>@@X$$V@std@@EBEPAV?$_Func_base@X$$V@2@PAX@Z 1000ab20 f i interface_hide_hook.cpp.obj
 0001:00009b20       ?_Move@?$_Func_impl_no_alloc@V<lambda_a62fe0be53d700e6aed8d3501e17d169>@@X$$V@std@@EAEPAV?$_Func_base@X$$V@2@PAX@Z 1000ab20 f i interface_hide_hook.cpp.obj
 0001:00009b40       ?_Target_type@?$_Func_impl_no_alloc@V<lambda_567523d5fd7dcefcd0bcfc084fe47d8c>@@X$$V@std@@EBEABVtype_info@@XZ 1000ab40 f i interface_hide_hook.cpp.obj
 0001:00009b50       ?_Target_type@?$_Func_impl_no_alloc@V<lambda_a280fd544349889b841fe2b307d35585>@@X$$V@std@@EBEABVtype_info@@XZ 1000ab50 f i interface_hide_hook.cpp.obj
 0001:00009b60       ?_Target_type@?$_Func_impl_no_alloc@V<lambda_a62fe0be53d700e6aed8d3501e17d169>@@X$$V@std@@EBEABVtype_info@@XZ 1000ab60 f i interface_hide_hook.cpp.obj
 0001:00009b70       ?apply_from_control@interface_hide@hooks@ext_client@@YAXXZ 1000ab70 f   interface_hide_hook.cpp.obj
 0001:00009d60       ?control_panel@interface_hide@hooks@ext_client@@YAAAUinterface_hide_t@settings@config@3@XZ 1000ad60 f   interface_hide_hook.cpp.obj
 0001:00009d70       ?install@interface_hide@hooks@ext_client@@YA_NXZ 1000ad70 f   interface_hide_hook.cpp.obj
 0001:0000a000       ?tick@interface_hide@hooks@ext_client@@YAXXZ 1000b000 f   interface_hide_hook.cpp.obj
 0001:0000a140       ?uninstall@interface_hide@hooks@ext_client@@YAXXZ 1000b140 f   interface_hide_hook.cpp.obj
 0001:0000a170       ??$_Allocate_for_capacity@$0A@@?$basic_string@_WU?$char_traits@_W@std@@V?$allocator@_W@2@@std@@CAPA_WAAV?$allocator@_W@1@AAI@Z 1000b170 f i welcome_msg_hook.cpp.obj
 0001:0000a1e0       ?_Copy@?$_Func_impl_no_alloc@V<lambda_c87f17a2cdfaa0e3acdd13ec8caf5dcf>@@X$$V@std@@EBEPAV?$_Func_base@X$$V@2@PAX@Z 1000b1e0 f i welcome_msg_hook.cpp.obj
 0001:0000a1e0       ?_Move@?$_Func_impl_no_alloc@V<lambda_c87f17a2cdfaa0e3acdd13ec8caf5dcf>@@X$$V@std@@EAEPAV?$_Func_base@X$$V@2@PAX@Z 1000b1e0 f i welcome_msg_hook.cpp.obj
 0001:0000a200       ?_Target_type@?$_Func_impl_no_alloc@V<lambda_c87f17a2cdfaa0e3acdd13ec8caf5dcf>@@X$$V@std@@EBEABVtype_info@@XZ 1000b200 f i welcome_msg_hook.cpp.obj
 0001:0000a210       ?_Xlen_string@std@@YAXXZ   1000b210 f i welcome_msg_hook.cpp.obj
 0001:0000a220       ?install@welcome_msg@hooks@ext_client@@YA_NXZ 1000b220 f   welcome_msg_hook.cpp.obj
 0001:0000a670       ?uninstall@welcome_msg@hooks@ext_client@@YAXXZ 1000b670 f   welcome_msg_hook.cpp.obj
 0001:0000a680       ?_Copy@?$_Func_impl_no_alloc@V<lambda_cf0eba39f8e1eaab3d7f90723a1611a1>@@X$$V@std@@EBEPAV?$_Func_base@X$$V@2@PAX@Z 1000b680 f i sight_range_hook.cpp.obj
 0001:0000a680       ?_Move@?$_Func_impl_no_alloc@V<lambda_cf0eba39f8e1eaab3d7f90723a1611a1>@@X$$V@std@@EAEPAV?$_Func_base@X$$V@2@PAX@Z 1000b680 f i sight_range_hook.cpp.obj
 0001:0000a6a0       ?_Target_type@?$_Func_impl_no_alloc@V<lambda_cf0eba39f8e1eaab3d7f90723a1611a1>@@X$$V@std@@EBEABVtype_info@@XZ 1000b6a0 f i sight_range_hook.cpp.obj
 0001:0000a6b0       ?apply_settings@sight_range@hooks@ext_client@@YAXXZ 1000b6b0 f   sight_range_hook.cpp.obj
 0001:0000a7c0       ?install@sight_range@hooks@ext_client@@YA_NXZ 1000b7c0 f   sight_range_hook.cpp.obj
 0001:0000aa70       ?uninstall@sight_range@hooks@ext_client@@YAXXZ 1000ba70 f   sight_range_hook.cpp.obj
 0001:0000aa80       ?_Copy@?$_Func_impl_no_alloc@V<lambda_2361990076fc079cb21c0372f92e4945>@@X$$V@std@@EBEPAV?$_Func_base@X$$V@2@PAX@Z 1000ba80 f i intro_hook.cpp.obj
 0001:0000aa80       ?_Move@?$_Func_impl_no_alloc@V<lambda_2361990076fc079cb21c0372f92e4945>@@X$$V@std@@EAEPAV?$_Func_base@X$$V@2@PAX@Z 1000ba80 f i intro_hook.cpp.obj
 0001:0000aaa0       ?_Target_type@?$_Func_impl_no_alloc@V<lambda_2361990076fc079cb21c0372f92e4945>@@X$$V@std@@EBEABVtype_info@@XZ 1000baa0 f i intro_hook.cpp.obj
 0001:0000aab0       ?install@intro@hooks@ext_client@@YA_NXZ 1000bab0 f   intro_hook.cpp.obj
 0001:0000acd0       ?uninstall@intro@hooks@ext_client@@YAXXZ 1000bcd0 f   intro_hook.cpp.obj
 0001:0000acf0       ?_Copy@?$_Func_impl_no_alloc@V<lambda_00dbecd7ce64df782535c75b83b36d9b>@@X$$V@std@@EBEPAV?$_Func_base@X$$V@2@PAX@Z 1000bcf0 f i quest_hook.cpp.obj
 0001:0000acf0       ?_Move@?$_Func_impl_no_alloc@V<lambda_00dbecd7ce64df782535c75b83b36d9b>@@X$$V@std@@EAEPAV?$_Func_base@X$$V@2@PAX@Z 1000bcf0 f i quest_hook.cpp.obj
 0001:0000ad10       ?_Target_type@?$_Func_impl_no_alloc@V<lambda_00dbecd7ce64df782535c75b83b36d9b>@@X$$V@std@@EBEABVtype_info@@XZ 1000bd10 f i quest_hook.cpp.obj
 0001:0000ad50       ?install@quest@hooks@ext_client@@YA_NXZ 1000bd50 f   quest_hook.cpp.obj
 0001:0000aed0       ?uninstall@quest@hooks@ext_client@@YAXXZ 1000bed0 f   quest_hook.cpp.obj
 0001:0000aee0       ?_Copy@?$_Func_impl_no_alloc@V<lambda_102cef23f42d3c4b8824b1393e54502b>@@X$$V@std@@EBEPAV?$_Func_base@X$$V@2@PAX@Z 1000bee0 f i assert_hook.cpp.obj
 0001:0000aee0       ?_Move@?$_Func_impl_no_alloc@V<lambda_102cef23f42d3c4b8824b1393e54502b>@@X$$V@std@@EAEPAV?$_Func_base@X$$V@2@PAX@Z 1000bee0 f i assert_hook.cpp.obj
 0001:0000af00       ?_Target_type@?$_Func_impl_no_alloc@V<lambda_102cef23f42d3c4b8824b1393e54502b>@@X$$V@std@@EBEABVtype_info@@XZ 1000bf00 f i assert_hook.cpp.obj
 0001:0000af70       ?install@assertion@hooks@ext_client@@YA_NXZ 1000bf70 f   assert_hook.cpp.obj
 0001:0000b0f0       ?uninstall@assertion@hooks@ext_client@@YAXXZ 1000c0f0 f   assert_hook.cpp.obj
 0001:0000b100       ??$_Allocate_at_least_helper@V?$allocator@Uentry@net_manager@ext_client@@@std@@@std@@YAPAUentry@net_manager@ext_client@@AAV?$allocator@Uentry@net_manager@ext_client@@@0@AAI@Z 1000c100 f i net_manager.cpp.obj
 0001:0000b170       ??$_Allocate_for_capacity@$0A@@?$basic_string@DU?$char_traits@D@std@@V?$allocator@D@2@@std@@CAPADAAV?$allocator@D@1@AAI@Z 1000c170 f i net_manager.cpp.obj
 0001:0000b1d0       ??$_Construct@$00PBD@?$basic_string@DU?$char_traits@D@std@@V?$allocator@D@2@@std@@AAEXQBDI@Z 1000c1d0 f i net_manager.cpp.obj
 0001:0000b260       ??$_Construct_n@ABQAUentry@net_manager@ext_client@@ABQAU123@@?$vector@Uentry@net_manager@ext_client@@V?$allocator@Uentry@net_manager@ext_client@@@std@@@std@@AAEXIABQAUentry@net_manager@ext_client@@0@Z 1000c260 f i net_manager.cpp.obj
 0001:0000b460       ??$_Emplace_one_at_back@E@?$vector@EV?$allocator@E@std@@@std@@AAEAAE$$QAE@Z 1000c460 f i net_manager.cpp.obj
 0001:0000b590       ??$_Emplace_reallocate@Uentry@net_manager@ext_client@@@?$vector@Uentry@net_manager@ext_client@@V?$allocator@Uentry@net_manager@ext_client@@@std@@@std@@AAEPAUentry@net_manager@ext_client@@QAU234@$$QAU234@@Z 1000c590 f i net_manager.cpp.obj
 0001:0000b8f0       ??$_Uninitialized_move@PAUentry@net_manager@ext_client@@V?$allocator@Uentry@net_manager@ext_client@@@std@@@std@@YAPAUentry@net_manager@ext_client@@QAU123@0PAU123@AAV?$allocator@Uentry@net_manager@ext_client@@@0@@Z 1000c8f0 f i net_manager.cpp.obj
 0001:0000b9c0       ??$construct@Uentry@net_manager@ext_client@@U123@@?$_Default_allocator_traits@V?$allocator@Uentry@net_manager@ext_client@@@std@@@std@@SAXAAV?$allocator@Uentry@net_manager@ext_client@@@1@QAUentry@net_manager@ext_client@@$$QAU345@@Z 1000c9c0 f i net_manager.cpp.obj
 0001:0000ba30       ??0?$basic_string@DU?$char_traits@D@std@@V?$allocator@D@2@@std@@QAE@$$QAV01@@Z 1000ca30 f i net_manager.cpp.obj
 0001:0000ba80       ??0?$basic_string@DU?$char_traits@D@std@@V?$allocator@D@2@@std@@QAE@QBD@Z 1000ca80 f i net_manager.cpp.obj
 0001:0000bb40       ??1?$_Tidy_guard@V?$vector@Uentry@net_manager@ext_client@@V?$allocator@Uentry@net_manager@ext_client@@@std@@@std@@@std@@QAE@XZ 1000cb40 f i net_manager.cpp.obj
 0001:0000bb50       ??1?$_Uninitialized_backout_al@V?$allocator@Uentry@net_manager@ext_client@@@std@@@std@@QAE@XZ 1000cb50 f i net_manager.cpp.obj
 0001:0000bb80       ??1?$vector@Uentry@net_manager@ext_client@@V?$allocator@Uentry@net_manager@ext_client@@@std@@@std@@QAE@XZ 1000cb80 f i net_manager.cpp.obj
 0001:0000bc10       ??1entry@net_manager@ext_client@@QAE@XZ 1000cc10 f i net_manager.cpp.obj
 0001:0000bcb0       ?_Tidy@?$vector@Uentry@net_manager@ext_client@@V?$allocator@Uentry@net_manager@ext_client@@@std@@@std@@AAEXXZ 1000ccb0 f i net_manager.cpp.obj
 0001:0000beb0       ?append@?$basic_string@DU?$char_traits@D@std@@V?$allocator@D@2@@std@@QAEAAV12@QBDI@Z 1000ceb0 f i net_manager.cpp.obj
 0001:0000c1d0       ?clear_log@net_manager@ext_client@@YAXXZ 1000d1d0 f   net_manager.cpp.obj
 0001:0000c250       ?control_panel@net_manager@ext_client@@YAAAUnet_manager_t@settings@config@2@XZ 1000d250 f   net_manager.cpp.obj
 0001:0000c260       ?dispatch_incoming@net_manager@ext_client@@YA?AW4handler_result@12@PAVcmsg_stream_buffer@@@Z 1000d260 f   net_manager.cpp.obj
 0001:0000c330       ?dispatch_outgoing@net_manager@ext_client@@YA?AW4handler_result@12@PAVcmsg_stream_buffer@@@Z 1000d330 f   net_manager.cpp.obj
 0001:0000c400       ?format_hex@net_manager@ext_client@@YA?AV?$basic_string@DU?$char_traits@D@std@@V?$allocator@D@2@@std@@ABV?$vector@EV?$allocator@E@std@@@4@I@Z 1000d400 f   net_manager.cpp.obj
 0001:0000c730       ?format_layer@net_manager@ext_client@@YAPBDW4packet_layer@12@@Z 1000d730 f   net_manager.cpp.obj
 0001:0000c750       ?format_opcode@net_manager@ext_client@@YA?AV?$basic_string@DU?$char_traits@D@std@@V?$allocator@D@2@@std@@G@Z 1000d750 f   net_manager.cpp.obj
 0001:0000c840       ?opcode_in_list@net_manager@ext_client@@YA_NGPBD@Z 1000d840 f   net_manager.cpp.obj
 0001:0000c8d0       ?parse_hex@net_manager@ext_client@@YA_NPBDAAV?$vector@EV?$allocator@E@std@@@std@@@Z 1000d8d0 f   net_manager.cpp.obj
 0001:0000c9e0       ?push_back@?$basic_string@DU?$char_traits@D@std@@V?$allocator@D@2@@std@@QAEXD@Z 1000d9e0 f i net_manager.cpp.obj
 0001:0000ce20       ?record_cmsg_incoming@net_manager@ext_client@@YAXPAVcmsg@@_N1G@Z 1000de20 f   net_manager.cpp.obj
 0001:0000ce80       ?record_cmsg_outgoing@net_manager@ext_client@@YAXPAVcmsg@@_N1G@Z 1000de80 f   net_manager.cpp.obj
 0001:0000cee0       ?record_incoming@net_manager@ext_client@@YAXPAVcmsg_stream_buffer@@_N1G@Z 1000dee0 f   net_manager.cpp.obj
 0001:0000cf30       ?record_outgoing@net_manager@ext_client@@YAXPAVcmsg_stream_buffer@@_N1G@Z 1000df30 f   net_manager.cpp.obj
 0001:0000cf80       ?register_handlers@net_manager@ext_client@@YAXXZ 1000df80 f   net_manager.cpp.obj
 0001:0000d040       ?reserve@?$basic_string@DU?$char_traits@D@std@@V?$allocator@D@2@@std@@QAEXI@Z 1000e040 f i net_manager.cpp.obj
 0001:0000d180       ?send@net_manager@ext_client@@YAXGABV?$vector@EV?$allocator@E@std@@@std@@@Z 1000e180 f   net_manager.cpp.obj
 0001:0000d210       ?should_block_opcode@net_manager@ext_client@@YA_NG@Z 1000e210 f   net_manager.cpp.obj
 0001:0000d2b0       ?shutdown@net_manager@ext_client@@YAXXZ 1000e2b0 f   net_manager.cpp.obj
 0001:0000d3b0       ?snapshot@net_manager@ext_client@@YA?AV?$vector@Uentry@net_manager@ext_client@@V?$allocator@Uentry@net_manager@ext_client@@@std@@@std@@XZ 1000e3b0 f   net_manager.cpp.obj
 0001:0000d480       _fprintf                   1000e480 f i net_manager.cpp.obj
 0001:0000d4b0       ??0net_msg@net_manager@ext_client@@QAE@G@Z 1000e4b0 f   net_msg.cpp.obj
 0001:0000d4f0       ??1net_msg@net_manager@ext_client@@QAE@XZ 1000e4f0 f   net_msg.cpp.obj
 0001:0000d540       ?send@net_msg@net_manager@ext_client@@QAEXXZ 1000e540 f   net_msg.cpp.obj
 0001:0000d5b0       ?write_bytes@net_msg@net_manager@ext_client@@QAEAAV123@PBXI@Z 1000e5b0 f   net_msg.cpp.obj
 0001:0000d5f0       ?construct@cmsg_stream_buffer@@SAPAV1@PAV1@G@Z 1000e5f0 f   cmsg_stream_buffer.cpp.obj
 0001:0000d610       ?destroy@cmsg_stream_buffer@@QAEXXZ 1000e610 f   cmsg_stream_buffer.cpp.obj
 0001:0000d620       ?extract_payload@cmsg_stream_buffer@@QBE?AV?$vector@EV?$allocator@E@std@@@std@@XZ 1000e620 f   cmsg_stream_buffer.cpp.obj
 0001:0000d770       ?opcode@cmsg_stream_buffer@@QBEGXZ 1000e770 f   cmsg_stream_buffer.cpp.obj
 0001:0000d780       ?payload_size@cmsg_stream_buffer@@QBEIXZ 1000e780 f   cmsg_stream_buffer.cpp.obj
 0001:0000d790       ?replace_payload@cmsg_stream_buffer@@QAE_NPBEI@Z 1000e790 f   cmsg_stream_buffer.cpp.obj
 0001:0000d7f0       ?resize@?$basic_string@DU?$char_traits@D@std@@V?$allocator@D@2@@std@@QAEXID@Z 1000e7f0 f i cmsg_stream_buffer.cpp.obj
 0001:0000d960       ?toggle_after@cmsg_stream_buffer@@QAEXXZ 1000e960 f   cmsg_stream_buffer.cpp.obj
 0001:0000d980       ?toggle_before@cmsg_stream_buffer@@QAEXXZ 1000e980 f   cmsg_stream_buffer.cpp.obj
 0001:0000d9a0       ?write_bytes@cmsg_stream_buffer@@QAEXPBXI@Z 1000e9a0 f   cmsg_stream_buffer.cpp.obj
 0001:0000d9c0       ?body_size@cmsg@@QBEIXZ    1000e9c0 f   cmsg.cpp.obj
 0001:0000d9e0       ?extract_payload@cmsg@@QBE?AV?$vector@EV?$allocator@E@std@@@std@@XZ 1000e9e0 f   cmsg.cpp.obj
 0001:0000dae0       ?header_opcode@cmsg@@QBEGXZ 1000eae0 f   cmsg.cpp.obj
 0001:0000daf0       ?is_encrypted@cmsg@@QBE_NXZ 1000eaf0 f   cmsg.cpp.obj
 0001:0000db10       ?opcode@cmsg@@QBEGXZ       1000eb10 f   cmsg.cpp.obj
 0001:0000db30       ?send_from_buffer@cmsg@@SAXPAVcmsg_stream_buffer@@@Z 1000eb30 f   cmsg.cpp.obj
 0001:0000db50       ??$?0PAD$0A@@?$basic_string@DU?$char_traits@D@std@@V?$allocator@D@2@@std@@QAE@PAD0ABV?$allocator@D@1@@Z 1000eb50 f i packet_inspector.cpp.obj
 0001:0000dc10       ??$_Allocate_at_least_helper@V?$allocator@Ures_map_entry@cif_manager@ext_client@@@std@@@std@@YAPAUres_map_entry@cif_manager@ext_client@@AAV?$allocator@Ures_map_entry@cif_manager@ext_client@@@0@AAI@Z 1000ec10 f   cif_manager.cpp.obj
 0001:0000e660       ??$_UIntegral_to_buff@DI@std@@YAPADPADI@Z 1000f660 f i packet_inspector.cpp.obj
 0001:0000e6c0       ??1?$vector@Ures_map_entry@cif_manager@ext_client@@V?$allocator@Ures_map_entry@cif_manager@ext_client@@@std@@@std@@QAE@XZ 1000f6c0 f   widget_inspector.cpp.obj
 0001:0000eb40       ?draw@packet_inspector@menu@ext_client@@YAXXZ 1000fb40 f   packet_inspector.cpp.obj
 0001:00010030       _sscanf                    10011030 f i packet_inspector.cpp.obj
 0001:00010060       ?log_init@utils@ext_client@@YAXXZ 10011060 f   log.cpp.obj
 0001:00010120       ?log_msg@utils@ext_client@@YAXPBDZZ 10011120 f   log.cpp.obj
 0001:000101d0       _printf                    100111d0 f i log.cpp.obj
 0001:00010200       ??$?6U?$char_traits@D@std@@@std@@YAAAV?$basic_ostream@DU?$char_traits@D@std@@@0@AAV10@PBD@Z 10011200 f i client_config.cpp.obj
 0001:000104c0       ??$_Fput_v3@$0A@@?$num_put@DV?$ostreambuf_iterator@DU?$char_traits@D@std@@@std@@@std@@ABE?AV?$ostreambuf_iterator@DU?$char_traits@D@std@@@1@V21@AAVios_base@1@DPBDI_N@Z 100114c0 f i client_config.cpp.obj
 0001:00010a30       ??$_Fputc@D@std@@YA_NDPAU_iobuf@@@Z 10011a30 f i client_config.cpp.obj
 0001:00010a50       ??$getline@DU?$char_traits@D@std@@V?$allocator@D@2@@std@@YAAAV?$basic_istream@DU?$char_traits@D@std@@@0@$$QAV10@AAV?$basic_string@DU?$char_traits@D@std@@V?$allocator@D@2@@0@D@Z 10011a50 f i client_config.cpp.obj
 0001:00010c70       ??$use_facet@V?$codecvt@DDU_Mbstatet@@@std@@@std@@YAABV?$codecvt@DDU_Mbstatet@@@0@ABVlocale@0@@Z 10011c70 f i client_config.cpp.obj
 0001:00010de0       ??$use_facet@V?$ctype@D@std@@@std@@YAABV?$ctype@D@0@ABVlocale@0@@Z 10011de0 f i client_config.cpp.obj
 0001:00010f70       ??$use_facet@V?$num_put@DV?$ostreambuf_iterator@DU?$char_traits@D@std@@@std@@@std@@@std@@YAABV?$num_put@DV?$ostreambuf_iterator@DU?$char_traits@D@std@@@std@@@0@ABVlocale@0@@Z 10011f70 f i client_config.cpp.obj
 0001:000110e0       ??$use_facet@V?$numpunct@D@std@@@std@@YAABV?$numpunct@D@0@ABVlocale@0@@Z 100120e0 f i client_config.cpp.obj
 0001:00011310       ??0?$basic_filebuf@DU?$char_traits@D@std@@@std@@QAE@XZ 10012310 f i client_config.cpp.obj
 0001:00011460       ??0?$basic_ifstream@DU?$char_traits@D@std@@@std@@QAE@PBDHH@Z 10012460 f i client_config.cpp.obj
 0001:000115b0       ??0?$basic_ios@DU?$char_traits@D@std@@@std@@IAE@XZ 100125b0 f i client_config.cpp.obj
 0001:00011620       ??0?$basic_string@DU?$char_traits@D@std@@V?$allocator@D@2@@std@@QAE@ABV01@@Z 10012620 f i client_config.cpp.obj
 0001:000116d0       ??0?$basic_string@DU?$char_traits@D@std@@V?$allocator@D@2@@std@@QAE@ID@Z 100126d0 f i client_config.cpp.obj
 0001:00011780       ??0_Locinfo@std@@QAE@PBD@Z 10012780 f i client_config.cpp.obj
 0001:00011830       ??0_System_error@std@@IAE@Verror_code@1@ABV?$basic_string@DU?$char_traits@D@std@@V?$allocator@D@2@@1@@Z 10012830 f i client_config.cpp.obj
 0001:00011a70       ??0_System_error@std@@QAE@ABV01@@Z 10012a70 f i client_config.cpp.obj
 0001:00011ab0       ??0exception@std@@QAE@QBD@Z 10012ab0 f i client_config.cpp.obj
 0001:00011af0       ??0failure@ios_base@std@@QAE@ABV012@@Z 10012af0 f i client_config.cpp.obj
 0001:00011b40       ??0failure@ios_base@std@@QAE@PBDABVerror_code@2@@Z 10012b40 f i client_config.cpp.obj
 0001:00011c30       ??0runtime_error@std@@QAE@ABV01@@Z 10012c30 f i client_config.cpp.obj
 0001:00011c60       ??0sentry@?$basic_ostream@DU?$char_traits@D@std@@@std@@QAE@AAV12@@Z 10012c60 f i client_config.cpp.obj
 0001:00011d00       ??0settings@config@ext_client@@QAE@XZ 10012d00 f i client_config.cpp.obj
 0001:00012030       ??0system_error@std@@QAE@ABV01@@Z 10013030 f i client_config.cpp.obj
 0001:00012080       ??1?$_Tidy_guard@V?$numpunct@D@std@@@std@@QAE@XZ 10013080 f i client_config.cpp.obj
 0001:000120b0       ??1?$_Yarn@D@std@@QAE@XZ   100130b0 f i client_config.cpp.obj
 0001:000120b0       ??1?$_Yarn@_W@std@@QAE@XZ  100130b0 f i client_config.cpp.obj
 0001:000120b0       ?_Tidy@?$_Yarn@D@std@@AAEXXZ 100130b0 f i client_config.cpp.obj
 0001:000120d0       ??1?$basic_filebuf@DU?$char_traits@D@std@@@std@@UAE@XZ 100130d0 f i client_config.cpp.obj
 0001:00012220       ??1?$basic_ios@DU?$char_traits@D@std@@@std@@UAE@XZ 10013220 f i client_config.cpp.obj
 0001:00012270       ??1?$basic_istream@DU?$char_traits@D@std@@@std@@UAE@XZ 10013270 f i client_config.cpp.obj
 0001:00012290       ??1?$basic_ostream@DU?$char_traits@D@std@@@std@@UAE@XZ 10013290 f i client_config.cpp.obj
 0001:000122b0       ??1?$unique_ptr@V_Facet_base@std@@U?$default_delete@V_Facet_base@std@@@2@@std@@QAE@XZ 100132b0 f i client_config.cpp.obj
 0001:000122c0       ??1_Locinfo@std@@QAE@XZ    100132c0 f i client_config.cpp.obj
 0001:000123a0       ??1_Sentry_base@?$basic_istream@DU?$char_traits@D@std@@@std@@QAE@XZ 100133a0 f i client_config.cpp.obj
 0001:000123a0       ??1_Sentry_base@?$basic_ostream@DU?$char_traits@D@std@@@std@@QAE@XZ 100133a0 f i client_config.cpp.obj
 0001:000123f0       ??1facet@locale@std@@MAE@XZ 100133f0 f i client_config.cpp.obj
 0001:00012400       ??1locale@std@@QAE@XZ      10013400 f i client_config.cpp.obj
 0001:00012420       ??1sentry@?$basic_istream@DU?$char_traits@D@std@@@std@@QAE@XZ 10013420 f i client_config.cpp.obj
 0001:00012480       ??1sentry@?$basic_ostream@DU?$char_traits@D@std@@@std@@QAE@XZ 10013480 f i client_config.cpp.obj
 0001:000124f0       ??6?$basic_ostream@DU?$char_traits@D@std@@@std@@QAEAAV01@G@Z 100134f0 f i client_config.cpp.obj
 0001:000126c0       ??6?$basic_ostream@DU?$char_traits@D@std@@@std@@QAEAAV01@H@Z 100136c0 f i client_config.cpp.obj
 0001:00012890       ??6?$basic_ostream@DU?$char_traits@D@std@@@std@@QAEAAV01@I@Z 10013890 f i client_config.cpp.obj
 0001:00012a60       ??_D?$basic_ifstream@DU?$char_traits@D@std@@@std@@QAEXXZ 10013a60 f i client_config.cpp.obj
 0001:00012af0       ??_D?$basic_ofstream@DU?$char_traits@D@std@@@std@@QAEXXZ 10013af0 f i client_config.cpp.obj
 0001:00012b7f       ??_E?$basic_ifstream@DU?$char_traits@D@std@@@std@@$4PPPPPPPM@A@AEPAXI@Z 10013b7f f i client_config.cpp.obj
 0001:00012b87       ??_E?$basic_istream@DU?$char_traits@D@std@@@std@@$4PPPPPPPM@A@AEPAXI@Z 10013b87 f i client_config.cpp.obj
 0001:00012b8f       ??_E?$basic_ofstream@DU?$char_traits@D@std@@@std@@$4PPPPPPPM@A@AEPAXI@Z 10013b8f f i client_config.cpp.obj
 0001:00012b97       ??_E?$basic_ostream@DU?$char_traits@D@std@@@std@@$4PPPPPPPM@A@AEPAXI@Z 10013b97 f i client_config.cpp.obj
 0001:00012ba0       ??_E?$basic_filebuf@DU?$char_traits@D@std@@@std@@UAEPAXI@Z 10013ba0 f i client_config.cpp.obj
 0001:00012ba0       ??_G?$basic_filebuf@DU?$char_traits@D@std@@@std@@UAEPAXI@Z 10013ba0 f i client_config.cpp.obj
 0001:00012bc0       ??_E?$basic_ifstream@DU?$char_traits@D@std@@@std@@UAEPAXI@Z 10013bc0 f i client_config.cpp.obj
 0001:00012bc0       ??_G?$basic_ifstream@DU?$char_traits@D@std@@@std@@UAEPAXI@Z 10013bc0 f i client_config.cpp.obj
 0001:00012bf0       ??_E?$basic_ios@DU?$char_traits@D@std@@@std@@UAEPAXI@Z 10013bf0 f i client_config.cpp.obj
 0001:00012bf0       ??_G?$basic_ios@DU?$char_traits@D@std@@@std@@UAEPAXI@Z 10013bf0 f i client_config.cpp.obj
 0001:00012c60       ??_E?$basic_istream@DU?$char_traits@D@std@@@std@@UAEPAXI@Z 10013c60 f i client_config.cpp.obj
 0001:00012c60       ??_G?$basic_istream@DU?$char_traits@D@std@@@std@@UAEPAXI@Z 10013c60 f i client_config.cpp.obj
 0001:00012cf0       ??_E?$basic_ofstream@DU?$char_traits@D@std@@@std@@UAEPAXI@Z 10013cf0 f i client_config.cpp.obj
 0001:00012cf0       ??_G?$basic_ofstream@DU?$char_traits@D@std@@@std@@UAEPAXI@Z 10013cf0 f i client_config.cpp.obj
 0001:00012d20       ??_E?$basic_ostream@DU?$char_traits@D@std@@@std@@UAEPAXI@Z 10013d20 f i client_config.cpp.obj
 0001:00012d20       ??_G?$basic_ostream@DU?$char_traits@D@std@@@std@@UAEPAXI@Z 10013d20 f i client_config.cpp.obj
 0001:00012db0       ??_E?$basic_streambuf@DU?$char_traits@D@std@@@std@@UAEPAXI@Z 10013db0 f i client_config.cpp.obj
 0001:00012db0       ??_G?$basic_streambuf@DU?$char_traits@D@std@@@std@@UAEPAXI@Z 10013db0 f i client_config.cpp.obj
 0001:00012e00       ??_E?$codecvt@DDU_Mbstatet@@@std@@MAEPAXI@Z 10013e00 f i client_config.cpp.obj
 0001:00012e00       ??_E?$num_put@DV?$ostreambuf_iterator@DU?$char_traits@D@std@@@std@@@std@@MAEPAXI@Z 10013e00 f i client_config.cpp.obj
 0001:00012e00       ??_G?$codecvt@DDU_Mbstatet@@@std@@MAEPAXI@Z 10013e00 f i client_config.cpp.obj
 0001:00012e00       ??_G?$num_put@DV?$ostreambuf_iterator@DU?$char_traits@D@std@@@std@@@std@@MAEPAXI@Z 10013e00 f i client_config.cpp.obj
 0001:00012e30       ??_E?$ctype@D@std@@MAEPAXI@Z 10013e30 f i client_config.cpp.obj
 0001:00012e30       ??_G?$ctype@D@std@@MAEPAXI@Z 10013e30 f i client_config.cpp.obj
 0001:00012e80       ??_E?$numpunct@D@std@@MAEPAXI@Z 10013e80 f i client_config.cpp.obj
 0001:00012e80       ??_G?$numpunct@D@std@@MAEPAXI@Z 10013e80 f i client_config.cpp.obj
 0001:00012ed0       ??_E_Facet_base@std@@UAEPAXI@Z 10013ed0 f i client_config.cpp.obj
 0001:00012ed0       ??_G_Facet_base@std@@UAEPAXI@Z 10013ed0 f i client_config.cpp.obj
 0001:00012f00       ??_E_Iostream_error_category2@std@@UAEPAXI@Z 10013f00 f i client_config.cpp.obj
 0001:00012f00       ??_G_Iostream_error_category2@std@@UAEPAXI@Z 10013f00 f i client_config.cpp.obj
 0001:00012f20       ??_E_System_error@std@@UAEPAXI@Z 10013f20 f i client_config.cpp.obj
 0001:00012f20       ??_Efailure@ios_base@std@@UAEPAXI@Z 10013f20 f i client_config.cpp.obj
 0001:00012f20       ??_Esystem_error@std@@UAEPAXI@Z 10013f20 f i client_config.cpp.obj
 0001:00012f20       ??_G_System_error@std@@UAEPAXI@Z 10013f20 f i client_config.cpp.obj
 0001:00012f20       ??_Gfailure@ios_base@std@@UAEPAXI@Z 10013f20 f i client_config.cpp.obj
 0001:00012f20       ??_Gsystem_error@std@@UAEPAXI@Z 10013f20 f i client_config.cpp.obj
 0001:00012f50       ??_Eios_base@std@@UAEPAXI@Z 10013f50 f i client_config.cpp.obj
 0001:00012f50       ??_Gios_base@std@@UAEPAXI@Z 10013f50 f i client_config.cpp.obj
 0001:00012fc0       ?_Decref@facet@locale@std@@UAEPAV_Facet_base@3@XZ 10013fc0 f i client_config.cpp.obj
 0001:00012fe0       ?_Endwrite@?$basic_filebuf@DU?$char_traits@D@std@@@std@@IAE_NXZ 10013fe0 f i client_config.cpp.obj
 0001:000130c0       ?_Ffmt@?$num_put@DV?$ostreambuf_iterator@DU?$char_traits@D@std@@@std@@@std@@ABAPADPADDH@Z 100140c0 f i client_config.cpp.obj
 0001:00013190       ?_Incref@facet@locale@std@@UAEXXZ 10014190 f i client_config.cpp.obj
 0001:000131a0       ?_Init@?$basic_filebuf@DU?$char_traits@D@std@@@std@@IAEXPAU_iobuf@@W4_Initfl@12@@Z 100141a0 f i client_config.cpp.obj
 0001:00013280       ?_Init@?$basic_streambuf@DU?$char_traits@D@std@@@std@@IAEXXZ 10014280 f i client_config.cpp.obj
 0001:000132e0       ?_Initcvt@?$basic_filebuf@DU?$char_traits@D@std@@@std@@IAEXABV?$codecvt@DDU_Mbstatet@@@2@@Z 100142e0 f i client_config.cpp.obj
 0001:00013360       ?_Ipfx@?$basic_istream@DU?$char_traits@D@std@@@std@@QAE_N_N@Z 10014360 f i client_config.cpp.obj
 0001:000135c0       ?_Iput@?$num_put@DV?$ostreambuf_iterator@DU?$char_traits@D@std@@@std@@@std@@ABA?AV?$ostreambuf_iterator@DU?$char_traits@D@std@@@2@V32@AAVios_base@2@DPADI@Z 100145c0 f i client_config.cpp.obj
 0001:00013ab0       ?_Lock@?$basic_filebuf@DU?$char_traits@D@std@@@std@@UAEXXZ 10014ab0 f i client_config.cpp.obj
 0001:00013ac0       ?_Osfx@?$basic_ostream@DU?$char_traits@D@std@@@std@@QAEXXZ 10014ac0 f i client_config.cpp.obj
 0001:00013ba0       ?_Put@?$num_put@DV?$ostreambuf_iterator@DU?$char_traits@D@std@@@std@@@std@@ABA?AV?$ostreambuf_iterator@DU?$char_traits@D@std@@@2@V32@PBDI@Z 10014ba0 f i client_config.cpp.obj
 0001:00013c20       ?_Rep@?$num_put@DV?$ostreambuf_iterator@DU?$char_traits@D@std@@@std@@@std@@ABA?AV?$ostreambuf_iterator@DU?$char_traits@D@std@@@2@V32@DI@Z 10014c20 f i client_config.cpp.obj
 0001:00013c90       ?_Reset_back@?$basic_filebuf@DU?$char_traits@D@std@@@std@@AAEXXZ 10014c90 f i client_config.cpp.obj
 0001:00013cc0       ?_Unlock@?$basic_filebuf@DU?$char_traits@D@std@@@std@@UAEXXZ 10014cc0 f i client_config.cpp.obj
 0001:00013cd0       ?_Xran@?$_String_val@U?$_Simple_types@D@std@@@std@@SAXXZ 10014cd0 f i client_config.cpp.obj
 0001:00013ce0       ?_Xran@?$basic_string_view@DU?$char_traits@D@std@@@std@@CAXXZ 10014ce0 f i client_config.cpp.obj
 0001:00015de0       ?assign@?$basic_string@DU?$char_traits@D@std@@V?$allocator@D@2@@std@@QAEAAV12@$$QAV12@@Z 10016de0 f i client_config.cpp.obj
 0001:00015e30       ?clear@ios_base@std@@QAEXH@Z 10016e30 f i client_config.cpp.obj
 0001:00015e90       ?data@config@ext_client@@YAAAUsettings@12@XZ 10016e90 f   client_config.cpp.obj
 0001:00015ea0       ?default_error_condition@error_category@std@@UBE?AVerror_condition@2@H@Z 10016ea0 f i client_config.cpp.obj
 0001:00015eb0       ?do_always_noconv@?$codecvt@DDU_Mbstatet@@@std@@MBE_NXZ 10016eb0 f i client_config.cpp.obj
 0001:00015eb0       ___acrt_uninitialize_command_line 10016eb0 f i libucrt:argv_data.obj
 0001:00015ec0       ?do_decimal_point@?$numpunct@D@std@@MBEDXZ 10016ec0 f i client_config.cpp.obj
 0001:00015ed0       ?do_encoding@codecvt_base@std@@MBEHXZ 10016ed0 f i client_config.cpp.obj
 0001:00015ed0       ?do_max_length@codecvt_base@std@@MBEHXZ 10016ed0 f i client_config.cpp.obj
 0001:00015ee0       ?do_falsename@?$numpunct@D@std@@MBE?AV?$basic_string@DU?$char_traits@D@std@@V?$allocator@D@2@@2@XZ 10016ee0 f i client_config.cpp.obj
 0001:00015f20       ?do_grouping@?$numpunct@D@std@@MBE?AV?$basic_string@DU?$char_traits@D@std@@V?$allocator@D@2@@2@XZ 10016f20 f i client_config.cpp.obj
 0001:00015f60       ?do_in@?$codecvt@DDU_Mbstatet@@@std@@MBEHAAU_Mbstatet@@PBD1AAPBDPAD3AAPAD@Z 10016f60 f i client_config.cpp.obj
 0001:00015f60       ?do_out@?$codecvt@DDU_Mbstatet@@@std@@MBEHAAU_Mbstatet@@PBD1AAPBDPAD3AAPAD@Z 10016f60 f i client_config.cpp.obj
 0001:00015f80       ?do_length@?$codecvt@DDU_Mbstatet@@@std@@MBEHAAU_Mbstatet@@PBD1I@Z 10016f80 f i client_config.cpp.obj
 0001:00015fa0       ?do_narrow@?$ctype@D@std@@MBEDDD@Z 10016fa0 f i client_config.cpp.obj
 0001:00015fb0       ?do_narrow@?$ctype@D@std@@MBEPBDPBD0DPAD@Z 10016fb0 f i client_config.cpp.obj
 0001:00015fd0       ?do_put@?$num_put@DV?$ostreambuf_iterator@DU?$char_traits@D@std@@@std@@@std@@MBE?AV?$ostreambuf_iterator@DU?$char_traits@D@std@@@2@V32@AAVios_base@2@DJ@Z 10016fd0 f i client_config.cpp.obj
 0001:000160a0       ?do_put@?$num_put@DV?$ostreambuf_iterator@DU?$char_traits@D@std@@@std@@@std@@MBE?AV?$ostreambuf_iterator@DU?$char_traits@D@std@@@2@V32@AAVios_base@2@DK@Z 100170a0 f i client_config.cpp.obj
 0001:00016170       ?do_put@?$num_put@DV?$ostreambuf_iterator@DU?$char_traits@D@std@@@std@@@std@@MBE?AV?$ostreambuf_iterator@DU?$char_traits@D@std@@@2@V32@AAVios_base@2@DN@Z 10017170 f i client_config.cpp.obj
 0001:00016350       ?do_put@?$num_put@DV?$ostreambuf_iterator@DU?$char_traits@D@std@@@std@@@std@@MBE?AV?$ostreambuf_iterator@DU?$char_traits@D@std@@@2@V32@AAVios_base@2@DO@Z 10017350 f i client_config.cpp.obj
 0001:00016530       ?do_put@?$num_put@DV?$ostreambuf_iterator@DU?$char_traits@D@std@@@std@@@std@@MBE?AV?$ostreambuf_iterator@DU?$char_traits@D@std@@@2@V32@AAVios_base@2@DPBX@Z 10017530 f i client_config.cpp.obj
 0001:000165a0       ?do_put@?$num_put@DV?$ostreambuf_iterator@DU?$char_traits@D@std@@@std@@@std@@MBE?AV?$ostreambuf_iterator@DU?$char_traits@D@std@@@2@V32@AAVios_base@2@D_J@Z 100175a0 f i client_config.cpp.obj
 0001:00016680       ?do_put@?$num_put@DV?$ostreambuf_iterator@DU?$char_traits@D@std@@@std@@@std@@MBE?AV?$ostreambuf_iterator@DU?$char_traits@D@std@@@2@V32@AAVios_base@2@D_K@Z 10017680 f i client_config.cpp.obj
 0001:00016760       ?do_put@?$num_put@DV?$ostreambuf_iterator@DU?$char_traits@D@std@@@std@@@std@@MBE?AV?$ostreambuf_iterator@DU?$char_traits@D@std@@@2@V32@AAVios_base@2@D_N@Z 10017760 f i client_config.cpp.obj
 0001:00016990       ?do_thousands_sep@?$numpunct@D@std@@MBEDXZ 10017990 f i client_config.cpp.obj
 0001:000169a0       ?do_tolower@?$ctype@D@std@@MBEDD@Z 100179a0 f i client_config.cpp.obj
 0001:000169c0       ?do_tolower@?$ctype@D@std@@MBEPBDPADPBD@Z 100179c0 f i client_config.cpp.obj
 0001:000169f0       ?do_toupper@?$ctype@D@std@@MBEDD@Z 100179f0 f i client_config.cpp.obj
 0001:00016a10       ?do_toupper@?$ctype@D@std@@MBEPBDPADPBD@Z 10017a10 f i client_config.cpp.obj
 0001:00016a40       ?do_truename@?$numpunct@D@std@@MBE?AV?$basic_string@DU?$char_traits@D@std@@V?$allocator@D@2@@2@XZ 10017a40 f i client_config.cpp.obj
 0001:00016a80       ?do_unshift@?$codecvt@DDU_Mbstatet@@@std@@MBEHAAU_Mbstatet@@PAD1AAPAD@Z 10017a80 f i client_config.cpp.obj
 0001:00016aa0       ?do_widen@?$ctype@D@std@@MBEDD@Z 10017aa0 f i client_config.cpp.obj
 0001:00016ab0       ?do_widen@?$ctype@D@std@@MBEPBDPBD0PAD@Z 10017ab0 f i client_config.cpp.obj
 0001:00016b90       ?equivalent@error_category@std@@UBE_NABVerror_code@2@H@Z 10017b90 f i client_config.cpp.obj
 0001:00016bc0       ?equivalent@error_category@std@@UBE_NHABVerror_condition@2@@Z 10017bc0 f i client_config.cpp.obj
 0001:00016c00       ?flush@?$basic_ostream@DU?$char_traits@D@std@@@std@@QAEAAV12@XZ 10017c00 f i client_config.cpp.obj
 0001:00016d70       ?imbue@?$basic_filebuf@DU?$char_traits@D@std@@@std@@MAEXABVlocale@2@@Z 10017d70 f i client_config.cpp.obj
 0001:00016d90       ?imbue@?$basic_streambuf@DU?$char_traits@D@std@@@std@@MAEXABVlocale@2@@Z 10017d90 f i client_config.cpp.obj
 0001:00016da0       ?init@?$basic_ios@DU?$char_traits@D@std@@@std@@IAEXPAV?$basic_streambuf@DU?$char_traits@D@std@@@2@_N@Z 10017da0 f i client_config.cpp.obj
 0001:00016f20       ?load@config@ext_client@@YA_NXZ 10017f20 f   client_config.cpp.obj
 0001:00017580       ?make_error_code@std@@YA?AVerror_code@1@W4io_errc@1@@Z 10018580 f i client_config.cpp.obj
 0001:000175a0       ?mark_dirty@config@ext_client@@YAXXZ 100185a0 f   client_config.cpp.obj
 0001:000175c0       ?message@_Iostream_error_category2@std@@UBE?AV?$basic_string@DU?$char_traits@D@std@@V?$allocator@D@2@@2@H@Z 100185c0 f i client_config.cpp.obj
 0001:00017690       ?name@_Iostream_error_category2@std@@UBEPBDXZ 10018690 f i client_config.cpp.obj
 0001:000176a0       ?open@?$basic_filebuf@DU?$char_traits@D@std@@@std@@QAEPAV12@PBDHH@Z 100186a0 f i client_config.cpp.obj
 0001:00017760       ?overflow@?$basic_filebuf@DU?$char_traits@D@std@@@std@@MAEHH@Z 10018760 f i client_config.cpp.obj
 0001:000178e0       ?overflow@?$basic_streambuf@DU?$char_traits@D@std@@@std@@MAEHH@Z 100188e0 f i client_config.cpp.obj
 0001:000178e0       ?pbackfail@?$basic_streambuf@DU?$char_traits@D@std@@@std@@MAEHH@Z 100188e0 f i client_config.cpp.obj
 0001:000179d0       ?path@config@ext_client@@YAPBDXZ 100189d0 f   client_config.cpp.obj
 0001:000179e0       ?pbackfail@?$basic_filebuf@DU?$char_traits@D@std@@@std@@MAEHH@Z 100189e0 f i client_config.cpp.obj
 0001:00017a90       ?save@config@ext_client@@YA_NXZ 10018a90 f   client_config.cpp.obj
 0001:000191f0       ?seekoff@?$basic_filebuf@DU?$char_traits@D@std@@@std@@MAE?AV?$fpos@U_Mbstatet@@@2@_JHH@Z 1001a1f0 f i client_config.cpp.obj
 0001:000192d0       ?seekoff@?$basic_streambuf@DU?$char_traits@D@std@@@std@@MAE?AV?$fpos@U_Mbstatet@@@2@_JHH@Z 1001a2d0 f i client_config.cpp.obj
 0001:00019300       ?seekpos@?$basic_filebuf@DU?$char_traits@D@std@@@std@@MAE?AV?$fpos@U_Mbstatet@@@2@V32@H@Z 1001a300 f i client_config.cpp.obj
 0001:000193d0       ?seekpos@?$basic_streambuf@DU?$char_traits@D@std@@@std@@MAE?AV?$fpos@U_Mbstatet@@@2@V32@H@Z 1001a3d0 f i client_config.cpp.obj
 0001:00019400       ?setbuf@?$basic_filebuf@DU?$char_traits@D@std@@@std@@MAEPAV?$basic_streambuf@DU?$char_traits@D@std@@@2@PAD_J@Z 1001a400 f i client_config.cpp.obj
 0001:00019450       ?setbuf@?$basic_streambuf@DU?$char_traits@D@std@@@std@@MAEPAV12@PAD_J@Z 1001a450 f i client_config.cpp.obj
 0001:00019460       ?showmanyc@?$basic_streambuf@DU?$char_traits@D@std@@@std@@MAE_JXZ 1001a460 f i client_config.cpp.obj
 0001:00019470       ?snextc@?$basic_streambuf@DU?$char_traits@D@std@@@std@@QAEHXZ 1001a470 f i client_config.cpp.obj
 0001:000194e0       ?substr@?$basic_string_view@DU?$char_traits@D@std@@@std@@QBE?AV12@II@Z 1001a4e0 f i client_config.cpp.obj
 0001:00019520       ?sync@?$basic_filebuf@DU?$char_traits@D@std@@@std@@MAEHXZ 1001a520 f i client_config.cpp.obj
 0001:00019550       ?sync@?$basic_streambuf@DU?$char_traits@D@std@@@std@@MAEHXZ 1001a550 f i client_config.cpp.obj
 0001:00019560       ?sync_to_runtime@config@ext_client@@YAXXZ 1001a560 f   client_config.cpp.obj
 0001:00019570       ?uflow@?$basic_filebuf@DU?$char_traits@D@std@@@std@@MAEHXZ 1001a570 f i client_config.cpp.obj
 0001:000198c0       ?uflow@?$basic_streambuf@DU?$char_traits@D@std@@@std@@MAEHXZ 1001a8c0 f i client_config.cpp.obj
 0001:000198f0       ?underflow@?$basic_filebuf@DU?$char_traits@D@std@@@std@@MAEHXZ 1001a8f0 f i client_config.cpp.obj
 0001:00019930       ?underflow@?$basic_streambuf@DU?$char_traits@D@std@@@std@@MAEHXZ 1001a930 f i client_config.cpp.obj
 0001:00019940       ?xsgetn@?$basic_filebuf@DU?$char_traits@D@std@@@std@@MAE_JPAD_J@Z 1001a940 f i client_config.cpp.obj
 0001:00019b10       ?xsgetn@?$basic_streambuf@DU?$char_traits@D@std@@@std@@MAE_JPAD_J@Z 1001ab10 f i client_config.cpp.obj
 0001:00019be0       ?xsputn@?$basic_filebuf@DU?$char_traits@D@std@@@std@@MAE_JPBD_J@Z 1001abe0 f i client_config.cpp.obj
 0001:00019da0       ?xsputn@?$basic_streambuf@DU?$char_traits@D@std@@@std@@MAE_JPBD_J@Z 1001ada0 f i client_config.cpp.obj
 0001:00019e80       _sprintf_s                 1001ae80 f i client_config.cpp.obj
 0001:0001a270       ?from_imgui@color@utils@ext_client@@YAII@Z 1001b270 f i menu.cpp.obj
 0001:0001a2a0       ?is_visible@menu@ext_client@@YA_NXZ 1001b2a0 f   menu.cpp.obj
 0001:0001a2b0       ?on_create@menu@ext_client@@YAXPAUHWND__@@PAUIDirect3DDevice9@@@Z 1001b2b0 f   menu.cpp.obj
 0001:0001a370       ?render@menu@ext_client@@YAXXZ 1001b370 f   menu.cpp.obj
 0001:0001a650       ?set_visible@menu@ext_client@@YAX_N@Z 1001b650 f   menu.cpp.obj
 0001:0001a6a0       ?shutdown@menu@ext_client@@YAXXZ 1001b6a0 f   menu.cpp.obj
 0001:0001a6d0       ?checkbox_column@ui@menu@ext_client@@YA_NPA_NPBD01@Z 1001b6d0 f   menu_ui.cpp.obj
 0001:0001a720       ?checkbox_setting@ui@menu@ext_client@@YA_NPBDPA_N_N@Z 1001b720 f   menu_ui.cpp.obj
 0001:0001a750       ?setting_changed@ui@menu@ext_client@@YAX_N@Z 1001b750 f   menu_ui.cpp.obj
 0001:0001a770       ?draw@config_panel@menu@ext_client@@YAXXZ 1001b770 f   config_panel.cpp.obj
 0001:0001b340       ??$_Allocate_at_least_helper@V?$allocator@Uwidget_info@cif_manager@ext_client@@@std@@@std@@YAPAUwidget_info@cif_manager@ext_client@@AAV?$allocator@Uwidget_info@cif_manager@ext_client@@@0@AAI@Z 1001c340 f i widget_inspector.cpp.obj
 0001:0001b3a0       ??$_Emplace_reallocate@ABQAVcgwnd@@@?$vector@PAVcgwnd@@V?$allocator@PAVcgwnd@@@std@@@std@@AAEPAPAVcgwnd@@QAPAV2@ABQAV2@@Z 1001c3a0 f i widget_inspector.cpp.obj
 0001:0001b510       ??$_Find_last@H@?$_Hash@V?$_Umap_traits@HUentry@ui_res_catalog@utils@ext_client@@V?$_Uhash_compare@HU?$hash@H@std@@U?$equal_to@H@2@@std@@V?$allocator@U?$pair@$$CBHUentry@ui_res_catalog@utils@ext_client@@@std@@@6@$0A@@std@@@std@@IBE?AU?$_Hash_find_last_result@PAU?$_List_node@U?$pair@$$CBHUentry@ui_res_catalog@utils@ext_client@@@std@@PAX@std@@@1@ABHI@Z 1001c510 f i ui_res_catalog.cpp.obj
 0001:0001b510       ??$_Find_last@I@?$_Hash@V?$_Umap_traits@IV?$basic_string@DU?$char_traits@D@std@@V?$allocator@D@2@@std@@V?$_Uhash_compare@IU?$hash@I@std@@U?$equal_to@I@2@@2@V?$allocator@U?$pair@$$CBIV?$basic_string@DU?$char_traits@D@std@@V?$allocator@D@2@@std@@@std@@@2@$0A@@std@@@std@@IBE?AU?$_Hash_find_last_result@PAU?$_List_node@U?$pair@$$CBIV?$basic_string@DU?$char_traits@D@std@@V?$allocator@D@2@@std@@@std@@PAX@std@@@1@ABII@Z 1001c510 f i cif_manager.cpp.obj
 0001:0001b510       ??$_Find_last@PAVcgwnd@@@?$_Hash@V?$_Uset_traits@PAVcgwnd@@V?$_Uhash_compare@PAVcgwnd@@U?$hash@PAVcgwnd@@@std@@U?$equal_to@PAVcgwnd@@@3@@std@@V?$allocator@PAVcgwnd@@@3@$0A@@std@@@std@@IBE?AU?$_Hash_find_last_result@PAU?$_List_node@PAVcgwnd@@PAX@std@@@1@ABQAVcgwnd@@I@Z 1001c510 f i widget_inspector.cpp.obj
 0001:0001b580       ??$_Insert_counted_range@PBUwidget_info@cif_manager@ext_client@@@?$vector@Uwidget_info@cif_manager@ext_client@@V?$allocator@Uwidget_info@cif_manager@ext_client@@@std@@@std@@AAEXV?$_Vector_const_iterator@V?$_Vector_val@U?$_Simple_types@Uwidget_info@cif_manager@ext_client@@@std@@@std@@@1@PBUwidget_info@cif_manager@ext_client@@I@Z 1001c580 f i widget_inspector.cpp.obj
 0001:0001b800       ??$_Uninitialized_move@PAUwidget_info@cif_manager@ext_client@@V?$allocator@Uwidget_info@cif_manager@ext_client@@@std@@@std@@YAPAUwidget_info@cif_manager@ext_client@@QAU123@0PAU123@AAV?$allocator@Uwidget_info@cif_manager@ext_client@@@0@@Z 1001c800 f i widget_inspector.cpp.obj
 0001:0001b840       ??$emplace@ABQAVcgwnd@@@?$_Hash@V?$_Uset_traits@PAVcgwnd@@V?$_Uhash_compare@PAVcgwnd@@U?$hash@PAVcgwnd@@@std@@U?$equal_to@PAVcgwnd@@@3@@std@@V?$allocator@PAVcgwnd@@@3@$0A@@std@@@std@@QAE?AU?$pair@V?$_List_const_iterator@V?$_List_val@U?$_List_simple_types@PAVcgwnd@@@std@@@std@@@std@@_N@1@ABQAVcgwnd@@@Z 1001c840 f i widget_inspector.cpp.obj
 0001:0001ba20       ??0?$unordered_set@PAVcgwnd@@U?$hash@PAVcgwnd@@@std@@U?$equal_to@PAVcgwnd@@@3@V?$allocator@PAVcgwnd@@@3@@std@@QAE@XZ 1001ca20 f i widget_inspector.cpp.obj
 0001:0001bac0       ??1?$_Alloc_construct_ptr@V?$allocator@U?$_List_node@PAVcgwnd@@PAX@std@@@std@@@std@@QAE@XZ 1001cac0 f i widget_inspector.cpp.obj
 0001:0001bac0       ??1?$_List_node_emplace_op2@V?$allocator@U?$_List_node@PAVcgwnd@@PAX@std@@@std@@@std@@QAE@XZ 1001cac0 f i widget_inspector.cpp.obj
 0001:0001bae0       ??1?$_Hash@V?$_Uset_traits@PAVcgwnd@@V?$_Uhash_compare@PAVcgwnd@@U?$hash@PAVcgwnd@@@std@@U?$equal_to@PAVcgwnd@@@3@@std@@V?$allocator@PAVcgwnd@@@3@$0A@@std@@@std@@QAE@XZ 1001cae0 f i widget_inspector.cpp.obj
 0001:0001bb30       ??1?$_Hash_vec@V?$allocator@V?$_List_unchecked_const_iterator@V?$_List_val@U?$_List_simple_types@PAVcgwnd@@@std@@@std@@U_Iterator_base0@2@@std@@@std@@@std@@QAE@XZ 1001cb30 f i widget_inspector.cpp.obj
 0001:0001bb30       ??1?$_Hash_vec@V?$allocator@V?$_List_unchecked_iterator@V?$_List_val@U?$_List_simple_types@U?$pair@$$CBHUentry@ui_res_catalog@utils@ext_client@@@std@@@std@@@std@@@std@@@std@@@std@@QAE@XZ 1001cb30 f i ui_res_catalog.cpp.obj
 0001:0001bb30       ??1?$_Hash_vec@V?$allocator@V?$_List_unchecked_iterator@V?$_List_val@U?$_List_simple_types@U?$pair@$$CBIV?$basic_string@DU?$char_traits@D@std@@V?$allocator@D@2@@std@@@std@@@std@@@std@@@std@@@std@@@std@@QAE@XZ 1001cb30 f i cif_manager.cpp.obj
 0001:0001bb30       ??1?$_Hash_vec@V?$allocator@V?$_List_unchecked_iterator@V?$_List_val@U?$_List_simple_types@U?$pair@$$CBV?$basic_string@DU?$char_traits@D@std@@V?$allocator@D@2@@std@@Uentry@ui_res_catalog@utils@ext_client@@@std@@@std@@@std@@@std@@@std@@@std@@QAE@XZ 1001cb30 f i ui_res_catalog.cpp.obj
 0001:0001bb90       ??1?$list@PAVcgwnd@@V?$allocator@PAVcgwnd@@@std@@@std@@QAE@XZ 1001cb90 f i widget_inspector.cpp.obj
 0001:0001bbd0       ??1?$unordered_set@PAVcgwnd@@U?$hash@PAVcgwnd@@@std@@U?$equal_to@PAVcgwnd@@@3@V?$allocator@PAVcgwnd@@@3@@std@@QAE@XZ 1001cbd0 f i widget_inspector.cpp.obj
 0001:0001bbe0       ??1?$vector@PAVcgwnd@@V?$allocator@PAVcgwnd@@@std@@@std@@QAE@XZ 1001cbe0 f i widget_inspector.cpp.obj
 0001:0001bc40       ??1?$vector@Uwidget_info@cif_manager@ext_client@@V?$allocator@Uwidget_info@cif_manager@ext_client@@@std@@@std@@QAE@XZ 1001cc40 f i widget_inspector.cpp.obj
 0001:0001bcc0       ??1_Reallocation_guard@?$vector@Uwidget_info@cif_manager@ext_client@@V?$allocator@Uwidget_info@cif_manager@ext_client@@@std@@@std@@QAE@XZ 1001ccc0 f i widget_inspector.cpp.obj
 0001:0001bd10       ?_Assign_grow@?$_Hash_vec@V?$allocator@V?$_List_unchecked_const_iterator@V?$_List_val@U?$_List_simple_types@PAVcgwnd@@@std@@@std@@U_Iterator_base0@2@@std@@@std@@@std@@QAEXIV?$_List_unchecked_const_iterator@V?$_List_val@U?$_List_simple_types@PAVcgwnd@@@std@@@std@@U_Iterator_base0@2@@2@@Z 1001cd10 f i widget_inspector.cpp.obj
 0001:0001bd10       ?_Assign_grow@?$_Hash_vec@V?$allocator@V?$_List_unchecked_iterator@V?$_List_val@U?$_List_simple_types@U?$pair@$$CBHUentry@ui_res_catalog@utils@ext_client@@@std@@@std@@@std@@@std@@@std@@@std@@QAEXIV?$_List_unchecked_iterator@V?$_List_val@U?$_List_simple_types@U?$pair@$$CBHUentry@ui_res_catalog@utils@ext_client@@@std@@@std@@@std@@@2@@Z 1001cd10 f i ui_res_catalog.cpp.obj
 0001:0001bd10       ?_Assign_grow@?$_Hash_vec@V?$allocator@V?$_List_unchecked_iterator@V?$_List_val@U?$_List_simple_types@U?$pair@$$CBIV?$basic_string@DU?$char_traits@D@std@@V?$allocator@D@2@@std@@@std@@@std@@@std@@@std@@@std@@@std@@QAEXIV?$_List_unchecked_iterator@V?$_List_val@U?$_List_simple_types@U?$pair@$$CBIV?$basic_string@DU?$char_traits@D@std@@V?$allocator@D@2@@std@@@std@@@std@@@std@@@2@@Z 1001cd10 f i cif_manager.cpp.obj
 0001:0001bd10       ?_Assign_grow@?$_Hash_vec@V?$allocator@V?$_List_unchecked_iterator@V?$_List_val@U?$_List_simple_types@U?$pair@$$CBV?$basic_string@DU?$char_traits@D@std@@V?$allocator@D@2@@std@@Uentry@ui_res_catalog@utils@ext_client@@@std@@@std@@@std@@@std@@@std@@@std@@QAEXIV?$_List_unchecked_iterator@V?$_List_val@U?$_List_simple_types@U?$pair@$$CBV?$basic_string@DU?$char_traits@D@std@@V?$allocator@D@2@@std@@Uentry@ui_res_catalog@utils@ext_client@@@std@@@std@@@std@@@2@@Z 1001cd10 f i ui_res_catalog.cpp.obj
 0001:0001bde0       ?_Change_array@?$vector@Uwidget_info@cif_manager@ext_client@@V?$allocator@Uwidget_info@cif_manager@ext_client@@@std@@@std@@AAEXQAUwidget_info@cif_manager@ext_client@@II@Z 1001cde0 f i widget_inspector.cpp.obj
 0001:0001be60       ?_Forced_rehash@?$_Hash@V?$_Uset_traits@PAVcgwnd@@V?$_Uhash_compare@PAVcgwnd@@U?$hash@PAVcgwnd@@@std@@U?$equal_to@PAVcgwnd@@@3@@std@@V?$allocator@PAVcgwnd@@@3@$0A@@std@@@std@@IAEXI@Z 1001ce60 f i widget_inspector.cpp.obj
 0001:0001bfb0       ?deallocate@?$allocator@V?$_List_unchecked_const_iterator@V?$_List_val@U?$_List_simple_types@PAVcgwnd@@@std@@@std@@U_Iterator_base0@2@@std@@@std@@QAEXQAV?$_List_unchecked_const_iterator@V?$_List_val@U?$_List_simple_types@PAVcgwnd@@@std@@@std@@U_Iterator_base0@2@@2@I@Z 1001cfb0 f i widget_inspector.cpp.obj
 0001:0001bfb0       ?deallocate@?$allocator@V?$_List_unchecked_iterator@V?$_List_val@U?$_List_simple_types@U?$pair@$$CBHUentry@ui_res_catalog@utils@ext_client@@@std@@@std@@@std@@@std@@@std@@QAEXQAV?$_List_unchecked_iterator@V?$_List_val@U?$_List_simple_types@U?$pair@$$CBHUentry@ui_res_catalog@utils@ext_client@@@std@@@std@@@std@@@2@I@Z 1001cfb0 f i ui_res_catalog.cpp.obj
 0001:0001bfb0       ?deallocate@?$allocator@V?$_List_unchecked_iterator@V?$_List_val@U?$_List_simple_types@U?$pair@$$CBIV?$basic_string@DU?$char_traits@D@std@@V?$allocator@D@2@@std@@@std@@@std@@@std@@@std@@@std@@QAEXQAV?$_List_unchecked_iterator@V?$_List_val@U?$_List_simple_types@U?$pair@$$CBIV?$basic_string@DU?$char_traits@D@std@@V?$allocator@D@2@@std@@@std@@@std@@@std@@@2@I@Z 1001cfb0 f i cif_manager.cpp.obj
 0001:0001bfb0       ?deallocate@?$allocator@V?$_List_unchecked_iterator@V?$_List_val@U?$_List_simple_types@U?$pair@$$CBV?$basic_string@DU?$char_traits@D@std@@V?$allocator@D@2@@std@@Uentry@ui_res_catalog@utils@ext_client@@@std@@@std@@@std@@@std@@@std@@QAEXQAV?$_List_unchecked_iterator@V?$_List_val@U?$_List_simple_types@U?$pair@$$CBV?$basic_string@DU?$char_traits@D@std@@V?$allocator@D@2@@std@@Uentry@ui_res_catalog@utils@ext_client@@@std@@@std@@@std@@@2@I@Z 1001cfb0 f i ui_res_catalog.cpp.obj
 0001:0001c000       ?draw@widget_inspector@menu@ext_client@@YAXXZ 1001d000 f   widget_inspector.cpp.obj
 0001:0001c5f0       ?draw_overlay@widget_inspector@menu@ext_client@@YAXXZ 1001d5f0 f   widget_inspector.cpp.obj
 0001:0001e040       ?push_back@?$vector@Uwidget_info@cif_manager@ext_client@@V?$allocator@Uwidget_info@cif_manager@ext_client@@@std@@@std@@QAEXABUwidget_info@cif_manager@ext_client@@@Z 1001f040 f i widget_inspector.cpp.obj
 0001:0001f3f0       ??$emplace@AAIAAY0EA@D@?$_Hash@V?$_Umap_traits@IV?$basic_string@DU?$char_traits@D@std@@V?$allocator@D@2@@std@@V?$_Uhash_compare@IU?$hash@I@std@@U?$equal_to@I@2@@2@V?$allocator@U?$pair@$$CBIV?$basic_string@DU?$char_traits@D@std@@V?$allocator@D@2@@std@@@std@@@2@$0A@@std@@@std@@QAE?AU?$pair@V?$_List_iterator@V?$_List_val@U?$_List_simple_types@U?$pair@$$CBIV?$basic_string@DU?$char_traits@D@std@@V?$allocator@D@2@@std@@@std@@@std@@@std@@@std@@_N@1@AAIAAY0EA@D@Z 100203f0 f i cif_manager.cpp.obj
 0001:0001f7a0       ??1?$_Alloc_construct_ptr@V?$allocator@U?$_List_node@U?$pair@$$CBIV?$basic_string@DU?$char_traits@D@std@@V?$allocator@D@2@@std@@@std@@PAX@std@@@std@@@std@@QAE@XZ 100207a0 f i cif_manager.cpp.obj
 0001:0001f7c0       ??1?$_List_node_emplace_op2@V?$allocator@U?$_List_node@U?$pair@$$CBIV?$basic_string@DU?$char_traits@D@std@@V?$allocator@D@2@@std@@@std@@PAX@std@@@std@@@std@@QAE@XZ 100207c0 f i cif_manager.cpp.obj
 0001:0001f7f0       ??1?$list@U?$pair@$$CBIV?$basic_string@DU?$char_traits@D@std@@V?$allocator@D@2@@std@@@std@@V?$allocator@U?$pair@$$CBIV?$basic_string@DU?$char_traits@D@std@@V?$allocator@D@2@@std@@@std@@@2@@std@@QAE@XZ 100207f0 f i cif_manager.cpp.obj
 0001:0001f950       ?_Change_array@?$vector@Ures_map_entry@cif_manager@ext_client@@V?$allocator@Ures_map_entry@cif_manager@ext_client@@@std@@@std@@AAEXQAUres_map_entry@cif_manager@ext_client@@II@Z 10020950 f i cif_manager.cpp.obj
 0001:0001f9c0       ?_Forced_rehash@?$_Hash@V?$_Umap_traits@IV?$basic_string@DU?$char_traits@D@std@@V?$allocator@D@2@@std@@V?$_Uhash_compare@IU?$hash@I@std@@U?$equal_to@I@2@@2@V?$allocator@U?$pair@$$CBIV?$basic_string@DU?$char_traits@D@std@@V?$allocator@D@2@@std@@@std@@@2@$0A@@std@@@std@@IAEXI@Z 100209c0 f i cif_manager.cpp.obj
 0001:0001fd50       ?apply_static_label@cif_manager@ext_client@@YAXPAVcif_static@@PB_WI@Z 10020d50 f   cif_manager.cpp.obj
 0001:0001fd80       ?as_static_if@cif_manager@ext_client@@YAPAVcif_static@@PAVcgwnd@@@Z 10020d80 f   cif_manager.cpp.obj
 0001:0001fdf0       ?browsable_ui_root@cif_manager@ext_client@@YAPAVcgwnd@@PAX@Z 10020df0 f   cif_manager.cpp.obj
 0001:0001fe60       ?collect_title_list_button@cif_manager@ext_client@@YAXPAVcgwnd@@PAX@Z 10020e60 f   cif_manager.cpp.obj
 0001:0001fe90       ?control_id@cif_manager@ext_client@@YAHPBVcgwnd@@@Z 10020e90 f   cif_manager.cpp.obj
 0001:0001fea0       ?count_owned_children@cif_manager@ext_client@@YAIPBVcgwnd@@@Z 10020ea0 f   cif_manager.cpp.obj
 0001:0001fed0       ?descendant_depth@cif_manager@ext_client@@YAHPBVcgwnd@@0HH@Z 10020ed0 f   cif_manager.cpp.obj
 0001:0001fff0       ?destroy_widget@cif_manager@ext_client@@YAXPAVcgwnd@@@Z 10020ff0 f   cif_manager.cpp.obj
 0001:00020010       ?diagnose_ingame_res@cif_manager@ext_client@@YA?AUingame_res_lookup@12@H@Z 10021010 f   cif_manager.cpp.obj
 0001:000200e0       ?enrich_widget_info@cif_manager@ext_client@@YAXAAUwidget_info@12@PBVcgwnd@@@Z 100210e0 f   cif_manager.cpp.obj
 0001:00020280       ?enumerate_iface_res_map@cif_manager@ext_client@@YA?AV?$vector@Ures_map_entry@cif_manager@ext_client@@V?$allocator@Ures_map_entry@cif_manager@ext_client@@@std@@@std@@H@Z 10021280 f   cif_manager.cpp.obj
 0001:000202d0       ?enumerate_ingame_res_map@cif_manager@ext_client@@YA?AV?$vector@Ures_map_entry@cif_manager@ext_client@@V?$allocator@Ures_map_entry@cif_manager@ext_client@@@std@@@std@@H@Z 100212d0 f   cif_manager.cpp.obj
 0001:000202f0       ?enumerate_res_map@cif_manager@ext_client@@YA?AV?$vector@Ures_map_entry@cif_manager@ext_client@@V?$allocator@Ures_map_entry@cif_manager@ext_client@@@std@@@std@@PBXH@Z 100212f0 f   cif_manager.cpp.obj
 0001:00020470       ?find_ingame_res_raw@cif_manager@ext_client@@YAPAXH@Z 10021470 f   cif_manager.cpp.obj
 0001:000204b0       ?find_res_map_key@cif_manager@ext_client@@YAHPBVcgwnd@@@Z 100214b0 f   cif_manager.cpp.obj
 0001:00020660       ?find_title_channel_list_button@cif_manager@ext_client@@YAPAVcgwnd@@PAUcps_outer_interface@@@Z 10021660 f   cif_manager.cpp.obj
 0001:000206d0       ?for_each_owned_child@cif_manager@ext_client@@YAXPAVcgwnd@@P6AX0PAX@Z1@Z 100216d0 f   cif_manager.cpp.obj
 0001:00020c60       ?is_instance@cif_decorated_static@@SA_NPBX@Z 10021c60 f i cif_manager.cpp.obj
 0001:00020c90       ?is_live_widget@cif_manager@ext_client@@YA_NPBVcgwnd@@@Z 10021c90 f   cif_manager.cpp.obj
 0001:00020f10       ?is_static@cif_manager@ext_client@@YA_NPBVcgwnd@@@Z 10021f10 f   cif_manager.cpp.obj
 0001:00020f40       ?is_title_list_button_widget@cif_manager@ext_client@@YA_NPBVcgwnd@@@Z 10021f40 f   cif_manager.cpp.obj
 0001:00020f90       ?is_visible@cif_manager@ext_client@@YA_NPBVcgwnd@@@Z 10021f90 f   cif_manager.cpp.obj
 0001:000213a0       ?read_static_text@cif_manager@ext_client@@YA_NPBVcif_static@@PA_WI@Z 100223a0 f   cif_manager.cpp.obj
 0001:00021480       ?read_widget_ddj_path@cif_manager@ext_client@@YA_NPBVcgwnd@@PADI@Z 10022480 f   cif_manager.cpp.obj
 0001:00021570       ?res_map_key_for@cif_manager@ext_client@@YAHPAUcps_outer_interface@@PBVcgwnd@@@Z 10022570 f   cif_manager.cpp.obj
 0001:000215a0       ?res_map_key_in@cif_manager@ext_client@@YAHPBXPBVcgwnd@@@Z 100225a0 f   cif_manager.cpp.obj
 0001:00021640       ?scan_title_channel_list_button@cif_manager@ext_client@@YAPAVcgwnd@@PAUcps_outer_interface@@PBV3@@Z 10022640 f   cif_manager.cpp.obj
 0001:000218a0       ?spawn_static_label@cif_manager@ext_client@@YAPAVcif_static@@PAVcgwnd@@ABUspawn_label_options@12@@Z 100228a0 f   cif_manager.cpp.obj
 0001:00021a30       ?ui_type_name@cif_manager@ext_client@@YAPBDPBX@Z 10022a30 f   cif_manager.cpp.obj
 0001:00021a70       ?unique_id@cif_manager@ext_client@@YAHPBVcgwnd@@@Z 10022a70 f   cif_manager.cpp.obj
 0001:00021a80       ?vftable_kind@cif_manager@ext_client@@YA?AW4widget_kind@12@I@Z 10022a80 f   cif_manager.cpp.obj
 0001:00021b70       ?vftable_type_name@cif_manager@ext_client@@YAPBDI@Z 10022b70 f   cif_manager.cpp.obj
 0001:00021de0       ?walk@cif_manager@ext_client@@YA?AV?$vector@Uwidget_info@cif_manager@ext_client@@V?$allocator@Uwidget_info@cif_manager@ext_client@@@std@@@std@@PAVcgwnd@@HH@Z 10022de0 f   cif_manager.cpp.obj
 0001:000221e0       ?walk_each@cif_manager@ext_client@@YAXPAVcgwnd@@HP6AX0PAX@Z1@Z 100231e0 f   cif_manager.cpp.obj
 0001:00022780       ?walk_ingame_res_roots@cif_manager@ext_client@@YAXP6AXPAVcgwnd@@PAX@Z1H@Z 10023780 f   cif_manager.cpp.obj
 0001:00022840       ?walk_static_texts@cif_manager@ext_client@@YA?AV?$vector@Uwidget_info@cif_manager@ext_client@@V?$allocator@Uwidget_info@cif_manager@ext_client@@@std@@@std@@PAVcgwnd@@HH@Z 10023840 f   cif_manager.cpp.obj
 0001:00022b50       ?get@cgame_text@@SAPAV1@XZ 10023b50 f   cgame_text.cpp.obj
 0001:00022b60       ?get_text@cgame_text@@QAE?AVwstring_ref@msvc9@ext_client@@PB_W@Z 10023b60 f   cgame_text.cpp.obj
 0001:00022b80       ??0string@msvc9@ext_client@@QAE@PBD@Z 10023b80 f   msvc9_stl.cpp.obj
 0001:00022bf0       ??0string@msvc9@ext_client@@QAE@XZ 10023bf0 f   msvc9_stl.cpp.obj
 0001:00022c30       ??0wstring@msvc9@ext_client@@QAE@PB_W@Z 10023c30 f   msvc9_stl.cpp.obj
 0001:00022c90       ??1string@msvc9@ext_client@@QAE@XZ 10023c90 f   msvc9_stl.cpp.obj
 0001:00022cd0       ??1wstring@msvc9@ext_client@@QAE@XZ 10023cd0 f   msvc9_stl.cpp.obj
 0001:00022d40       ?assign@wstring@msvc9@ext_client@@QAEAAV123@PB_WI@Z 10023d40 f   msvc9_stl.cpp.obj
 0001:00022e20       ?copy_to@string_ref@msvc9@ext_client@@QBE_NPADI@Z 10023e20 f   msvc9_stl.cpp.obj
 0001:00022ea0       ?copy_to@wstring_ref@msvc9@ext_client@@QBE_NPA_WI@Z 10023ea0 f   msvc9_stl.cpp.obj
 0001:00022f10       ?data@string_ref@msvc9@ext_client@@QBEPBDXZ 10023f10 f   msvc9_stl.cpp.obj
 0001:00022f60       ?data@wstring_ref@msvc9@ext_client@@QBEPB_WXZ 10023f60 f   msvc9_stl.cpp.obj
 0001:00022fc0       ?empty@wstring_ref@msvc9@ext_client@@QBE_NXZ 10023fc0 f   msvc9_stl.cpp.obj
 0001:00022ff0       ?find@ui_res_map@msvc9@ext_client@@QBEPAXI_N@Z 10023ff0 f   msvc9_stl.cpp.obj
 0001:00023000       ?from@list_ref@msvc9@ext_client@@SA?AV123@PBX@Z 10024000 f   msvc9_stl.cpp.obj
 0001:00023020       ?from@map_ref@msvc9@ext_client@@SA?AV123@PBX@Z 10024020 f   msvc9_stl.cpp.obj
 0001:00023020       ?from@stdext_hash_map_ref@msvc9@ext_client@@SA?AV123@PBX@Z 10024020 f   msvc9_stl.cpp.obj
 0001:00023020       ?from@string_ref@msvc9@ext_client@@SA?AV123@PBX@Z 10024020 f   msvc9_stl.cpp.obj
 0001:00023020       ?from@wstring_ref@msvc9@ext_client@@SA?AV123@PBX@Z 10024020 f   msvc9_stl.cpp.obj
 0001:00023030       ?from_sentinel@child_list_ref@msvc9@ext_client@@SA?AV123@PBX@Z 10024030 f   msvc9_stl.cpp.obj
 0001:000230f0       ?from_sentinel@list_ref@msvc9@ext_client@@SA?AV123@PBX@Z 100240f0 f   msvc9_stl.cpp.obj
 0001:000231c0       ?is_nil@map_tree_node@msvc9@ext_client@@QBE_NXZ 100241c0 f   msvc9_stl.cpp.obj
 0001:000231e0       ?is_readable_ptr@msvc9@ext_client@@YA_NPBXI@Z 100241e0 f   msvc9_stl.cpp.obj
 0001:00023290       ?length@wstring_ref@msvc9@ext_client@@QBEIXZ 10024290 f   msvc9_stl.cpp.obj
 0001:000232b0       ?list_view@stdext_hash_map_ref@msvc9@ext_client@@QBE?AVlist_ref@23@XZ 100242b0 f   msvc9_stl.cpp.obj
 0001:000232e0       ?minimum@map_ref@msvc9@ext_client@@ABEPBUmap_tree_node@23@XZ 100242e0 f   msvc9_stl.cpp.obj
 0001:00023360       ?next@map_ref@msvc9@ext_client@@SAPBUmap_tree_node@23@PBU423@0@Z 10024360 f   msvc9_stl.cpp.obj
 0001:00023480       ?sentinel@list_ref@msvc9@ext_client@@QBEPBXXZ 10024480 f   msvc9_stl.cpp.obj
 0001:00023580       ?sentinel@map_ref@msvc9@ext_client@@ABEPBUmap_tree_node@23@XZ 10024580 f   msvc9_stl.cpp.obj
 0001:000235c0       ?try_read_u32@msvc9@ext_client@@YA_NPBXPAI@Z 100245c0 f   msvc9_stl.cpp.obj
 0001:00023660       ??$_Find_last@V?$basic_string@DU?$char_traits@D@std@@V?$allocator@D@2@@std@@@?$_Hash@V?$_Umap_traits@V?$basic_string@DU?$char_traits@D@std@@V?$allocator@D@2@@std@@Uentry@ui_res_catalog@utils@ext_client@@V?$_Uhash_compare@V?$basic_string@DU?$char_traits@D@std@@V?$allocator@D@2@@std@@U?$hash@V?$basic_string@DU?$char_traits@D@std@@V?$allocator@D@2@@std@@@2@U?$equal_to@V?$basic_string@DU?$char_traits@D@std@@V?$allocator@D@2@@std@@@2@@2@V?$allocator@U?$pair@$$CBV?$basic_string@DU?$char_traits@D@std@@V?$allocator@D@2@@std@@Uentry@ui_res_catalog@utils@ext_client@@@std@@@2@$0A@@std@@@std@@IBE?AU?$_Hash_find_last_result@PAU?$_List_node@U?$pair@$$CBV?$basic_string@DU?$char_traits@D@std@@V?$allocator@D@2@@std@@Uentry@ui_res_catalog@utils@ext_client@@@std@@PAX@std@@@1@ABV?$basic_string@DU?$char_traits@D@std@@V?$allocator@D@2@@1@I@Z 10024660 f i ui_res_catalog.cpp.obj
 0001:000236f0       ??$_Free_non_head@V?$allocator@U?$_List_node@U?$pair@$$CBV?$basic_string@DU?$char_traits@D@std@@V?$allocator@D@2@@std@@Uentry@ui_res_catalog@utils@ext_client@@@std@@PAX@std@@@std@@@?$_List_node@U?$pair@$$CBV?$basic_string@DU?$char_traits@D@std@@V?$allocator@D@2@@std@@Uentry@ui_res_catalog@utils@ext_client@@@std@@PAX@std@@SAXAAV?$allocator@U?$_List_node@U?$pair@$$CBV?$basic_string@DU?$char_traits@D@std@@V?$allocator@D@2@@std@@Uentry@ui_res_catalog@utils@ext_client@@@std@@PAX@std@@@1@PAU01@@Z 100246f0 f i ui_res_catalog.cpp.obj
 0001:00023730       ??$_Traits_equal@U?$char_traits@D@std@@@std@@YA_NQBDI0I@Z 10024730 f i ui_res_catalog.cpp.obj
 0001:000237b0       ??$_Try_emplace@ABH$$V@?$_Hash@V?$_Umap_traits@HUentry@ui_res_catalog@utils@ext_client@@V?$_Uhash_compare@HU?$hash@H@std@@U?$equal_to@H@2@@std@@V?$allocator@U?$pair@$$CBHUentry@ui_res_catalog@utils@ext_client@@@std@@@6@$0A@@std@@@std@@IAE?AU?$pair@PAU?$_List_node@U?$pair@$$CBHUentry@ui_res_catalog@utils@ext_client@@@std@@PAX@std@@_N@1@ABH@Z 100247b0 f i ui_res_catalog.cpp.obj
 0001:000239b0       ??$_Try_emplace@V?$basic_string@DU?$char_traits@D@std@@V?$allocator@D@2@@std@@$$V@?$_Hash@V?$_Umap_traits@V?$basic_string@DU?$char_traits@D@std@@V?$allocator@D@2@@std@@Uentry@ui_res_catalog@utils@ext_client@@V?$_Uhash_compare@V?$basic_string@DU?$char_traits@D@std@@V?$allocator@D@2@@std@@U?$hash@V?$basic_string@DU?$char_traits@D@std@@V?$allocator@D@2@@std@@@2@U?$equal_to@V?$basic_string@DU?$char_traits@D@std@@V?$allocator@D@2@@std@@@2@@2@V?$allocator@U?$pair@$$CBV?$basic_string@DU?$char_traits@D@std@@V?$allocator@D@2@@std@@Uentry@ui_res_catalog@utils@ext_client@@@std@@@2@$0A@@std@@@std@@IAE?AU?$pair@PAU?$_List_node@U?$pair@$$CBV?$basic_string@DU?$char_traits@D@std@@V?$allocator@D@2@@std@@Uentry@ui_res_catalog@utils@ext_client@@@std@@PAX@std@@_N@1@$$QAV?$basic_string@DU?$char_traits@D@std@@V?$allocator@D@2@@1@@Z 100249b0 f i ui_res_catalog.cpp.obj
 0001:00023bf0       ??0?$unordered_map@HUentry@ui_res_catalog@utils@ext_client@@U?$hash@H@std@@U?$equal_to@H@6@V?$allocator@U?$pair@$$CBHUentry@ui_res_catalog@utils@ext_client@@@std@@@6@@std@@QAE@XZ 10024bf0 f i ui_res_catalog.cpp.obj
 0001:00023d00       ??0?$unordered_map@V?$basic_string@DU?$char_traits@D@std@@V?$allocator@D@2@@std@@Uentry@ui_res_catalog@utils@ext_client@@U?$hash@V?$basic_string@DU?$char_traits@D@std@@V?$allocator@D@2@@std@@@2@U?$equal_to@V?$basic_string@DU?$char_traits@D@std@@V?$allocator@D@2@@std@@@2@V?$allocator@U?$pair@$$CBV?$basic_string@DU?$char_traits@D@std@@V?$allocator@D@2@@std@@Uentry@ui_res_catalog@utils@ext_client@@@std@@@2@@std@@QAE@XZ 10024d00 f i ui_res_catalog.cpp.obj
 0001:00023e10       ??0entry@ui_res_catalog@utils@ext_client@@QAE@XZ 10024e10 f i ui_res_catalog.cpp.obj
 0001:00023e80       ??1?$_Alloc_construct_ptr@V?$allocator@U?$_List_node@U?$pair@$$CBHUentry@ui_res_catalog@utils@ext_client@@@std@@PAX@std@@@std@@@std@@QAE@XZ 10024e80 f i ui_res_catalog.cpp.obj
 0001:00023e80       ??1?$_List_node_emplace_op2@V?$allocator@U?$_List_node@U?$pair@$$CBHUentry@ui_res_catalog@utils@ext_client@@@std@@PAX@std@@@std@@@std@@QAE@XZ 10024e80 f i ui_res_catalog.cpp.obj
 0001:00023ea0       ??1?$_Alloc_construct_ptr@V?$allocator@U?$_List_node@U?$pair@$$CBV?$basic_string@DU?$char_traits@D@std@@V?$allocator@D@2@@std@@Uentry@ui_res_catalog@utils@ext_client@@@std@@PAX@std@@@std@@@std@@QAE@XZ 10024ea0 f i ui_res_catalog.cpp.obj
 0001:00023ec0       ??1?$_Hash@V?$_Umap_traits@HUentry@ui_res_catalog@utils@ext_client@@V?$_Uhash_compare@HU?$hash@H@std@@U?$equal_to@H@2@@std@@V?$allocator@U?$pair@$$CBHUentry@ui_res_catalog@utils@ext_client@@@std@@@6@$0A@@std@@@std@@QAE@XZ 10024ec0 f i ui_res_catalog.cpp.obj
 0001:00023f10       ??1?$_List_node_emplace_op2@V?$allocator@U?$_List_node@U?$pair@$$CBV?$basic_string@DU?$char_traits@D@std@@V?$allocator@D@2@@std@@Uentry@ui_res_catalog@utils@ext_client@@@std@@PAX@std@@@std@@@std@@QAE@XZ 10024f10 f i ui_res_catalog.cpp.obj
 0001:00023f40       ??1?$list@U?$pair@$$CBHUentry@ui_res_catalog@utils@ext_client@@@std@@V?$allocator@U?$pair@$$CBHUentry@ui_res_catalog@utils@ext_client@@@std@@@2@@std@@QAE@XZ 10024f40 f i ui_res_catalog.cpp.obj
 0001:00023f80       ??1?$list@U?$pair@$$CBV?$basic_string@DU?$char_traits@D@std@@V?$allocator@D@2@@std@@Uentry@ui_res_catalog@utils@ext_client@@@std@@V?$allocator@U?$pair@$$CBV?$basic_string@DU?$char_traits@D@std@@V?$allocator@D@2@@std@@Uentry@ui_res_catalog@utils@ext_client@@@std@@@2@@std@@QAE@XZ 10024f80 f i ui_res_catalog.cpp.obj
 0001:00023fa0       ??1?$unordered_map@HUentry@ui_res_catalog@utils@ext_client@@U?$hash@H@std@@U?$equal_to@H@6@V?$allocator@U?$pair@$$CBHUentry@ui_res_catalog@utils@ext_client@@@std@@@6@@std@@QAE@XZ 10024fa0 f i ui_res_catalog.cpp.obj
 0001:00023fb0       ?_Forced_rehash@?$_Hash@V?$_Umap_traits@HUentry@ui_res_catalog@utils@ext_client@@V?$_Uhash_compare@HU?$hash@H@std@@U?$equal_to@H@2@@std@@V?$allocator@U?$pair@$$CBHUentry@ui_res_catalog@utils@ext_client@@@std@@@6@$0A@@std@@@std@@IAEXI@Z 10024fb0 f i ui_res_catalog.cpp.obj
 0001:00024110       ?_Forced_rehash@?$_Hash@V?$_Umap_traits@V?$basic_string@DU?$char_traits@D@std@@V?$allocator@D@2@@std@@Uentry@ui_res_catalog@utils@ext_client@@V?$_Uhash_compare@V?$basic_string@DU?$char_traits@D@std@@V?$allocator@D@2@@std@@U?$hash@V?$basic_string@DU?$char_traits@D@std@@V?$allocator@D@2@@std@@@2@U?$equal_to@V?$basic_string@DU?$char_traits@D@std@@V?$allocator@D@2@@std@@@2@@2@V?$allocator@U?$pair@$$CBV?$basic_string@DU?$char_traits@D@std@@V?$allocator@D@2@@std@@Uentry@ui_res_catalog@utils@ext_client@@@std@@@2@$0A@@std@@@std@@IAEXI@Z 10025110 f i ui_res_catalog.cpp.obj
 0001:000242f0       ?_Unchecked_erase@?$_Hash@V?$_Umap_traits@HUentry@ui_res_catalog@utils@ext_client@@V?$_Uhash_compare@HU?$hash@H@std@@U?$equal_to@H@2@@std@@V?$allocator@U?$pair@$$CBHUentry@ui_res_catalog@utils@ext_client@@@std@@@6@$0A@@std@@@std@@AAEPAU?$_List_node@U?$pair@$$CBHUentry@ui_res_catalog@utils@ext_client@@@std@@PAX@2@PAU32@QAU32@@Z 100252f0 f i ui_res_catalog.cpp.obj
 0001:000244a0       ?_Unchecked_erase@?$_Hash@V?$_Umap_traits@V?$basic_string@DU?$char_traits@D@std@@V?$allocator@D@2@@std@@Uentry@ui_res_catalog@utils@ext_client@@V?$_Uhash_compare@V?$basic_string@DU?$char_traits@D@std@@V?$allocator@D@2@@std@@U?$hash@V?$basic_string@DU?$char_traits@D@std@@V?$allocator@D@2@@std@@@2@U?$equal_to@V?$basic_string@DU?$char_traits@D@std@@V?$allocator@D@2@@std@@@2@@2@V?$allocator@U?$pair@$$CBV?$basic_string@DU?$char_traits@D@std@@V?$allocator@D@2@@std@@Uentry@ui_res_catalog@utils@ext_client@@@std@@@2@$0A@@std@@@std@@AAEPAU?$_List_node@U?$pair@$$CBV?$basic_string@DU?$char_traits@D@std@@V?$allocator@D@2@@std@@Uentry@ui_res_catalog@utils@ext_client@@@std@@PAX@2@PAU32@QAU32@@Z 100254a0 f i ui_res_catalog.cpp.obj
 0001:00024660       ?clear@?$_Hash@V?$_Umap_traits@HUentry@ui_res_catalog@utils@ext_client@@V?$_Uhash_compare@HU?$hash@H@std@@U?$equal_to@H@2@@std@@V?$allocator@U?$pair@$$CBHUentry@ui_res_catalog@utils@ext_client@@@std@@@6@$0A@@std@@@std@@QAEXXZ 10025660 f i ui_res_catalog.cpp.obj
 0001:000246e0       ?clear@?$_Hash@V?$_Umap_traits@V?$basic_string@DU?$char_traits@D@std@@V?$allocator@D@2@@std@@Uentry@ui_res_catalog@utils@ext_client@@V?$_Uhash_compare@V?$basic_string@DU?$char_traits@D@std@@V?$allocator@D@2@@std@@U?$hash@V?$basic_string@DU?$char_traits@D@std@@V?$allocator@D@2@@std@@@2@U?$equal_to@V?$basic_string@DU?$char_traits@D@std@@V?$allocator@D@2@@std@@@2@@2@V?$allocator@U?$pair@$$CBV?$basic_string@DU?$char_traits@D@std@@V?$allocator@D@2@@std@@Uentry@ui_res_catalog@utils@ext_client@@@std@@@2@$0A@@std@@@std@@QAEXXZ 100256e0 f i ui_res_catalog.cpp.obj
 0001:00024740       ?ensure_loaded@ui_res_catalog@utils@ext_client@@YAXW4screen@123@@Z 10025740 f   ui_res_catalog.cpp.obj
 0001:00024a50       ?find@?$_Hash@V?$_Umap_traits@HUentry@ui_res_catalog@utils@ext_client@@V?$_Uhash_compare@HU?$hash@H@std@@U?$equal_to@H@2@@std@@V?$allocator@U?$pair@$$CBHUentry@ui_res_catalog@utils@ext_client@@@std@@@6@$0A@@std@@@std@@QAE?AV?$_List_iterator@V?$_List_val@U?$_List_simple_types@U?$pair@$$CBHUentry@ui_res_catalog@utils@ext_client@@@std@@@std@@@std@@@2@ABH@Z 10025a50 f i ui_res_catalog.cpp.obj
 0001:00024ac0       ?find@ui_res_catalog@utils@ext_client@@YAPBUentry@123@W4screen@123@H@Z 10025ac0 f   ui_res_catalog.cpp.obj
 0001:00024b70       ?find_by_ddj@ui_res_catalog@utils@ext_client@@YAPBUentry@123@W4screen@123@PBD@Z 10025b70 f   ui_res_catalog.cpp.obj
 0001:00024ce0       ?find_by_name@ui_res_catalog@utils@ext_client@@YAPBUentry@123@W4screen@123@PBD@Z 10025ce0 f   ui_res_catalog.cpp.obj
 0001:00025bc0       ?sync_from_game@ui_res_catalog@utils@ext_client@@YAXPAXW4screen@123@@Z 10026bc0 f   ui_res_catalog.cpp.obj
 0001:00026a90       ?hwnd@cd3d_application@@QBEPAUHWND__@@XZ 10027a90 f   cd3d_application.cpp.obj
 0001:00026aa0       ?hwnd_device@cd3d_application@@QBEPAUHWND__@@XZ 10027aa0 f   cd3d_application.cpp.obj
 0001:00026ab0       ?get@cgfx_video3d@@SAPAV1@XZ 10027ab0 f   cgfx_video3d.cpp.obj
 0001:00026ac0       ?set_size@cgfx_video3d@@QAE_NII@Z 10027ac0 f   cgfx_video3d.cpp.obj
 0001:00026ad0       ?current@cps_version_check@@SAPAV1@XZ 10027ad0 f   cps_version_check.cpp.obj
 0001:00026ae0       ?data_load_started@cps_version_check@@QBE_NXZ 10027ae0 f   cps_version_check.cpp.obj
 0001:00026af0       ?is_active@cps_version_check@@SA_NXZ 10027af0 f   cps_version_check.cpp.obj
 0001:00026b00       ?set_current@cps_version_check@@SAXPAV1@@Z 10027b00 f   cps_version_check.cpp.obj
 0001:00026b10       ?set_data_load_started@cps_version_check@@QAEX_N@Z 10027b10 f   cps_version_check.cpp.obj
 0001:00026b20       ?set_version_active@cps_version_check@@SAX_N@Z 10027b20 f   cps_version_check.cpp.obj
 0001:00026b30       ?version_error_code@cps_version_check@@SAHXZ 10027b30 f   cps_version_check.cpp.obj
 0001:00026b40       ?version_error_tag@cps_version_check@@SAHXZ 10027b40 f   cps_version_check.cpp.obj
 0001:00026b50       ?captcha_active@cps_title@@QBE_NXZ 10027b50 f   cps_title.cpp.obj
 0001:00026b60       ?channel_index@cps_title@@SAHXZ 10027b60 f   cps_title.cpp.obj
 0001:00026b70       ?current@cps_title@@SAPAV1@XZ 10027b70 f   cps_title.cpp.obj
 0001:00026b80       ?is_instance@cps_title@@SA_NPBX@Z 10027b80 f   cps_title.cpp.obj
 0001:00026c60       ?set_current@cps_title@@SAXPAV1@@Z 10027c60 f   cps_title.cpp.obj
 0001:00026c70       ?sync_current@cps_title@@SAPAV1@XZ 10027c70 f   cps_title.cpp.obj
 0001:00026d40       ?trigger_login@cps_title@@QAEHXZ 10027d40 f   cps_title.cpp.obj
 0001:00026d50       ?character_at@cps_character_select@@QBEPAUpcinfo_ui@@H@Z 10027d50 f   cps_character_select.cpp.obj
 0001:00026da0       ?current@cps_character_select@@SAPAV1@XZ 10027da0 f   cps_character_select.cpp.obj
 0001:00026db0       ?is_live@cps_character_select@@SA_NPBX@Z 10027db0 f   cps_character_select.cpp.obj
 0001:00026df0       ?selected_slot_index@cps_character_select@@SAHXZ 10027df0 f   cps_character_select.cpp.obj
 0001:00026e00       ?sync_current@cps_character_select@@SAPAV1@XZ 10027e00 f   cps_character_select.cpp.obj
 0001:00026e30       ?create_outer_wnd@cif_static@@SAPAV1@PAVcgwnd@@PAXABUcgwnd_create_rect@@HH@Z 10027e30 f   cif_static.cpp.obj
 0001:00026e40       ?refresh_layout@cif_static@@QAEHXZ 10027e40 f   cif_static.cpp.obj
 0001:00026e50       ?set_text@cif_static@@QAEDPB_W@Z 10027e50 f   cif_static.cpp.obj
 0001:00026e60       ?set_text_clip_mode@cif_static@@QAEXW4cif_text_clip_mode@@H@Z 10027e60 f   cif_static.cpp.obj
 0001:00027050       ?set_text_color@cif_static@@QAEHI@Z 10028050 f   cif_static.cpp.obj
 0001:00027060       ?set_text_fmt@cif_static@@QAEDPB_WHH@Z 10028060 f   cif_static.cpp.obj
 0001:00027080       ?set_text_fmt@cif_static@@QAEDPB_WN@Z 10028080 f   cif_static.cpp.obj
 0001:000270a0       ?set_visible@cif_static@@QAEH_N@Z 100280a0 f   cif_static.cpp.obj
 0001:000270b0       ?version_label_res@cif_static@@SAPAXXZ 100280b0 f   cif_static.cpp.obj
 0001:000270c0       ?active@calarm_entry@@QBE_NXZ 100280c0 f   calarm_entry.cpp.obj
 0001:000270d0       ?is_daily_login@calarm_entry@@QBE_NXZ 100280d0 f   calarm_entry.cpp.obj
 0001:000270e0       ?is_facebook@calarm_entry@@QBE_NXZ 100280e0 f   calarm_entry.cpp.obj
 0001:00027100       ?is_magic_lamp@calarm_entry@@QBE_NXZ 10028100 f   calarm_entry.cpp.obj
 0001:00027120       ?ref_data_ptr@calarm_entry@@QAEPAXXZ 10028120 f   calarm_entry.cpp.obj
 0001:00027130       ?set_active@calarm_entry@@QAEX_N@Z 10028130 f   calarm_entry.cpp.obj
 0001:00027140       ?set_type@calarm_entry@@QAEXH@Z 10028140 f   calarm_entry.cpp.obj
 0001:00027150       ?type@calarm_entry@@QBEHXZ 10028150 f   calarm_entry.cpp.obj
 0001:00027160       ?entry@calarm_data@@QAEPAVcalarm_entry@@I@Z 10028160 f   calarm_data.cpp.obj
 0001:00027170       ?alarm_data@calarm_store@@QAEPAVcalarm_data@@XZ 10028170 f   calarm_store.cpp.obj
 0001:00027180       ?from_interface@calarm_store@@SAPAV1@PAX@Z 10028180 f   calarm_store.cpp.obj
 0001:000271a0       ?active_targets@calarm_guide_mgr_wnd@@SA?AW4promo_target@1@XZ 100281a0 f   calarm_guide_mgr_wnd.cpp.obj
 0001:00027270       ?apply_iface_promo_hide@calarm_guide_mgr_wnd@@SAXPAVcg_interface@@W4promo_target@1@@Z 10028270 f   calarm_guide_mgr_wnd.cpp.obj
 0001:00027500       ?apply_iface_promo_show@calarm_guide_mgr_wnd@@SAXPAVcg_interface@@W4promo_target@1@@Z 10028500 f   calarm_guide_mgr_wnd.cpp.obj
 0001:000275c0       ?clear_promo_alarm_data@@YAXPAVcalarm_guide_mgr_wnd@@W4promo_target@1@@Z 100285c0 f   calarm_guide_mgr_wnd.cpp.obj
 0001:00027740       ?current@calarm_guide_mgr_wnd@@SAPAV1@XZ 10028740 f   calarm_guide_mgr_wnd.cpp.obj
 0001:000277e0       ?for_each_guide@calarm_guide_mgr_wnd@@SAXPBV1@P6AXPAVcgwnd@@PAX@Z2@Z 100287e0 f   calarm_guide_mgr_wnd.cpp.obj
 0001:00027a60       ?invalidate_cache@calarm_guide_mgr_wnd@@SAXXZ 10028a60 f   calarm_guide_mgr_wnd.cpp.obj
 0001:00027a80       ?is_attached_to_iface@calarm_guide_mgr_wnd@@SA_NPBV1@@Z 10028a80 f   calarm_guide_mgr_wnd.cpp.obj
 0001:00027ae0       ?is_instance@cif_daily_login_alarm@@SA_NPBX@Z 10028ae0 f i calarm_guide_mgr_wnd.cpp.obj
 0001:00027b10       ?is_instance@cif_facebook_link_alarm@@SA_NPBX@Z 10028b10 f i calarm_guide_mgr_wnd.cpp.obj
 0001:00027b40       ?is_instance@cif_magic_lamp_alarm@@SA_NPBX@Z 10028b40 f i calarm_guide_mgr_wnd.cpp.obj
 0001:00027ca0       ?loose_effect_widget@calarm_guide_mgr_wnd@@SAPAVcgwnd@@PBV1@I@Z 10028ca0 f   calarm_guide_mgr_wnd.cpp.obj
 0001:00027d20       ?loose_slot_widget@calarm_guide_mgr_wnd@@SAPAVcgwnd@@PBV1@I@Z 10028d20 f   calarm_guide_mgr_wnd.cpp.obj
 0001:00027d90       ?outer_screen_blocks_alarm_strip@@YA_NXZ 10028d90 f   calarm_guide_mgr_wnd.cpp.obj
 0001:00027df0       ?read_slot_debug@calarm_guide_mgr_wnd@@SAXPBV1@IAAUslot_debug_info@1@@Z 10028df0 f   calarm_guide_mgr_wnd.cpp.obj
 0001:00028090       ?refresh_slots_safe@calarm_guide_mgr_wnd@@SA_NPBV1@@Z 10029090 f   calarm_guide_mgr_wnd.cpp.obj
 0001:00028110       ?remember_mgr@@YAPAVcalarm_guide_mgr_wnd@@PAV1@@Z 10029110 f   calarm_guide_mgr_wnd.cpp.obj
 0001:00028180       ?remove_guide@calarm_guide_mgr_wnd@@QAEHH@Z 10029180 f   calarm_guide_mgr_wnd.cpp.obj
 0001:00028350       ?resolve@calarm_guide_mgr_wnd@@SAPAV1@XZ 10029350 f   calarm_guide_mgr_wnd.cpp.obj
 0001:00028e60       ?diagnose@cnif_sro_ingame_start@@SA?AUsurvey_resolve_diag@@PAVcg_interface@@@Z 10029e60 f   cnif_sro_ingame_start.cpp.obj
 0001:00028f70       ?find_live@cnif_sro_ingame_start@@SA?AUcnif_sro_ingame_start_live@@PAVcg_interface@@@Z 10029f70 f   cnif_sro_ingame_start.cpp.obj
 0001:00029110       ?hide_start_panel@cnif_sro_ingame_start@@QAEXXZ 1002a110 f   cnif_sro_ingame_start.cpp.obj
 0001:00029150       ?hide_survey_button@cnif_sro_ingame_start@@SAXPAVcg_interface@@@Z 1002a150 f   cnif_sro_ingame_start.cpp.obj
 0001:000291c0       ?is_instance@cnif_sro_ingame_start@@SA_NPBX@Z 1002a1c0 f   cnif_sro_ingame_start.cpp.obj
 0001:00029200       ?resolve_start@cnif_sro_ingame_start@@SAPAV1@PAVcg_interface@@@Z 1002a200 f   cnif_sro_ingame_start.cpp.obj
 0001:000292a0       ?show_survey_button@cnif_sro_ingame_start@@SAXPAVcg_interface@@@Z 1002a2a0 f   cnif_sro_ingame_start.cpp.obj
 0001:000293d0       ?alarm_guide_mgr@cg_interface@@QAEPAVcalarm_guide_mgr_wnd@@XZ 1002a3d0 f   cg_interface.cpp.obj
 0001:000293e0       ?alarm_guide_mgr_popup@cg_interface@@QBEPAXXZ 1002a3e0 f   cg_interface.cpp.obj
 0001:00029430       ?alarm_store@cg_interface@@QAEPAVcalarm_store@@XZ 1002a430 f   cg_interface.cpp.obj
 0001:00029440       ?get@cg_interface@@SAPAV1@XZ 1002a440 f   cg_interface.cpp.obj
 0001:00029460       ?get_ui_child@cg_interface@@QAEPAXH_N@Z 1002a460 f   cg_interface.cpp.obj
 0001:00029470       ?is_ingame_hud_ready@cg_interface@@SA_NXZ 1002a470 f   cg_interface.cpp.obj
 0001:000294d0       ?is_instance@cg_interface@@SA_NPBX@Z 1002a4d0 f   cg_interface.cpp.obj
 0001:00029510       ?is_ready@cg_interface@@SA_NXZ 1002a510 f   cg_interface.cpp.obj
 0001:00029540       ?known_child_id@cg_interface@@SAHI@Z 1002a540 f   cg_interface.cpp.obj
 0001:00029560       ?known_child_id_count@cg_interface@@SAIXZ 1002a560 f   cg_interface.cpp.obj
 0001:00029570       ?show_daily_login_guide@cg_interface@@QAEI_N@Z 1002a570 f   cg_interface.cpp.obj
 0001:00029580       ?show_facebook_guide@cg_interface@@QAEI_N@Z 1002a580 f   cg_interface.cpp.obj
 0001:00029590       ?show_macro_guide@cg_interface@@QAEI_N@Z 1002a590 f   cg_interface.cpp.obj
 0001:000295a0       ?show_magic_lamp_guide@cg_interface@@QAEI_N@Z 1002a5a0 f   cg_interface.cpp.obj
 0001:000295b0       ?show_web_item_alarm_guide@cg_interface@@QAEI_N@Z 1002a5b0 f   cg_interface.cpp.obj
 0001:000295c0       ?ui_res_map@cg_interface@@QAEPAXXZ 1002a5c0 f   cg_interface.cpp.obj
 0001:000295c0       ?ui_res_map@cg_interface@@QBEPBXXZ 1002a5c0 f   cg_interface.cpp.obj
 0001:000295d0       ?cell_limit@sworld@@QBEHXZ 1002a5d0 f   sworld.cpp.obj
 0001:000295e0       ?instance@sworld@@SAPAV1@XZ 1002a5e0 f   sworld.cpp.obj
 0001:00029600       ?is_instance@sworld@@SA_NXZ 1002a600 f   sworld.cpp.obj
 0001:00029640       ?option@sworld@@QBEHI@Z    1002a640 f   sworld.cpp.obj
 0001:00029660       ?set_cell_limit@sworld@@QAEXH@Z 1002a660 f   sworld.cpp.obj
 0001:00029670       ?set_sight_range@sworld@@QAEXM@Z 1002a670 f   sworld.cpp.obj
 0001:00029680       ?sight_range@sworld@@QBEMXZ 1002a680 f   sworld.cpp.obj
 0001:00029690       ?from_ptr@cic_deco_character@@SAPAV1@PAX@Z 1002a690 f   cic_deco_character.cpp.obj
 0001:000296c0       ?play_animation@cic_deco_character@@QAE_NHHHHMM@Z 1002a6c0 f   cic_deco_character.cpp.obj
 0001:00029740       ?client_data_version@cgwnd@@SAIXZ 1002a740 f   cgwnd.cpp.obj
 0001:00029760       ?get_bounds@cgwnd@@QBE?AUcgwnd_bounds@@XZ 1002a760 f   cgwnd.cpp.obj
 0001:00029780       ?interface_under_cursor@cgwnd@@SAPAV1@XZ 1002a780 f   cgwnd.cpp.obj
 0001:000297d0       ?screen_height@cgwnd@@SAHXZ 1002a7d0 f   cgwnd.cpp.obj
 0001:000297e0       ?set_anim@cgwnd@@QAEXHMMH@Z 1002a7e0 f   cgwnd.cpp.obj
 0001:00029810       ?set_position@cgwnd@@QAEHHH@Z 1002a810 f   cgwnd.cpp.obj
 0001:00029820       ?set_position@cgwnd@@SAHPAV1@HH@Z 1002a820 f   cgwnd.cpp.obj
 0001:00029840       ?set_size@cgwnd@@QAEHHH@Z  1002a840 f   cgwnd.cpp.obj
 0001:00029850       ?set_size@cgwnd@@SAHPAV1@HH@Z 1002a850 f   cgwnd.cpp.obj
 0001:00029870       ?set_visible@cgwnd@@QAEH_N@Z 1002a870 f   cgwnd.cpp.obj
 0001:000298c0       ?set_visible@cgwnd@@SAHPAV1@_N@Z 1002a8c0 f   cgwnd.cpp.obj
 0001:00029910       ?as_gwnd@hierarchy@sdk@ext_client@@YAPAVcgwnd@@PAUcps_outer_interface@@@Z 1002a910 f   sro_hierarchy.cpp.obj
 0001:00029920       ?active_child@process_manager@utils@ext_client@@YAPAXXZ 1002a920 f   process_manager.cpp.obj
 0001:00029960       ?active_child_vftable@process_manager@utils@ext_client@@YAIXZ 1002a960 f   process_manager.cpp.obj
 0001:000299d0       ?note_set_child_process@process_manager@utils@ext_client@@YAXPAXH@Z 1002a9d0 f   process_manager.cpp.obj
 0001:00029a30       ?resolved_active_child@process_manager@utils@ext_client@@YAPAXXZ 1002aa30 f   process_manager.cpp.obj
 0001:00029ad0       ?current_exe_name@process@utils@ext_client@@YA?AV?$basic_string@DU?$char_traits@D@std@@V?$allocator@D@2@@std@@XZ 1002aad0 f   process.cpp.obj
 0001:00029df0       ?exe_directory@process@utils@ext_client@@YA_NPADI@Z 1002adf0 f   process.cpp.obj
 0001:00029e40       ?is_current_process@process@utils@ext_client@@YA_NPBD@Z 1002ae40 f   process.cpp.obj
 0001:00029f50       ??0?$basic_string@_WU?$char_traits@_W@std@@V?$allocator@_W@2@@std@@QAE@$$QAV01@@Z 1002af50 f i string.cpp.obj
 0001:00029fb0       ??0?$basic_string@_WU?$char_traits@_W@std@@V?$allocator@_W@2@@std@@QAE@I_W@Z 1002afb0 f i string.cpp.obj
 0001:0002a0a0       ?basename@string@utils@ext_client@@YA?AV?$basic_string_view@DU?$char_traits@D@std@@@std@@V45@@Z 1002b0a0 f   string.cpp.obj
 0001:0002a190       ?paths_match@string@utils@ext_client@@YA_NV?$basic_string_view@DU?$char_traits@D@std@@@std@@0@Z 1002b190 f   string.cpp.obj
 0001:0002a200       ?to_utf8@string@utils@ext_client@@YA?AV?$basic_string@DU?$char_traits@D@std@@V?$allocator@D@2@@std@@V?$basic_string_view@_WU?$char_traits@_W@std@@@5@@Z 1002b200 f   string.cpp.obj
 0001:0002a300       ?to_wide@string@utils@ext_client@@YA?AV?$basic_string@_WU?$char_traits@_W@std@@V?$allocator@_W@2@@std@@V?$basic_string_view@DU?$char_traits@D@std@@@5@@Z 1002b300 f   string.cpp.obj
 0001:0002a3f0       ?trim@string@utils@ext_client@@YA?AV?$basic_string_view@DU?$char_traits@D@std@@@std@@V45@@Z 1002b3f0 f   string.cpp.obj
 0001:0002a600       ??0ImDrawList@@QAE@PAUImDrawListSharedData@@@Z 1002b600 f i imgui.cpp.obj
 0001:0002a6b0       ??0ImGuiContext@@QAE@PAUImFontAtlas@@@Z 1002b6b0 f i imgui.cpp.obj
 0001:0002b780       ??0ImGuiIO@@QAE@XZ         1002c780 f   imgui.cpp.obj
 0001:0002b990       ??0ImGuiListClipper@@QAE@XZ 1002c990 f   imgui.cpp.obj
 0001:0002b9b0       ??0ImGuiStyle@@QAE@XZ      1002c9b0 f   imgui.cpp.obj
 0001:0002bca0       ??0ImGuiWindow@@QAE@PAUImGuiContext@@PBD@Z 1002cca0 f   imgui.cpp.obj
 0001:0002c2b0       ??1?$ImChunkStream@UImGuiTableSettings@@@@QAE@XZ 1002d2b0 f i imgui.cpp.obj
 0001:0002c2b0       ??1?$ImChunkStream@UImGuiWindowSettings@@@@QAE@XZ 1002d2b0 f i imgui.cpp.obj
 0001:0002c2b0       ??1ImGuiStorage@@QAE@XZ    1002d2b0 f i imgui.cpp.obj
 0001:0002c2b0       ??1ImGuiTextBuffer@@QAE@XZ 1002d2b0 f i imgui.cpp.obj
 0001:0002c2b0       ??1ImGuiTextIndex@@QAE@XZ  1002d2b0 f i imgui.cpp.obj
 0001:0002c300       ??1?$ImPool@UImGuiTabBar@@@@QAE@XZ 1002d300 f i imgui.cpp.obj
 0001:0002c370       ??1?$ImPool@UImGuiTable@@@@QAE@XZ 1002d370 f i imgui.cpp.obj
 0001:0002c3e0       ??1?$ImVector@D@@QAE@XZ    1002d3e0 f i imgui.cpp.obj
 0001:0002c3e0       ??1?$ImVector@E@@QAE@XZ    1002d3e0 f i imgui.cpp.obj
 0001:0002c3e0       ??1?$ImVector@G@@QAE@XZ    1002d3e0 f i imgui.cpp.obj
 0001:0002c3e0       ??1?$ImVector@H@@QAE@XZ    1002d3e0 f i imgui.cpp.obj
 0001:0002c3e0       ??1?$ImVector@I@@QAE@XZ    1002d3e0 f i imgui.cpp.obj
 0001:0002c3e0       ??1?$ImVector@M@@QAE@XZ    1002d3e0 f i imgui.cpp.obj
 0001:0002c3e0       ??1?$ImVector@PAUImDrawList@@@@QAE@XZ 1002d3e0 f i imgui.cpp.obj
 0001:0002c3e0       ??1?$ImVector@PAUImFont@@@@QAE@XZ 1002d3e0 f i imgui.cpp.obj
 0001:0002c3e0       ??1?$ImVector@PAUImGuiViewportP@@@@QAE@XZ 1002d3e0 f i imgui.cpp.obj
 0001:0002c3e0       ??1?$ImVector@PAUImGuiWindow@@@@QAE@XZ 1002d3e0 f i imgui.cpp.obj
 0001:0002c3e0       ??1?$ImVector@UImDrawChannel@@@@QAE@XZ 1002d3e0 f i imgui.cpp.obj
 0001:0002c3e0       ??1?$ImVector@UImFontAtlasCustomRect@@@@QAE@XZ 1002d3e0 f i imgui_draw.cpp.obj
 0001:0002c3e0       ??1?$ImVector@UImFontBuildDstData@@@@QAE@XZ 1002d3e0 f i imgui_draw.cpp.obj
 0001:0002c3e0       ??1?$ImVector@UImFontBuildSrcData@@@@QAE@XZ 1002d3e0 f i imgui_draw.cpp.obj
 0001:0002c3e0       ??1?$ImVector@UImFontConfig@@@@QAE@XZ 1002d3e0 f i imgui_draw.cpp.obj
 0001:0002c3e0       ??1?$ImVector@UImGuiColorMod@@@@QAE@XZ 1002d3e0 f i imgui.cpp.obj
 0001:0002c3e0       ??1?$ImVector@UImGuiContextHook@@@@QAE@XZ 1002d3e0 f i imgui.cpp.obj
 0001:0002c3e0       ??1?$ImVector@UImGuiFocusScopeData@@@@QAE@XZ 1002d3e0 f i imgui.cpp.obj
 0001:0002c3e0       ??1?$ImVector@UImGuiGroupData@@@@QAE@XZ 1002d3e0 f i imgui.cpp.obj
 0001:0002c3e0       ??1?$ImVector@UImGuiInputEvent@@@@QAE@XZ 1002d3e0 f i imgui.cpp.obj
 0001:0002c3e0       ??1?$ImVector@UImGuiKeyRoutingData@@@@QAE@XZ 1002d3e0 f i imgui.cpp.obj
 0001:0002c3e0       ??1?$ImVector@UImGuiListClipperData@@@@QAE@XZ 1002d3e0 f i imgui.cpp.obj
 0001:0002c3e0       ??1?$ImVector@UImGuiNavTreeNodeData@@@@QAE@XZ 1002d3e0 f i imgui.cpp.obj
 0001:0002c3e0       ??1?$ImVector@UImGuiOldColumns@@@@QAE@XZ 1002d3e0 f i imgui.cpp.obj
 0001:0002c3e0       ??1?$ImVector@UImGuiPopupData@@@@QAE@XZ 1002d3e0 f i imgui.cpp.obj
 0001:0002c3e0       ??1?$ImVector@UImGuiPtrOrIndex@@@@QAE@XZ 1002d3e0 f i imgui.cpp.obj
 0001:0002c3e0       ??1?$ImVector@UImGuiSettingsHandler@@@@QAE@XZ 1002d3e0 f i imgui.cpp.obj
 0001:0002c3e0       ??1?$ImVector@UImGuiShrinkWidthItem@@@@QAE@XZ 1002d3e0 f i imgui.cpp.obj
 0001:0002c3e0       ??1?$ImVector@UImGuiStyleMod@@@@QAE@XZ 1002d3e0 f i imgui.cpp.obj
 0001:0002c3e0       ??1?$ImVector@UImGuiTableTempData@@@@QAE@XZ 1002d3e0 f i imgui.cpp.obj
 0001:0002c3e0       ??1?$ImVector@UImGuiWindowStackData@@@@QAE@XZ 1002d3e0 f i imgui.cpp.obj
 0001:0002c3e0       ??1?$ImVector@UImVec2@@@@QAE@XZ 1002d3e0 f i imgui.cpp.obj
 0001:0002c3e0       ??1?$ImVector@Ustbrp_rect@@@@QAE@XZ 1002d3e0 f i imgui_draw.cpp.obj
 0001:0002c3e0       ??1?$ImVector@Ustbtt_packedchar@@@@QAE@XZ 1002d3e0 f i imgui_draw.cpp.obj
 0001:0002c3e0       ??1?$ImVector@_W@@QAE@XZ   1002d3e0 f i imgui.cpp.obj
 0001:0002c430       ??1ImDrawList@@QAE@XZ      1002d430 f i imgui.cpp.obj
 0001:0002c530       ??1ImDrawListSharedData@@QAE@XZ 1002d530 f i imgui.cpp.obj
 0001:0002c580       ??1ImGuiContext@@QAE@XZ    1002d580 f i imgui.cpp.obj
 0001:0002cae0       ??1ImGuiIDStackTool@@QAE@XZ 1002dae0 f i imgui.cpp.obj
 0001:0002cb30       ??1ImGuiIO@@QAE@XZ         1002db30 f i imgui.cpp.obj
 0001:0002cb80       ??1ImGuiInputTextDeactivatedState@@QAE@XZ 1002db80 f i imgui.cpp.obj
 0001:0002cbd0       ??1ImGuiInputTextState@@QAE@XZ 1002dbd0 f i imgui.cpp.obj
 0001:0002cc50       ??1ImGuiKeyRoutingTable@@QAE@XZ 1002dc50 f i imgui.cpp.obj
 0001:0002ccc0       ??1ImGuiListClipper@@QAE@XZ 1002dcc0 f   imgui.cpp.obj
 0001:0002cd00       ??1ImGuiListClipperData@@QAE@XZ 1002dd00 f i imgui.cpp.obj
 0001:0002cd50       ??1ImGuiTableTempData@@QAE@XZ 1002dd50 f i imgui.cpp.obj
 0001:0002cdd0       ??1ImGuiWindow@@QAE@XZ     1002ddd0 f   imgui.cpp.obj
 0001:0002cfe0       ??1ImGuiWindowTempData@@QAE@XZ 1002dfe0 f i imgui.cpp.obj
 0001:0002d070       ?AcceptDragDropPayload@ImGui@@YAPBUImGuiPayload@@PBDH@Z 1002e070 f   imgui.cpp.obj
 0001:0002d3e0       ?Add@ImRect@@QAEXABU1@@Z   1002e3e0 f i imgui.cpp.obj
 0001:0002d470       ?AddFocusEvent@ImGuiIO@@QAEX_N@Z 1002e470 f   imgui.cpp.obj
 0001:0002d520       ?AddInputCharacter@ImGuiIO@@QAEXI@Z 1002e520 f   imgui.cpp.obj
 0001:0002d590       ?AddInputCharacterUTF16@ImGuiIO@@QAEXG@Z 1002e590 f   imgui.cpp.obj
 0001:0002d630       ?AddKeyAnalogEvent@ImGuiIO@@QAEXW4ImGuiKey@@_NM@Z 1002e630 f   imgui.cpp.obj
 0001:0002d830       ?AddKeyEvent@ImGuiIO@@QAEXW4ImGuiKey@@_N@Z 1002e830 f   imgui.cpp.obj
 0001:0002d860       ?AddMouseButtonEvent@ImGuiIO@@QAEXH_N@Z 1002e860 f   imgui.cpp.obj
 0001:0002d9d0       ?AddMousePosEvent@ImGuiIO@@QAEXMM@Z 1002e9d0 f   imgui.cpp.obj
 0001:0002db30       ?AddMouseSourceEvent@ImGuiIO@@QAEXW4ImGuiMouseSource@@@Z 1002eb30 f   imgui.cpp.obj
 0001:0002db50       ?AddMouseWheelEvent@ImGuiIO@@QAEXMM@Z 1002eb50 f   imgui.cpp.obj
 0001:0002dbe0       ?AddSettingsHandler@ImGui@@YAXPBUImGuiSettingsHandler@@@Z 1002ebe0 f   imgui.cpp.obj
 0001:0002dec0       ?Begin@ImGui@@YA_NPBDPA_NH@Z 1002eec0 f   imgui.cpp.obj
 0001:00030c50       ?Begin@ImGuiListClipper@@QAEXHM@Z 10031c50 f   imgui.cpp.obj
 0001:00030ed0       ?BeginChild@ImGui@@YA_NPBDABUImVec2@@HH@Z 10031ed0 f   imgui.cpp.obj
 0001:00030f40       ?BeginChildEx@ImGui@@YA_NPBDIABUImVec2@@HH@Z 10031f40 f   imgui.cpp.obj
 0001:000313b0       ?BeginDisabled@ImGui@@YAX_N@Z 100323b0 f   imgui.cpp.obj
 0001:00031460       ?BeginDragDropSource@ImGui@@YA_NH@Z 10032460 f   imgui.cpp.obj
 0001:00031740       ?BeginDragDropTarget@ImGui@@YA_NXZ 10032740 f   imgui.cpp.obj
 0001:00031850       ?BeginGroup@ImGui@@YAXXZ   10032850 f   imgui.cpp.obj
 0001:000319b0       ?BeginPopup@ImGui@@YA_NPBDH@Z 100329b0 f   imgui.cpp.obj
 0001:00031a30       ?BeginPopupEx@ImGui@@YA_NIH@Z 10032a30 f   imgui.cpp.obj
 0001:00031af0       ?BeginTooltipEx@ImGui@@YA_NHH@Z 10032af0 f   imgui.cpp.obj
 0001:00031cb0       ?CalcFontSize@ImGuiWindow@@QBEMXZ 10032cb0 f i imgui.cpp.obj
 0001:00031ce0       ?CalcItemSize@ImGui@@YA?AUImVec2@@U2@MM@Z 10032ce0 f   imgui.cpp.obj
 0001:00031e40       ?CalcItemWidth@ImGui@@YAMXZ 10032e40 f   imgui.cpp.obj
 0001:00032230       ?CalcTextSize@ImGui@@YA?AUImVec2@@PBD0_NM@Z 10033230 f   imgui.cpp.obj
 0001:00032300       ?CalcTypematicRepeatAmount@ImGui@@YAHMMMM@Z 10033300 f   imgui.cpp.obj
 0001:000328b0       ?CalcWindowNextAutoFitSize@ImGui@@YA?AUImVec2@@PAUImGuiWindow@@@Z 100338b0 f   imgui.cpp.obj
 0001:00032aa0       ?CalcWrapWidthForPos@ImGui@@YAMABUImVec2@@M@Z 10033aa0 f   imgui.cpp.obj
 0001:00032b80       ?Clear@?$ImPool@UImGuiTabBar@@@@QAEXXZ 10033b80 f i imgui.cpp.obj
 0001:00032c80       ?Clear@?$ImPool@UImGuiTable@@@@QAEXXZ 10033c80 f i imgui.cpp.obj
 0001:00032e20       ?Clear@ImGuiKeyRoutingTable@@QAEXXZ 10033e20 f i imgui.cpp.obj
 0001:00032ea0       ?ClearActiveID@ImGui@@YAXXZ 10033ea0 f   imgui.cpp.obj
 0001:00032eb0       ?ClearDragDrop@ImGui@@YAXXZ 10033eb0 f   imgui.cpp.obj
 0001:00032fd0       ?ClearEventsQueue@ImGuiIO@@QAEXXZ 10033fd0 f   imgui.cpp.obj
 0001:00033010       ?ClearInputKeys@ImGuiIO@@QAEXXZ 10034010 f   imgui.cpp.obj
 0001:000330b0       ?ClearInputMouse@ImGuiIO@@QAEXXZ 100340b0 f   imgui.cpp.obj
 0001:000331a0       ?ClipWith@ImRect@@QAEXABU1@@Z 100341a0 f i imgui.cpp.obj
 0001:000331f0       ?ClipWithFull@ImRect@@QAEXABU1@@Z 100341f0 f i imgui.cpp.obj
 0001:00033240       ?CloseCurrentPopup@ImGui@@YAXXZ 10034240 f   imgui.cpp.obj
 0001:000332f0       ?ClosePopupToLevel@ImGui@@YAXH_N@Z 100342f0 f   imgui.cpp.obj
 0001:000333e0       ?ClosePopupsOverWindow@ImGui@@YAXPAUImGuiWindow@@_N@Z 100343e0 f   imgui.cpp.obj
 0001:000334c0       ?ColorConvertFloat4ToU32@ImGui@@YAIABUImVec4@@@Z 100344c0 f   imgui.cpp.obj
 0001:000335f0       ?ColorConvertHSVtoRGB@ImGui@@YAXMMMAAM00@Z 100345f0 f   imgui.cpp.obj
 0001:00033770       ?ColorConvertRGBtoHSV@ImGui@@YAXMMMAAM00@Z 10034770 f   imgui.cpp.obj
 0001:00033860       ?ColorConvertU32ToFloat4@ImGui@@YA?AUImVec4@@I@Z 10034860 f   imgui.cpp.obj
 0001:00033910       ?Contains@ImRect@@QBE_NABU1@@Z 10034910 f i imgui.cpp.obj
 0001:00033960       ?Contains@ImRect@@QBE_NABUImVec2@@@Z 10034960 f i imgui.cpp.obj
 0001:000339b0       ?ContainsWithPad@ImRect@@QBE_NABUImVec2@@0@Z 100349b0 f i imgui.cpp.obj
 0001:00033a20       ?ConvertSingleModFlagToKey@ImGui@@YA?AW4ImGuiKey@@W42@@Z 10034a20 f i imgui.cpp.obj
 0001:00033a60       ?CreateContext@ImGui@@YAPAUImGuiContext@@PAUImFontAtlas@@@Z 10034a60 f   imgui.cpp.obj
 0001:00033d70       ?CreateNewWindowSettings@ImGui@@YAPAUImGuiWindowSettings@@PBD@Z 10034d70 f   imgui.cpp.obj
 0001:00033e50       ?DebugAllocHook@ImGui@@YAXPAUImGuiDebugAllocInfo@@HPAXI@Z 10034e50 f   imgui.cpp.obj
 0001:00033eb0       ?DebugCheckVersionAndDataLayout@ImGui@@YA_NPBDIIIIII@Z 10034eb0 f   imgui.cpp.obj
 0001:00033f90       ?DebugHookIdInfo@ImGui@@YAXIHPBX0@Z 10034f90 f   imgui.cpp.obj
 0001:00034170       ?DebugLocateItemResolveWithLastItem@ImGui@@YAXXZ 10035170 f   imgui.cpp.obj
 0001:00034310       ?DebugLog@ImGui@@YAXPBDZZ  10035310 f   imgui.cpp.obj
 0001:00034330       ?DebugLogV@ImGui@@YAXPBDPAD@Z 10035330 f   imgui.cpp.obj
 0001:00034700       ?DestroyContext@ImGui@@YAXPAUImGuiContext@@@Z 10035700 f   imgui.cpp.obj
 0001:00034750       ?End@ImGui@@YAXXZ          10035750 f   imgui.cpp.obj
 0001:00034a30       ?End@ImGuiListClipper@@QAEXXZ 10035a30 f   imgui.cpp.obj
 0001:00034ac0       ?EndChild@ImGui@@YAXXZ     10035ac0 f   imgui.cpp.obj
 0001:00034c80       ?EndDisabled@ImGui@@YAXXZ  10035c80 f   imgui.cpp.obj
 0001:00034cd0       ?EndDragDropSource@ImGui@@YAXXZ 10035cd0 f   imgui.cpp.obj
 0001:00034d00       ?EndDragDropTarget@ImGui@@YAXXZ 10035d00 f   imgui.cpp.obj
 0001:00034d20       ?EndFrame@ImGui@@YAXXZ     10035d20 f   imgui.cpp.obj
 0001:00035090       ?EndGroup@ImGui@@YAXXZ     10036090 f   imgui.cpp.obj
 0001:00035370       ?EndPopup@ImGui@@YAXXZ     10036370 f   imgui.cpp.obj
 0001:000353d0       ?EndTooltip@ImGui@@YAXXZ   100363d0 f   imgui.cpp.obj
 0001:000353e0       ?ErrorCheckUsingSetCursorPosToExtendParentBoundaries@ImGui@@YAXXZ 100363e0 f   imgui.cpp.obj
 0001:00035420       ?FindBestWindowPosForPopup@ImGui@@YA?AUImVec2@@PAUImGuiWindow@@@Z 10036420 f   imgui.cpp.obj
 0001:00035730       ?FindBestWindowPosForPopupEx@ImGui@@YA?AUImVec2@@ABU2@0PAW4ImGuiDir@@ABUImRect@@2W4ImGuiPopupPositionPolicy@@@Z 10036730 f   imgui.cpp.obj
 0001:00035ca0       ?FindHoveredWindowEx@ImGui@@YAXABUImVec2@@_NPAPAUImGuiWindow@@2@Z 10036ca0 f   imgui.cpp.obj
 0001:00035f30       ?FindRenderedTextEnd@ImGui@@YAPBDPBD0@Z 10036f30 f   imgui.cpp.obj
 0001:00035f60       ?FindWindowByName@ImGui@@YAPAUImGuiWindow@@PBD@Z 10036f60 f   imgui.cpp.obj
 0001:00036020       ?FindWindowSettingsByID@ImGui@@YAPAUImGuiWindowSettings@@I@Z 10037020 f   imgui.cpp.obj
 0001:000361e0       ?FocusTopMostWindowUnderOne@ImGui@@YAXPAUImGuiWindow@@0PAUImGuiViewport@@H@Z 100371e0 f   imgui.cpp.obj
 0001:00036280       ?FocusWindow@ImGui@@YAXPAUImGuiWindow@@H@Z 10037280 f   imgui.cpp.obj
 0001:00036600       ?FromPositions@ImGuiListClipperRange@@SA?AU1@MMHH@Z 10037600 f i imgui.cpp.obj
 0001:00036640       ?GetClipboardText@ImGui@@YAPBDXZ 10037640 f   imgui.cpp.obj
 0001:00036750       ?GetColorU32@ImGui@@YAIABUImVec4@@@Z 10037750 f   imgui.cpp.obj
 0001:000367a0       ?GetColorU32@ImGui@@YAIHM@Z 100377a0 f   imgui.cpp.obj
 0001:00036800       ?GetColorU32@ImGui@@YAIIM@Z 10037800 f   imgui.cpp.obj
 0001:00036870       ?GetContentRegionAvail@ImGui@@YA?AUImVec2@@XZ 10037870 f   imgui.cpp.obj
 0001:000368d0       ?GetCurrentContext@ImGui@@YAPAUImGuiContext@@XZ 100378d0 f   imgui.cpp.obj
 0001:000368e0       ?GetCursorScreenPos@ImGui@@YA?AUImVec2@@XZ 100378e0 f   imgui.cpp.obj
 0001:00036910       ?GetDrawData@ImGui@@YAPAUImDrawData@@XZ 10037910 f   imgui.cpp.obj
 0001:00036930       ?GetFontTexUvWhitePixel@ImGui@@YA?AUImVec2@@XZ 10037930 f   imgui.cpp.obj
 0001:00036950       ?GetForegroundDrawList@ImGui@@YAPAUImDrawList@@XZ 10037950 f   imgui.cpp.obj
 0001:00036970       ?GetFrameHeight@ImGui@@YAMXZ 10037970 f   imgui.cpp.obj
 0001:00036990       ?GetID@ImGui@@YAIPBD@Z     10037990 f   imgui.cpp.obj
 0001:000369e0       ?GetID@ImGuiWindow@@QAEIH@Z 100379e0 f   imgui.cpp.obj
 0001:00036a40       ?GetID@ImGuiWindow@@QAEIPBD0@Z 10037a40 f   imgui.cpp.obj
 0001:00036aa0       ?GetID@ImGuiWindow@@QAEIPBX@Z 10037aa0 f   imgui.cpp.obj
 0001:00036b00       ?GetIDFromRectangle@ImGuiWindow@@QAEIABUImRect@@@Z 10037b00 f   imgui.cpp.obj
 0001:00036b90       ?GetIDWithSeed@ImGui@@YAIHI@Z 10037b90 f   imgui.cpp.obj
 0001:00036be0       ?GetIDWithSeed@ImGui@@YAIPBD0I@Z 10037be0 f   imgui.cpp.obj
 0001:00036c30       ?GetIO@ImGui@@YAAAUImGuiIO@@XZ 10037c30 f   imgui.cpp.obj
 0001:00036c40       ?GetInt@ImGuiStorage@@QBEHIH@Z 10037c40 f   imgui.cpp.obj
 0001:00036c80       ?GetIntRef@ImGuiStorage@@QAEPAHIH@Z 10037c80 f   imgui.cpp.obj
 0001:00036ce0       ?GetKeyChordName@ImGui@@YAPBDH@Z 10037ce0 f   imgui.cpp.obj
 0001:00036dd0       ?GetKeyData@ImGui@@YAPAUImGuiKeyData@@PAUImGuiContext@@W4ImGuiKey@@@Z 10037dd0 f   imgui.cpp.obj
 0001:00036e40       ?GetKeyMagnitude2d@ImGui@@YA?AUImVec2@@W4ImGuiKey@@000@Z 10037e40 f   imgui.cpp.obj
 0001:00036eb0       ?GetKeyName@ImGui@@YAPBDW4ImGuiKey@@@Z 10037eb0 f   imgui.cpp.obj
 0001:00036f10       ?GetKeyOwnerData@ImGui@@YAPAUImGuiKeyOwnerData@@PAUImGuiContext@@W4ImGuiKey@@@Z 10037f10 f i imgui.cpp.obj
 0001:00036f90       ?GetKeyPressedAmount@ImGui@@YAHW4ImGuiKey@@MM@Z 10037f90 f   imgui.cpp.obj
 0001:00036ff0       ?GetMainViewport@ImGui@@YAPAUImGuiViewport@@XZ 10037ff0 f   imgui.cpp.obj
 0001:00037070       ?GetMouseCursor@ImGui@@YAHXZ 10038070 f   imgui.cpp.obj
 0001:00037080       ?GetMousePos@ImGui@@YA?AUImVec2@@XZ 10038080 f   imgui.cpp.obj
 0001:000370a0       ?GetNavTweakPressedAmount@ImGui@@YAMW4ImGuiAxis@@@Z 100380a0 f   imgui.cpp.obj
 0001:000371b0       ?GetPopupAllowedExtentRect@ImGui@@YA?AUImRect@@PAUImGuiWindow@@@Z 100381b0 f   imgui.cpp.obj
 0001:000373c0       ?GetScrollMaxY@ImGui@@YAMXZ 100383c0 f   imgui.cpp.obj
 0001:000373e0       ?GetShortcutRoutingData@ImGui@@YAPAUImGuiKeyRoutingData@@H@Z 100383e0 f   imgui.cpp.obj
 0001:000374d0       ?GetStyle@ImGui@@YAAAUImGuiStyle@@XZ 100384d0 f   imgui.cpp.obj
 0001:000374e0       ?GetTextLineHeight@ImGui@@YAMXZ 100384e0 f   imgui.cpp.obj
 0001:000374f0       ?GetTopMostPopupModal@ImGui@@YAPAUImGuiWindow@@XZ 100384f0 f   imgui.cpp.obj
 0001:00037530       ?GetTypematicRepeatRate@ImGui@@YAXHPAM0@Z 10038530 f   imgui.cpp.obj
 0001:000376c0       ?ImAlphaBlendColors@@YAIII@Z 100386c0 f   imgui.cpp.obj
 0001:00037880       ?ImFileOpen@@YAPAU_iobuf@@PBD0@Z 10038880 f   imgui.cpp.obj
 0001:00037a90       ?ImFormatString@@YAHPADIPBDZZ 10038a90 f   imgui.cpp.obj
 0001:00037ae0       ?ImFormatStringToTempBuffer@@YAXPAPBD0PBDZZ 10038ae0 f   imgui.cpp.obj
 0001:00037bf0       ?ImFormatStringToTempBufferV@@YAXPAPBD0PBDPAD@Z 10038bf0 f   imgui.cpp.obj
 0001:00038570       ?ImHashStr@@YAIPBDII@Z     10039570 f   imgui.cpp.obj
 0001:00038640       ?ImLineClosestPoint@@YA?AUImVec2@@ABU1@00@Z 10039640 f   imgui.cpp.obj
 0001:00038730       ?ImLowerBound@@YAPAUImGuiStoragePair@@PAU1@0I@Z 10039730 f   imgui.cpp.obj
 0001:000388b0       ?ImStrSkipBlank@@YAPBDPBD@Z 100398b0 f   imgui.cpp.obj
 0001:000388d0       ?ImStrTrimBlanks@@YAXPAD@Z 100398d0 f   imgui.cpp.obj
 0001:00038930       ?ImStrbolW@@YAPBGPBG0@Z    10039930 f   imgui.cpp.obj
 0001:00038950       ?ImStrncpy@@YAXPADPBDI@Z   10039950 f   imgui.cpp.obj
 0001:00038980       ?ImTextCharFromUtf8@@YAHPAIPBD1@Z 10039980 f   imgui.cpp.obj
 0001:00038af0       ?ImTextCountCharsFromUtf8@@YAHPBD0@Z 10039af0 f   imgui.cpp.obj
 0001:00038c70       ?ImTextCountUtf8BytesFromStr@@YAHPBG0@Z 10039c70 f   imgui.cpp.obj
 0001:00038cc0       ?ImTextStrFromUtf8@@YAHPAGHPBD1PAPBD@Z 10039cc0 f   imgui.cpp.obj
 0001:00038eb0       ?ImTextStrToUtf8@@YAHPADHPBG1@Z 10039eb0 f   imgui.cpp.obj
 0001:00038f70       ?ImTriangleBarycentricCoords@@YAXABUImVec2@@000AAM11@Z 10039f70 f   imgui.cpp.obj
 0001:00039030       ?ImTriangleClosestPoint@@YA?AUImVec2@@ABU1@000@Z 1003a030 f   imgui.cpp.obj
 0001:000391a0       ?ImTriangleContainsPoint@@YA_NABUImVec2@@000@Z 1003a1a0 f   imgui.cpp.obj
 0001:000392a0       ?IncludeItemsByIndex@ImGuiListClipper@@QAEXHH@Z 1003a2a0 f   imgui.cpp.obj
 0001:000392f0       ?Indent@ImGui@@YAXM@Z      1003a2f0 f   imgui.cpp.obj
 0001:00039470       ?Initialize@ImGui@@YAXXZ   1003a470 f   imgui.cpp.obj
 0001:00039a00       ?IsAnyItemHovered@ImGui@@YA_NXZ 1003aa00 f   imgui.cpp.obj
 0001:00039a20       ?IsClippedEx@ImGui@@YA_NABUImRect@@I@Z 1003aa20 f   imgui.cpp.obj
 0001:00039ab0       ?IsInverted@ImRect@@QBE_NXZ 1003aab0 f i imgui.cpp.obj
 0001:00039ae0       ?IsItemActive@ImGui@@YA_NXZ 1003aae0 f   imgui.cpp.obj
 0001:00039b00       ?IsItemClicked@ImGui@@YA_NH@Z 1003ab00 f   imgui.cpp.obj
 0001:00039b70       ?IsItemDeactivatedAfterEdit@ImGui@@YA_NXZ 1003ab70 f   imgui.cpp.obj
 0001:00039bd0       ?IsItemHovered@ImGui@@YA_NH@Z 1003abd0 f   imgui.cpp.obj
 0001:00039df0       ?IsKeyChordPressed@ImGui@@YA_NHHI@Z 1003adf0 f   imgui.cpp.obj
 0001:00039e90       ?IsKeyDown@ImGui@@YA_NW4ImGuiKey@@@Z 1003ae90 f   imgui.cpp.obj
 0001:00039f00       ?IsKeyDown@ImGui@@YA_NW4ImGuiKey@@I@Z 1003af00 f   imgui.cpp.obj
 0001:00039f30       ?IsKeyPressed@ImGui@@YA_NW4ImGuiKey@@HI@Z 1003af30 f   imgui.cpp.obj
 0001:0003a060       ?IsKeyPressed@ImGui@@YA_NW4ImGuiKey@@_N@Z 1003b060 f   imgui.cpp.obj
 0001:0003a080       ?IsKeyReleased@ImGui@@YA_NW4ImGuiKey@@@Z 1003b080 f   imgui.cpp.obj
 0001:0003a100       ?IsMouseClicked@ImGui@@YA_NHHI@Z 1003b100 f   imgui.cpp.obj
 0001:0003a1c0       ?IsMouseClicked@ImGui@@YA_NH_N@Z 1003b1c0 f   imgui.cpp.obj
 0001:0003a280       ?IsMouseDoubleClicked@ImGui@@YA_NH@Z 1003b280 f   imgui.cpp.obj
 0001:0003a2e0       ?IsMouseDown@ImGui@@YA_NH@Z 1003b2e0 f   imgui.cpp.obj
 0001:0003a340       ?IsMouseDown@ImGui@@YA_NHI@Z 1003b340 f   imgui.cpp.obj
 0001:0003a370       ?IsMouseDragPastThreshold@ImGui@@YA_NHM@Z 1003b370 f   imgui.cpp.obj
 0001:0003a3c0       ?IsMouseDragging@ImGui@@YA_NHM@Z 1003b3c0 f   imgui.cpp.obj
 0001:0003a410       ?IsMouseHoveringRect@ImGui@@YA_NABUImVec2@@0_N@Z 1003b410 f   imgui.cpp.obj
 0001:0003a4c0       ?IsMousePosValid@ImGui@@YA_NPBUImVec2@@@Z 1003b4c0 f   imgui.cpp.obj
 0001:0003a510       ?IsMouseReleased@ImGui@@YA_NH@Z 1003b510 f   imgui.cpp.obj
 0001:0003a570       ?IsMouseReleased@ImGui@@YA_NHI@Z 1003b570 f   imgui.cpp.obj
 0001:0003a5a0       ?IsPopupOpen@ImGui@@YA_NIH@Z 1003b5a0 f   imgui.cpp.obj
 0001:0003a620       ?IsWindowChildOf@ImGui@@YA_NPAUImGuiWindow@@0_N@Z 1003b620 f   imgui.cpp.obj
 0001:0003a670       ?IsWindowContentHoverable@ImGui@@YA_NPAUImGuiWindow@@H@Z 1003b670 f   imgui.cpp.obj
 0001:0003a6d0       ?IsWindowWithinBeginStackOf@ImGui@@YA_NPAUImGuiWindow@@0@Z 1003b6d0 f   imgui.cpp.obj
 0001:0003a700       ?ItemAdd@ImGui@@YA_NABUImRect@@IPBU2@H@Z 1003b700 f   imgui.cpp.obj
 0001:0003a9a0       ?ItemHoverable@ImGui@@YA_NABUImRect@@IH@Z 1003b9a0 f   imgui.cpp.obj
 0001:0003ab70       ?ItemSize@ImGui@@YAXABUImVec2@@M@Z 1003bb70 f   imgui.cpp.obj
 0001:0003adb0       ?KeepAliveID@ImGui@@YAXI@Z 1003bdb0 f   imgui.cpp.obj
 0001:0003ade0       ?LoadIniSettingsFromMemory@ImGui@@YAXPBDI@Z 1003bde0 f   imgui.cpp.obj
 0001:0003b130       ?LogRenderedText@ImGui@@YAXPBUImVec2@@PBD1@Z 1003c130 f   imgui.cpp.obj
 0001:0003b2d0       ?LogSetNextTextDecoration@ImGui@@YAXPBD0@Z 1003c2d0 f   imgui.cpp.obj
 0001:0003b2f0       ?LogText@ImGui@@YAXPBDZZ   1003c2f0 f   imgui.cpp.obj
 0001:0003b3b0       ?MarkIniSettingsDirty@ImGui@@YAXPAUImGuiWindow@@@Z 1003c3b0 f   imgui.cpp.obj
 0001:0003b3e0       ?MarkIniSettingsDirty@ImGui@@YAXXZ 1003c3e0 f   imgui.cpp.obj
 0001:0003b400       ?MarkItemEdited@ImGui@@YAXI@Z 1003c400 f   imgui.cpp.obj
 0001:0003b430       ?MemAlloc@ImGui@@YAPAXI@Z  1003c430 f   imgui.cpp.obj
 0001:0003b470       ?MemFree@ImGui@@YAXPAX@Z   1003c470 f   imgui.cpp.obj
 0001:0003b870       ?NavClearPreferredPosForAxis@ImGui@@YAXW4ImGuiAxis@@@Z 1003c870 f   imgui.cpp.obj
 0001:0003b8a0       ?NavInitWindow@ImGui@@YAXPAUImGuiWindow@@_N@Z 1003c8a0 f   imgui.cpp.obj
 0001:0003b9c0       ?NavMoveRequestApplyResult@ImGui@@YAXXZ 1003c9c0 f   imgui.cpp.obj
 0001:0003bdc0       ?NavMoveRequestButNoResultYet@ImGui@@YA_NXZ 1003cdc0 f   imgui.cpp.obj
 0001:0003bdf0       ?NavMoveRequestCancel@ImGui@@YAXXZ 1003cdf0 f   imgui.cpp.obj
 0001:0003be30       ?NavMoveRequestResolveWithLastItem@ImGui@@YAXPAUImGuiNavItemData@@@Z 1003ce30 f   imgui.cpp.obj
 0001:0003be80       ?NavMoveRequestResolveWithPastTreeNode@ImGui@@YAXPAUImGuiNavItemData@@PAUImGuiNavTreeNodeData@@@Z 1003ce80 f   imgui.cpp.obj
 0001:0003bf30       ?NavMoveRequestSubmit@ImGui@@YAXW4ImGuiDir@@0HH@Z 1003cf30 f   imgui.cpp.obj
 0001:0003e360       ?NavUpdateCurrentWindowIsScrollPushableX@ImGui@@YAXXZ 1003f360 f   imgui.cpp.obj
 0001:0003f460       ?NewFrame@ImGui@@YAXXZ     10040460 f   imgui.cpp.obj
 0001:000407a0       ?OpenPopup@ImGui@@YAXPBDH@Z 100417a0 f   imgui.cpp.obj
 0001:00040820       ?OpenPopupEx@ImGui@@YAXIH@Z 10041820 f   imgui.cpp.obj
 0001:000409a0       ?OpenPopupOnItemClick@ImGui@@YAXPBDH@Z 100419a0 f   imgui.cpp.obj
 0001:00040a40       ?Overlaps@ImRect@@QBE_NABU1@@Z 10041a40 f i imgui.cpp.obj
 0001:00040a90       ?PathLineTo@ImDrawList@@QAEXABUImVec2@@@Z 10041a90 f i imgui.cpp.obj
 0001:00040b50       ?PopClipRect@ImGui@@YAXXZ  10041b50 f   imgui.cpp.obj
 0001:00040bd0       ?PopFont@ImGui@@YAXXZ      10041bd0 f   imgui.cpp.obj
 0001:00040c30       ?PopID@ImGui@@YAXXZ        10041c30 f   imgui.cpp.obj
 0001:00040c50       ?PopItemFlag@ImGui@@YAXXZ  10041c50 f   imgui.cpp.obj
 0001:00040c80       ?PopItemWidth@ImGui@@YAXXZ 10041c80 f   imgui.cpp.obj
 0001:00040cc0       ?PopStyleColor@ImGui@@YAXH@Z 10041cc0 f   imgui.cpp.obj
 0001:00040d30       ?PopStyleVar@ImGui@@YAXH@Z 10041d30 f   imgui.cpp.obj
 0001:00040dc0       ?PopTextWrapPos@ImGui@@YAXXZ 10041dc0 f   imgui.cpp.obj
 0001:00040e00       ?PushClipRect@ImGui@@YAXABUImVec2@@0_N@Z 10041e00 f   imgui.cpp.obj
 0001:00040e90       ?PushFont@ImGui@@YAXPAUImFont@@@Z 10041e90 f   imgui.cpp.obj
 0001:00040fa0       ?PushID@ImGui@@YAXH@Z      10041fa0 f   imgui.cpp.obj
 0001:00041000       ?PushID@ImGui@@YAXPBD@Z    10042000 f   imgui.cpp.obj
 0001:00041090       ?PushID@ImGui@@YAXPBX@Z    10042090 f   imgui.cpp.obj
 0001:000410f0       ?PushItemFlag@ImGui@@YAXH_N@Z 100420f0 f   imgui.cpp.obj
 0001:00041160       ?PushItemWidth@ImGui@@YAXM@Z 10042160 f   imgui.cpp.obj
 0001:000411f0       ?PushMultiItemsWidths@ImGui@@YAXHM@Z 100421f0 f   imgui.cpp.obj
 0001:000413a0       ?PushOverrideID@ImGui@@YAXI@Z 100423a0 f   imgui.cpp.obj
 0001:00041410       ?PushStyleColor@ImGui@@YAXHABUImVec4@@@Z 10042410 f   imgui.cpp.obj
 0001:000414a0       ?PushStyleColor@ImGui@@YAXHI@Z 100424a0 f   imgui.cpp.obj
 0001:000415c0       ?PushStyleVar@ImGui@@YAXHABUImVec2@@@Z 100425c0 f   imgui.cpp.obj
 0001:00041650       ?PushStyleVar@ImGui@@YAXHM@Z 10042650 f   imgui.cpp.obj
 0001:000416b0       ?PushTextWrapPos@ImGui@@YAXM@Z 100426b0 f   imgui.cpp.obj
 0001:00041720       ?Rect@ImGuiWindow@@QBE?AUImRect@@XZ 10042720 f i imgui.cpp.obj
 0001:00041770       ?Render@ImGui@@YAXXZ       10042770 f   imgui.cpp.obj
 0001:00041f80       ?RenderFrame@ImGui@@YAXUImVec2@@0I_NM@Z 10042f80 f   imgui.cpp.obj
 0001:00042080       ?RenderFrameBorder@ImGui@@YAXUImVec2@@0M@Z 10043080 f   imgui.cpp.obj
 0001:000421c0       ?RenderMouseCursor@ImGui@@YAXUImVec2@@MHIII@Z 100431c0 f   imgui.cpp.obj
 0001:00042590       ?RenderNavHighlight@ImGui@@YAXABUImRect@@IH@Z 10043590 f   imgui.cpp.obj
 0001:00042740       ?RenderText@ImGui@@YAXUImVec2@@PBD1_N@Z 10043740 f   imgui.cpp.obj
 0001:00042840       ?RenderTextClipped@ImGui@@YAXABUImVec2@@0PBD1PBU2@0PBUImRect@@@Z 10043840 f   imgui.cpp.obj
 0001:000428c0       ?RenderTextClippedEx@ImGui@@YAXPAUImDrawList@@ABUImVec2@@1PBD2PBU3@1PBUImRect@@@Z 100438c0 f   imgui.cpp.obj
 0001:00042b10       ?RenderTextEllipsis@ImGui@@YAXPAUImDrawList@@ABUImVec2@@1MMPBD2PBU3@@Z 10043b10 f   imgui.cpp.obj
 0001:00042ee0       ?RenderTextWrapped@ImGui@@YAXUImVec2@@PBD1M@Z 10043ee0 f   imgui.cpp.obj
 0001:00043fc0       ?SameLine@ImGui@@YAXMM@Z   10044fc0 f   imgui.cpp.obj
 0001:00044090       ?SaveIniSettingsToDisk@ImGui@@YAXPBD@Z 10045090 f   imgui.cpp.obj
 0001:000440f0       ?SaveIniSettingsToMemory@ImGui@@YAPBDPAI@Z 100450f0 f   imgui.cpp.obj
 0001:000441a0       ?ScrollToRectEx@ImGui@@YA?AUImVec2@@PAUImGuiWindow@@ABUImRect@@H@Z 100451a0 f   imgui.cpp.obj
 0001:000447d0       ?SetActiveID@ImGui@@YAXIPAUImGuiWindow@@@Z 100457d0 f   imgui.cpp.obj
 0001:00044920       ?SetActiveIdUsingAllKeyboardKeys@ImGui@@YAXXZ 10045920 f   imgui.cpp.obj
 0001:00044970       ?SetClipboardText@ImGui@@YAXPBD@Z 10045970 f   imgui.cpp.obj
 0001:00044a20       ?SetCurrentFont@ImGui@@YAXPAUImFont@@@Z 10045a20 f   imgui.cpp.obj
 0001:00044ba0       ?SetCursorScreenPos@ImGui@@YAXABUImVec2@@@Z 10045ba0 f   imgui.cpp.obj
 0001:00044be0       ?SetDragDropPayload@ImGui@@YA_NPBDPBXIH@Z 10045be0 f   imgui.cpp.obj
 0001:00044cb0       ?SetFocusID@ImGui@@YAXIPAUImGuiWindow@@@Z 10045cb0 f   imgui.cpp.obj
 0001:00044db0       ?SetHoveredID@ImGui@@YAXI@Z 10045db0 f   imgui.cpp.obj
 0001:00044df0       ?SetInt@ImGuiStorage@@QAEXIH@Z 10045df0 f   imgui.cpp.obj
 0001:00044e50       ?SetItemDefaultFocus@ImGui@@YAXXZ 10045e50 f   imgui.cpp.obj
 0001:00044ee0       ?SetItemTooltip@ImGui@@YAXPBDZZ 10045ee0 f   imgui.cpp.obj
 0001:00044f20       ?SetKeyEventNativeData@ImGuiIO@@QAEXW4ImGuiKey@@HHH@Z 10045f20 f   imgui.cpp.obj
 0001:00044f50       ?SetKeyOwner@ImGui@@YAXW4ImGuiKey@@IH@Z 10045f50 f   imgui.cpp.obj
 0001:00044fa0       ?SetKeyOwnersForKeyChord@ImGui@@YAXHIH@Z 10045fa0 f   imgui.cpp.obj
 0001:000451f0       ?SetMouseCursor@ImGui@@YAXH@Z 100461f0 f   imgui.cpp.obj
 0001:00045200       ?SetNavFocusScope@ImGui@@YAXI@Z 10046200 f   imgui.cpp.obj
 0001:00045370       ?SetNavID@ImGui@@YAXIW4ImGuiNavLayer@@IABUImRect@@@Z 10046370 f   imgui.cpp.obj
 0001:00045420       ?SetNavWindow@ImGui@@YAXPAUImGuiWindow@@@Z 10046420 f   imgui.cpp.obj
 0001:000454b0       ?SetNextFrameWantCaptureKeyboard@ImGui@@YAX_N@Z 100464b0 f   imgui.cpp.obj
 0001:000454d0       ?SetNextFrameWantCaptureMouse@ImGui@@YAX_N@Z 100464d0 f   imgui.cpp.obj
 0001:000454f0       ?SetNextItemWidth@ImGui@@YAXM@Z 100464f0 f   imgui.cpp.obj
 0001:00045510       ?SetNextWindowContentSize@ImGui@@YAXABUImVec2@@@Z 10046510 f   imgui.cpp.obj
 0001:00045570       ?SetNextWindowFocus@ImGui@@YAXXZ 10046570 f   imgui.cpp.obj
 0001:00045580       ?SetNextWindowPos@ImGui@@YAXABUImVec2@@H0@Z 10046580 f   imgui.cpp.obj
 0001:000455e0       ?SetNextWindowScroll@ImGui@@YAXABUImVec2@@@Z 100465e0 f   imgui.cpp.obj
 0001:00045610       ?SetNextWindowSize@ImGui@@YAXABUImVec2@@H@Z 10046610 f   imgui.cpp.obj
 0001:00045650       ?SetNextWindowSizeConstraints@ImGui@@YAXABUImVec2@@0P6AXPAUImGuiSizeCallbackData@@@ZPAX@Z 10046650 f   imgui.cpp.obj
 0001:00045790       ?SetScrollFromPosX@ImGui@@YAXPAUImGuiWindow@@MM@Z 10046790 f   imgui.cpp.obj
 0001:000457d0       ?SetScrollFromPosY@ImGui@@YAXPAUImGuiWindow@@MM@Z 100467d0 f   imgui.cpp.obj
 0001:00045810       ?SetScrollHereY@ImGui@@YAXM@Z 10046810 f   imgui.cpp.obj
 0001:00045900       ?SetScrollY@ImGui@@YAXPAUImGuiWindow@@M@Z 10046900 f   imgui.cpp.obj
 0001:00045920       ?SetShortcutRouting@ImGui@@YA_NHHI@Z 10046920 f   imgui.cpp.obj
 0001:00045bc0       ?SetTooltip@ImGui@@YAXPBDZZ 10046bc0 f   imgui.cpp.obj
 0001:00045bf0       ?SetWindowPos@ImGui@@YAXPAUImGuiWindow@@ABUImVec2@@H@Z 10046bf0 f   imgui.cpp.obj
 0001:00045d90       ?SetWindowSize@ImGui@@YAXPAUImGuiWindow@@ABUImVec2@@H@Z 10046d90 f   imgui.cpp.obj
 0001:00045ef0       ?Shortcut@ImGui@@YA_NHHI@Z 10046ef0 f   imgui.cpp.obj
 0001:00045f80       ?Shutdown@ImGui@@YAXXZ     10046f80 f   imgui.cpp.obj
 0001:00046810       ?StartMouseMovingWindow@ImGui@@YAXPAUImGuiWindow@@@Z 10047810 f   imgui.cpp.obj
 0001:000468e0       ?Step@ImGuiListClipper@@QAE_NXZ 100478e0 f   imgui.cpp.obj
 0001:000469d0       ?TestKeyOwner@ImGui@@YA_NW4ImGuiKey@@I@Z 100479d0 f   imgui.cpp.obj
 0001:00046a70       ?TitleBarRect@ImGuiWindow@@QBE?AUImRect@@XZ 10047a70 f i imgui.cpp.obj
 0001:00046ab0       ?Unindent@ImGui@@YAXM@Z    10047ab0 f   imgui.cpp.obj
 0001:00046b10       ?UpdateHoveredWindowAndCaptureFlags@ImGui@@YAXXZ 10047b10 f   imgui.cpp.obj
 0001:00046da0       ?UpdateInputEvents@ImGui@@YAX_N@Z 10047da0 f   imgui.cpp.obj
 0001:00048080       ?UpdateMouseMovingWindowEndFrame@ImGui@@YAXXZ 10049080 f   imgui.cpp.obj
 0001:00049dd0       ?WindowRectAbsToRel@ImGui@@YA?AUImRect@@PAUImGuiWindow@@ABU2@@Z 1004add0 f i imgui.cpp.obj
 0001:00049e40       ?WindowRectRelToAbs@ImGui@@YA?AUImRect@@PAUImGuiWindow@@ABU2@@Z 1004ae40 f i imgui.cpp.obj
 0001:0004a340       ?append@ImGuiTextBuffer@@QAEXPBD0@Z 1004b340 f   imgui.cpp.obj
 0001:0004a3e0       ?appendf@ImGuiTextBuffer@@QAAXPBDZZ 1004b3e0 f   imgui.cpp.obj
 0001:0004a400       ?appendfv@ImGuiTextBuffer@@QAEXPBDPAD@Z 1004b400 f   imgui.cpp.obj
 0001:0004a4e0       ?insert@?$ImVector@UImGuiStoragePair@@@@QAEPAUImGuiStoragePair@@PBU2@ABU2@@Z 1004b4e0 f i imgui.cpp.obj
 0001:0004a5e0       ?push_back@?$ImVector@PAUImGuiWindow@@@@QAEXABQAUImGuiWindow@@@Z 1004b5e0 f i imgui.cpp.obj
 0001:0004a630       ?push_back@?$ImVector@UImDrawCmd@@@@QAEXABUImDrawCmd@@@Z 1004b630 f i imgui.cpp.obj
 0001:0004a630       ?push_back@?$ImVector@UImGuiPopupData@@@@QAEXABUImGuiPopupData@@@Z 1004b630 f i imgui.cpp.obj
 0001:0004a680       ?push_back@?$ImVector@UImGuiColorMod@@@@QAEXABUImGuiColorMod@@@Z 1004b680 f i imgui.cpp.obj
 0001:0004a750       ?push_back@?$ImVector@UImGuiFocusScopeData@@@@QAEXABUImGuiFocusScopeData@@@Z 1004b750 f i imgui.cpp.obj
 0001:0004a7a0       ?push_back@?$ImVector@UImGuiInputEvent@@@@QAEXABUImGuiInputEvent@@@Z 1004b7a0 f i imgui.cpp.obj
 0001:0004a800       ?push_back@?$ImVector@UImGuiKeyRoutingData@@@@QAEXABUImGuiKeyRoutingData@@@Z 1004b800 f i imgui.cpp.obj
 0001:0004a860       ?push_back@?$ImVector@UImGuiListClipperRange@@@@QAEXABUImGuiListClipperRange@@@Z 1004b860 f i imgui.cpp.obj
 0001:0004a8c0       ?push_back@?$ImVector@UImGuiStyleMod@@@@QAEXABUImGuiStyleMod@@@Z 1004b8c0 f i imgui.cpp.obj
 0001:0004a980       ?push_back@?$ImVector@UImVec2@@@@QAEXABUImVec2@@@Z 1004b980 f i imgui.cpp.obj
 0001:0004aa40       ?reserve@?$ImVector@D@@QAEXH@Z 1004ba40 f i imgui.cpp.obj
 0001:0004aab0       ?reserve@?$ImVector@G@@QAEXH@Z 1004bab0 f i imgui.cpp.obj
 0001:0004ab30       ?reserve@?$ImVector@H@@QAEXH@Z 1004bb30 f i imgui.cpp.obj
 0001:0004ab30       ?reserve@?$ImVector@I@@QAEXH@Z 1004bb30 f i imgui.cpp.obj
 0001:0004ab30       ?reserve@?$ImVector@M@@QAEXH@Z 1004bb30 f i imgui.cpp.obj
 0001:0004ab30       ?reserve@?$ImVector@PAUImGuiWindow@@@@QAEXH@Z 1004bb30 f i imgui.cpp.obj
 0001:0004abb0       ?reserve@?$ImVector@UImDrawCmd@@@@QAEXH@Z 1004bbb0 f i imgui.cpp.obj
 0001:0004abb0       ?reserve@?$ImVector@UImGuiPopupData@@@@QAEXH@Z 1004bbb0 f i imgui.cpp.obj
 0001:0004ac30       ?reserve@?$ImVector@UImGuiFocusScopeData@@@@QAEXH@Z 1004bc30 f i imgui.cpp.obj
 0001:0004ac30       ?reserve@?$ImVector@UImVec2@@@@QAEXH@Z 1004bc30 f i imgui.cpp.obj
 0001:0004acb0       ?reserve@?$ImVector@UImGuiInputEvent@@@@QAEXH@Z 1004bcb0 f i imgui.cpp.obj
 0001:0004ad40       ?reserve@?$ImVector@UImGuiKeyRoutingData@@@@QAEXH@Z 1004bd40 f i imgui.cpp.obj
 0001:0004adc0       ?reserve@?$ImVector@UImGuiListClipperRange@@@@QAEXH@Z 1004bdc0 f i imgui.cpp.obj
 0001:0004ae40       ?reserve@?$ImVector@UImGuiStackLevelInfo@@@@QAEXH@Z 1004be40 f i imgui.cpp.obj
 0001:0004aec0       ?reserve@?$ImVector@UImGuiWindowStackData@@@@QAEXH@Z 1004bec0 f i imgui.cpp.obj
 0001:0004af30       ?resize@?$ImVector@D@@QAEXH@Z 1004bf30 f i imgui.cpp.obj
 0001:0004af70       ?resize@?$ImVector@E@@QAEXH@Z 1004bf70 f i imgui.cpp.obj
 0001:0004b020       ?resize@?$ImVector@G@@QAEXH@Z 1004c020 f i imgui.cpp.obj
 0001:0004b060       ?resize@?$ImVector@I@@QAEXH@Z 1004c060 f i imgui.cpp.obj
 0001:0004b0a0       ?resize@?$ImVector@PAUImDrawList@@@@QAEXH@Z 1004c0a0 f i imgui.cpp.obj
 0001:0004b160       ?resize@?$ImVector@UImGuiGroupData@@@@QAEXH@Z 1004c160 f i imgui.cpp.obj
 0001:0004b230       ??0ImDrawListSharedData@@QAE@XZ 1004c230 f   imgui_draw.cpp.obj
 0001:0004b360       ??0ImFont@@QAE@XZ          1004c360 f   imgui_draw.cpp.obj
 0001:0004b3f0       ??0ImFontAtlas@@QAE@XZ     1004c3f0 f   imgui_draw.cpp.obj
 0001:0004b4c0       ??1ImFont@@QAE@XZ          1004c4c0 f   imgui_draw.cpp.obj
 0001:0004b550       ??1ImFontAtlas@@QAE@XZ     1004c550 f   imgui_draw.cpp.obj
 0001:0004b5e0       ?AddCircle@ImDrawList@@QAEXABUImVec2@@MIHM@Z 1004c5e0 f   imgui_draw.cpp.obj
 0001:0004b6d0       ?AddCircleFilled@ImDrawList@@QAEXABUImVec2@@MIH@Z 1004c6d0 f   imgui_draw.cpp.obj
 0001:0004b7a0       ?AddConvexPolyFilled@ImDrawList@@QAEXPBUImVec2@@HI@Z 1004c7a0 f   imgui_draw.cpp.obj
 0001:0004bc10       ?AddDrawCmd@ImDrawList@@QAEXXZ 1004cc10 f   imgui_draw.cpp.obj
 0001:0004bc90       ?AddDrawListToDrawDataEx@ImGui@@YAXPAUImDrawData@@PAU?$ImVector@PAUImDrawList@@@@PAUImDrawList@@@Z 1004cc90 f   imgui_draw.cpp.obj
 0001:0004bd50       ?AddFont@ImFontAtlas@@QAEPAUImFont@@PBUImFontConfig@@@Z 1004cd50 f   imgui_draw.cpp.obj
 0001:0004bfc0       ?AddFontFromMemoryCompressedBase85TTF@ImFontAtlas@@QAEPAUImFont@@PBDMPBUImFontConfig@@PBG@Z 1004cfc0 f   imgui_draw.cpp.obj
 0001:0004c110       ?AddFontFromMemoryCompressedTTF@ImFontAtlas@@QAEPAUImFont@@PBXHMPBUImFontConfig@@PBG@Z 1004d110 f   imgui_draw.cpp.obj
 0001:0004c2f0       ?AddGlyph@ImFont@@QAEXPBUImFontConfig@@GMMMMMMMMM@Z 1004d2f0 f   imgui_draw.cpp.obj
 0001:0004c4f0       ?AddImage@ImDrawList@@QAEXPAXABUImVec2@@111I@Z 1004d4f0 f   imgui_draw.cpp.obj
 0001:0004c570       ?AddLine@ImDrawList@@QAEXABUImVec2@@0IM@Z 1004d570 f   imgui_draw.cpp.obj
 0001:0004c600       ?AddPolyline@ImDrawList@@QAEXPBUImVec2@@HIHM@Z 1004d600 f   imgui_draw.cpp.obj
 0001:0004d5c0       ?AddRect@ImDrawList@@QAEXABUImVec2@@0IMHM@Z 1004e5c0 f   imgui_draw.cpp.obj
 0001:0004d6b0       ?AddRectFilled@ImDrawList@@QAEXABUImVec2@@0IMH@Z 1004e6b0 f   imgui_draw.cpp.obj
 0001:0004d850       ?AddRectFilledMultiColor@ImDrawList@@QAEXABUImVec2@@0IIII@Z 1004e850 f   imgui_draw.cpp.obj
 0001:0004d9d0       ?AddText@ImDrawList@@QAEXPBUImFont@@MABUImVec2@@IPBD2MPBUImVec4@@@Z 1004e9d0 f   imgui_draw.cpp.obj
 0001:0004db00       ?AddTriangle@ImDrawList@@QAEXABUImVec2@@00IM@Z 1004eb00 f   imgui_draw.cpp.obj
 0001:0004db60       ?AddTriangleFilled@ImDrawList@@QAEXABUImVec2@@00I@Z 1004eb60 f   imgui_draw.cpp.obj
 0001:0004dbb0       ?BuildLookupTable@ImFont@@QAEXXZ 1004ebb0 f   imgui_draw.cpp.obj
 0001:0004e0c0       ?CalcTextSizeA@ImFont@@QBE?AUImVec2@@MMMPBD0PAPBD@Z 1004f0c0 f   imgui_draw.cpp.obj
 0001:0004e380       ?CalcWordWrapPositionA@ImFont@@QBEPBDMPBD0M@Z 1004f380 f   imgui_draw.cpp.obj
 0001:0004e540       ?Clear@ImDrawData@@QAEXXZ  1004f540 f   imgui_draw.cpp.obj
 0001:0004e5f0       ?Clear@ImFontAtlas@@QAEXXZ 1004f5f0 f   imgui_draw.cpp.obj
 0001:0004e7d0       ?ClearFreeMemory@ImDrawListSplitter@@QAEXXZ 1004f7d0 f   imgui_draw.cpp.obj
 0001:0004e890       ?ClearOutputData@ImFont@@QAEXXZ 1004f890 f   imgui_draw.cpp.obj
 0001:0004e930       ?FindGlyph@ImFont@@QBEPBUImFontGlyph@@G@Z 1004f930 f   imgui_draw.cpp.obj
 0001:0004e960       ?GetMouseCursorTexData@ImFontAtlas@@QAE_NHPAUImVec2@@0QAU2@1@Z 1004f960 f   imgui_draw.cpp.obj
 0001:0004eaf0       ?GetTexDataAsRGBA32@ImFontAtlas@@QAEXPAPAEPAH11@Z 1004faf0 f   imgui_draw.cpp.obj
 0001:0004ed20       ?GrowIndex@ImFont@@QAEXH@Z 1004fd20 f   imgui_draw.cpp.obj
 0001:000505f0       ?Merge@ImDrawListSplitter@@QAEXPAUImDrawList@@@Z 100515f0 f   imgui_draw.cpp.obj
 0001:00050ab0       ?PathArcTo@ImDrawList@@QAEXABUImVec2@@MMMH@Z 10051ab0 f   imgui_draw.cpp.obj
 0001:00050e50       ?PathArcToFast@ImDrawList@@QAEXABUImVec2@@MHH@Z 10051e50 f   imgui_draw.cpp.obj
 0001:00050ea0       ?PathRect@ImDrawList@@QAEXABUImVec2@@0MH@Z 10051ea0 f   imgui_draw.cpp.obj
 0001:00051190       ?PopClipRect@ImDrawList@@QAEXXZ 10052190 f   imgui_draw.cpp.obj
 0001:000511d0       ?PopTextureID@ImDrawList@@QAEXXZ 100521d0 f   imgui_draw.cpp.obj
 0001:00051200       ?PrimRectUV@ImDrawList@@QAEXABUImVec2@@000I@Z 10052200 f   imgui_draw.cpp.obj
 0001:00051350       ?PrimReserve@ImDrawList@@QAEXHH@Z 10052350 f   imgui_draw.cpp.obj
 0001:000513e0       ?PushClipRect@ImDrawList@@QAEXABUImVec2@@0_N@Z 100523e0 f   imgui_draw.cpp.obj
 0001:000515a0       ?PushClipRectFullScreen@ImDrawList@@QAEXXZ 100525a0 f   imgui_draw.cpp.obj
 0001:000515e0       ?PushTextureID@ImDrawList@@QAEXPAX@Z 100525e0 f   imgui_draw.cpp.obj
 0001:00051680       ?RenderArrow@ImGui@@YAXPAUImDrawList@@UImVec2@@IW4ImGuiDir@@M@Z 10052680 f   imgui_draw.cpp.obj
 0001:000518f0       ?RenderArrowPointingAt@ImGui@@YAXPAUImDrawList@@UImVec2@@1W4ImGuiDir@@I@Z 100528f0 f   imgui_draw.cpp.obj
 0001:00051a10       ?RenderBullet@ImGui@@YAXPAUImDrawList@@UImVec2@@I@Z 10052a10 f   imgui_draw.cpp.obj
 0001:00051ab0       ?RenderChar@ImFont@@QBEXPAUImDrawList@@MABUImVec2@@IG@Z 10052ab0 f   imgui_draw.cpp.obj
 0001:00051bf0       ?RenderCheckMark@ImGui@@YAXPAUImDrawList@@UImVec2@@IM@Z 10052bf0 f   imgui_draw.cpp.obj
 0001:00051d60       ?RenderColorRectWithAlphaCheckerboard@ImGui@@YAXPAUImDrawList@@UImVec2@@1IM1MH@Z 10052d60 f   imgui_draw.cpp.obj
 0001:00052100       ?RenderText@ImFont@@QBEXPAUImDrawList@@MABUImVec2@@IABUImVec4@@PBD3M_N@Z 10053100 f   imgui_draw.cpp.obj
 0001:00052830       ?SetCircleTessellationMaxError@ImDrawListSharedData@@QAEXM@Z 10053830 f   imgui_draw.cpp.obj
 0001:00052960       ?SetCurrentChannel@ImDrawListSplitter@@QAEXPAUImDrawList@@H@Z 10053960 f   imgui_draw.cpp.obj
 0001:00052a60       ?ShadeVertsLinearColorGradientKeepAlpha@ImGui@@YAXPAUImDrawList@@HHUImVec2@@1II@Z 10053a60 f   imgui_draw.cpp.obj
 0001:00052c50       ?Split@ImDrawListSplitter@@QAEXPAUImDrawList@@H@Z 10053c50 f   imgui_draw.cpp.obj
 0001:00052e00       ?StyleColorsDark@ImGui@@YAXPAUImGuiStyle@@@Z 10053e00 f   imgui_draw.cpp.obj
 0001:00053720       ?_CalcCircleAutoSegmentCount@ImDrawList@@QBEHM@Z 10054720 f   imgui_draw.cpp.obj
 0001:000537e0       ?_ClearFreeMemory@ImDrawList@@QAEXXZ 100547e0 f   imgui_draw.cpp.obj
 0001:000538f0       ?_OnChangedClipRect@ImDrawList@@QAEXXZ 100548f0 f   imgui_draw.cpp.obj
 0001:000539a0       ?_OnChangedTextureID@ImDrawList@@QAEXXZ 100549a0 f   imgui_draw.cpp.obj
 0001:00053a80       ?_PathArcToFastEx@ImDrawList@@QAEXABUImVec2@@MHHH@Z 10054a80 f   imgui_draw.cpp.obj
 0001:00053ca0       ?_PathArcToN@ImDrawList@@QAEXABUImVec2@@MMMH@Z 10054ca0 f   imgui_draw.cpp.obj
 0001:00053e50       ?_PopUnusedDrawCmd@ImDrawList@@QAEXXZ 10054e50 f   imgui_draw.cpp.obj
 0001:00053e80       ?_ResetForNewFrame@ImDrawList@@QAEXXZ 10054e80 f   imgui_draw.cpp.obj
 0001:00054010       ?push_back@?$ImVector@UImFontAtlasCustomRect@@@@QAEXABUImFontAtlasCustomRect@@@Z 10055010 f i imgui_draw.cpp.obj
 0001:00054110       ?reserve_discard@?$ImVector@UImVec2@@@@QAEXH@Z 10055110 f i imgui_draw.cpp.obj
 0001:00054150       ?resize@?$ImVector@UImDrawCmd@@@@QAEXH@Z 10055150 f i imgui_draw.cpp.obj
 0001:00054150       ?resize@?$ImVector@UImFontGlyph@@@@QAEXH@Z 10055150 f i imgui_draw.cpp.obj
 0001:000541e0       ?resize@?$ImVector@UImDrawVert@@@@QAEXH@Z 100551e0 f i imgui_draw.cpp.obj
 0001:00054270       ?resize@?$ImVector@UImVec2@@@@QAEXH@Z 10055270 f i imgui_draw.cpp.obj
 0001:0005aa90       ??0ImGuiTable@@QAE@XZ      1005ba90 f i imgui_tables.cpp.obj
 0001:0005ac60       ?BeginTable@ImGui@@YA_NPBDHHABUImVec2@@M@Z 1005bc60 f   imgui_tables.cpp.obj
 0001:0005ac90       ?BeginTableEx@ImGui@@YA_NPBDIHHABUImVec2@@M@Z 1005bc90 f   imgui_tables.cpp.obj
 0001:0005bf20       ?EndColumns@ImGui@@YAXXZ   1005cf20 f   imgui_tables.cpp.obj
 0001:0005c470       ?EndTable@ImGui@@YAXXZ     1005d470 f   imgui_tables.cpp.obj
 0001:0005ced0       ?PopColumnsBackground@ImGui@@YAXXZ 1005ded0 f   imgui_tables.cpp.obj
 0001:0005cf10       ?PushColumnsBackground@ImGui@@YAXXZ 1005df10 f   imgui_tables.cpp.obj
 0001:0005cf70       ?SetColumnOffset@ImGui@@YAXHM@Z 1005df70 f   imgui_tables.cpp.obj
 0001:0005d0d0       ?SetWindowClipRectBeforeSetChannel@ImGui@@YAXPAUImGuiWindow@@ABUImRect@@@Z 1005e0d0 f   imgui_tables.cpp.obj
 0001:0005d180       ?TableBeginApplyRequests@ImGui@@YAXPAUImGuiTable@@@Z 1005e180 f   imgui_tables.cpp.obj
 0001:0005d340       ?TableBeginCell@ImGui@@YAXPAUImGuiTable@@H@Z 1005e340 f   imgui_tables.cpp.obj
 0001:0005d480       ?TableDrawBorders@ImGui@@YAXPAUImGuiTable@@@Z 1005e480 f   imgui_tables.cpp.obj
 0001:0005d9d0       ?TableDrawDefaultContextMenu@ImGui@@YAXPAUImGuiTable@@H@Z 1005e9d0 f   imgui_tables.cpp.obj
 0001:0005dc20       ?TableEndCell@ImGui@@YAXPAUImGuiTable@@@Z 1005ec20 f   imgui_tables.cpp.obj
 0001:0005dd20       ?TableEndRow@ImGui@@YAXPAUImGuiTable@@@Z 1005ed20 f   imgui_tables.cpp.obj
 0001:0005e440       ?TableGcCompactSettings@ImGui@@YAXXZ 1005f440 f   imgui_tables.cpp.obj
 0001:0005e620       ?TableGcCompactTransientBuffers@ImGui@@YAXPAUImGuiTable@@@Z 1005f620 f   imgui_tables.cpp.obj
 0001:0005e6e0       ?TableGcCompactTransientBuffers@ImGui@@YAXPAUImGuiTableTempData@@@Z 1005f6e0 f   imgui_tables.cpp.obj
 0001:0005e700       ?TableGetCellBgRect@ImGui@@YA?AUImRect@@PBUImGuiTable@@H@Z 1005f700 f   imgui_tables.cpp.obj
 0001:0005e810       ?TableGetColumnWidthAuto@ImGui@@YAMPAUImGuiTable@@PAUImGuiTableColumn@@@Z 1005f810 f   imgui_tables.cpp.obj
 0001:0005e8f0       ?TableGetMaxColumnWidth@ImGui@@YAMPBUImGuiTable@@H@Z 1005f8f0 f   imgui_tables.cpp.obj
 0001:0005ea00       ?TableGetSortSpecs@ImGui@@YAPAUImGuiTableSortSpecs@@XZ 1005fa00 f   imgui_tables.cpp.obj
 0001:0005ea40       ?TableHeader@ImGui@@YAXPBD@Z 1005fa40 f   imgui_tables.cpp.obj
 0001:0005f1e0       ?TableHeadersRow@ImGui@@YAXXZ 100601e0 f   imgui_tables.cpp.obj
 0001:0005f4b0       ?TableLoadSettings@ImGui@@YAXPAUImGuiTable@@@Z 100604b0 f   imgui_tables.cpp.obj
 0001:0005f690       ?TableMergeDrawChannels@ImGui@@YAXPAUImGuiTable@@@Z 10060690 f   imgui_tables.cpp.obj
 0001:00060000       ?TableNextColumn@ImGui@@YA_NXZ 10061000 f   imgui_tables.cpp.obj
 0001:00060070       ?TableNextRow@ImGui@@YAXHM@Z 10061070 f   imgui_tables.cpp.obj
 0001:00060250       ?TableOpenContextMenu@ImGui@@YAXH@Z 10061250 f   imgui_tables.cpp.obj
 0001:000602b0       ?TablePopBackgroundChannel@ImGui@@YAXXZ 100612b0 f   imgui_tables.cpp.obj
 0001:00060300       ?TablePushBackgroundChannel@ImGui@@YAXXZ 10061300 f   imgui_tables.cpp.obj
 0001:00060370       ?TableSaveSettings@ImGui@@YAXPAUImGuiTable@@@Z 10061370 f   imgui_tables.cpp.obj
 0001:00060510       ?TableSetBgColor@ImGui@@YAXHIH@Z 10061510 f   imgui_tables.cpp.obj
 0001:000605f0       ?TableSetColumnIndex@ImGui@@YA_NH@Z 100615f0 f   imgui_tables.cpp.obj
 0001:00060640       ?TableSetColumnSortDirection@ImGui@@YAXHW4ImGuiSortDirection@@_N@Z 10061640 f   imgui_tables.cpp.obj
 0001:00060770       ?TableSetColumnWidth@ImGui@@YAXHM@Z 10061770 f   imgui_tables.cpp.obj
 0001:000609c0       ?TableSetColumnWidthAutoSingle@ImGui@@YAXPAUImGuiTable@@H@Z 100619c0 f   imgui_tables.cpp.obj
 0001:000609e0       ?TableSettingsAddSettingsHandler@ImGui@@YAXXZ 100619e0 f   imgui_tables.cpp.obj
 0001:00060a80       ?TableSettingsCreate@ImGui@@YAPAUImGuiTableSettings@@IH@Z 10061a80 f   imgui_tables.cpp.obj
 0001:00060ae0       ?TableSettingsFindByID@ImGui@@YAPAUImGuiTableSettings@@I@Z 10061ae0 f   imgui_tables.cpp.obj
 0001:00061270       ?TableSetupColumn@ImGui@@YAXPBDHMI@Z 10062270 f   imgui_tables.cpp.obj
 0001:000615b0       ?TableSetupDrawChannels@ImGui@@YAXPAUImGuiTable@@@Z 100625b0 f   imgui_tables.cpp.obj
 0001:000617c0       ?TableSetupScrollFreeze@ImGui@@YAXHH@Z 100627c0 f   imgui_tables.cpp.obj
 0001:000618e0       ?TableSortSpecsBuild@ImGui@@YAXPAUImGuiTable@@@Z 100628e0 f   imgui_tables.cpp.obj
 0001:00061a60       ?TableSortSpecsSanitize@ImGui@@YAXPAUImGuiTable@@@Z 10062a60 f   imgui_tables.cpp.obj
 0001:00061ca0       ?TableUpdateBorders@ImGui@@YAXPAUImGuiTable@@@Z 10062ca0 f   imgui_tables.cpp.obj
 0001:00061f80       ?TableUpdateLayout@ImGui@@YAXPAUImGuiTable@@@Z 10062f80 f   imgui_tables.cpp.obj
 0001:000633a0       ??$DragBehaviorT@HHM@ImGui@@YA_NHPAHMHHPBDH@Z 100643a0 f i imgui_widgets.cpp.obj
 0001:000638d0       ??$DragBehaviorT@IHM@ImGui@@YA_NHPAIMIIPBDH@Z 100648d0 f i imgui_widgets.cpp.obj
 0001:00063e30       ??$DragBehaviorT@MMM@ImGui@@YA_NHPAMMMMPBDH@Z 10064e30 f i imgui_widgets.cpp.obj
 0001:00064550       ??$DragBehaviorT@NNN@ImGui@@YA_NHPANMNNPBDH@Z 10065550 f i imgui_widgets.cpp.obj
 0001:00064b30       ??$DragBehaviorT@_J_JN@ImGui@@YA_NHPA_JM_J1PBDH@Z 10065b30 f i imgui_widgets.cpp.obj
 0001:000651c0       ??$DragBehaviorT@_K_JN@ImGui@@YA_NHPA_KM_K1PBDH@Z 100661c0 f i imgui_widgets.cpp.obj
 0001:000658e0       ??$RoundScalarWithFormatT@H@ImGui@@YAHPBDHH@Z 100668e0 f i imgui_widgets.cpp.obj
 0001:00065990       ??$RoundScalarWithFormatT@I@ImGui@@YAIPBDHI@Z 10066990 f i imgui_widgets.cpp.obj
 0001:00065a40       ??$RoundScalarWithFormatT@M@ImGui@@YAMPBDHM@Z 10066a40 f i imgui_widgets.cpp.obj
 0001:00065af0       ??$RoundScalarWithFormatT@N@ImGui@@YANPBDHN@Z 10066af0 f i imgui_widgets.cpp.obj
 0001:00065ba0       ??$RoundScalarWithFormatT@_J@ImGui@@YA_JPBDH_J@Z 10066ba0 f i imgui_widgets.cpp.obj
 0001:00065c50       ??$RoundScalarWithFormatT@_K@ImGui@@YA_KPBDH_K@Z 10066c50 f i imgui_widgets.cpp.obj
 0001:00065d00       ??$ScaleRatioFromValueT@HHM@ImGui@@YAMHHHH_NMM@Z 10066d00 f i imgui_widgets.cpp.obj
 0001:00066150       ??$ScaleRatioFromValueT@IHM@ImGui@@YAMHIII_NMM@Z 10067150 f i imgui_widgets.cpp.obj
 0001:000665e0       ??$ScaleRatioFromValueT@MMM@ImGui@@YAMHMMM_NMM@Z 100675e0 f i imgui_widgets.cpp.obj
 0001:00066a60       ??$ScaleRatioFromValueT@NNN@ImGui@@YAMHNNN_NMM@Z 10067a60 f i imgui_widgets.cpp.obj
 0001:00066df0       ??$ScaleRatioFromValueT@_J_JN@ImGui@@YAMH_J00_NMM@Z 10067df0 f i imgui_widgets.cpp.obj
 0001:00067240       ??$ScaleRatioFromValueT@_K_JN@ImGui@@YAMH_K00_NMM@Z 10068240 f i imgui_widgets.cpp.obj
 0001:000677c0       ??$ScaleValueFromRatioT@HHM@ImGui@@YAHHMHH_NMM@Z 100687c0 f i imgui_widgets.cpp.obj
 0001:00067b90       ??$ScaleValueFromRatioT@IHM@ImGui@@YAIHMII_NMM@Z 10068b90 f i imgui_widgets.cpp.obj
 0001:00067fa0       ??$ScaleValueFromRatioT@MMM@ImGui@@YAMHMMM_NMM@Z 10068fa0 f i imgui_widgets.cpp.obj
 0001:00068360       ??$ScaleValueFromRatioT@NNN@ImGui@@YANHMNN_NMM@Z 10069360 f i imgui_widgets.cpp.obj
 0001:00068660       ??$ScaleValueFromRatioT@_J_JN@ImGui@@YA_JHM_J0_NMM@Z 10069660 f i imgui_widgets.cpp.obj
 0001:00068a80       ??$ScaleValueFromRatioT@_K_JN@ImGui@@YA_KHM_K0_NMM@Z 10069a80 f i imgui_widgets.cpp.obj
 0001:00068fd0       ??$SliderBehaviorT@HHM@ImGui@@YA_NABUImRect@@IHPAHHHPBDHPAU1@@Z 10069fd0 f i imgui_widgets.cpp.obj
 0001:00069800       ??$SliderBehaviorT@IHM@ImGui@@YA_NABUImRect@@IHPAIIIPBDHPAU1@@Z 1006a800 f i imgui_widgets.cpp.obj
 0001:0006a040       ??$SliderBehaviorT@MMM@ImGui@@YA_NABUImRect@@IHPAMMMPBDHPAU1@@Z 1006b040 f i imgui_widgets.cpp.obj
 0001:0006a920       ??$SliderBehaviorT@NNN@ImGui@@YA_NABUImRect@@IHPANNNPBDHPAU1@@Z 1006b920 f i imgui_widgets.cpp.obj
 0001:0006b1b0       ??$SliderBehaviorT@_J_JN@ImGui@@YA_NABUImRect@@IHPA_J_J2PBDHPAU1@@Z 1006c1b0 f i imgui_widgets.cpp.obj
 0001:0006bac0       ??$SliderBehaviorT@_K_JN@ImGui@@YA_NABUImRect@@IHPA_K_K2PBDHPAU1@@Z 1006cac0 f i imgui_widgets.cpp.obj
 0001:0006c3f0       ?Add@?$ImPool@UImGuiTabBar@@@@QAEPAUImGuiTabBar@@XZ 1006d3f0 f i imgui_widgets.cpp.obj
 0001:0006c520       ?ArrowButtonEx@ImGui@@YA_NPBDW4ImGuiDir@@UImVec2@@H@Z 1006d520 f   imgui_widgets.cpp.obj
 0001:0006c750       ?BeginCombo@ImGui@@YA_NPBD0H@Z 1006d750 f   imgui_widgets.cpp.obj
 0001:0006ccf0       ?BeginComboPopup@ImGui@@YA_NIABUImRect@@H@Z 1006dcf0 f   imgui_widgets.cpp.obj
 0001:0006cf60       ?BeginTabBar@ImGui@@YA_NPBDH@Z 1006df60 f   imgui_widgets.cpp.obj
 0001:0006d080       ?BeginTabBarEx@ImGui@@YA_NPAUImGuiTabBar@@ABUImRect@@H@Z 1006e080 f   imgui_widgets.cpp.obj
 0001:0006d400       ?BeginTabItem@ImGui@@YA_NPBDPA_NH@Z 1006e400 f   imgui_widgets.cpp.obj
 0001:0006d470       ?Button@ImGui@@YA_NPBDABUImVec2@@@Z 1006e470 f   imgui_widgets.cpp.obj
 0001:0006d490       ?ButtonBehavior@ImGui@@YA_NABUImRect@@IPA_N1H@Z 1006e490 f   imgui_widgets.cpp.obj
 0001:0006db20       ?ButtonEx@ImGui@@YA_NPBDABUImVec2@@H@Z 1006eb20 f   imgui_widgets.cpp.obj
 0001:0006ddd0       ?CalcNextTotalWidth@ImGuiMenuColumns@@QAEX_N@Z 1006edd0 f   imgui_widgets.cpp.obj
 0001:0006dea0       ?Checkbox@ImGui@@YA_NPBDPA_N@Z 1006eea0 f   imgui_widgets.cpp.obj
 0001:0006e2a0       ?CloseButton@ImGui@@YA_NIABUImVec2@@@Z 1006f2a0 f   imgui_widgets.cpp.obj
 0001:0006e5f0       ?CollapseButton@ImGui@@YA_NIABUImVec2@@@Z 1006f5f0 f   imgui_widgets.cpp.obj
 0001:0006e790       ?CollapsingHeader@ImGui@@YA_NPBDH@Z 1006f790 f   imgui_widgets.cpp.obj
 0001:0006e7e0       ?ColorButton@ImGui@@YA_NPBDABUImVec4@@HABUImVec2@@@Z 1006f7e0 f   imgui_widgets.cpp.obj
 0001:0006ef60       ?ColorEdit4@ImGui@@YA_NPBDQAMH@Z 1006ff60 f   imgui_widgets.cpp.obj
 0001:0006fe60       ?ColorEditOptionsPopup@ImGui@@YAXPBMH@Z 10070e60 f   imgui_widgets.cpp.obj
 0001:00070380       ?ColorPicker4@ImGui@@YA_NPBDQAMHPBM@Z 10071380 f   imgui_widgets.cpp.obj
 0001:00072820       ?ColorPickerOptionsPopup@ImGui@@YAXPBMH@Z 10073820 f   imgui_widgets.cpp.obj
 0001:00072aa0       ?ColorTooltip@ImGui@@YAXPBDPBMH@Z 10073aa0 f   imgui_widgets.cpp.obj
 0001:00072e10       ?Combo@ImGui@@YA_NPBDPAH0H@Z 10073e10 f   imgui_widgets.cpp.obj
 0001:00072e60       ?Combo@ImGui@@YA_NPBDPAHP6APBDPAXH@Z2HH@Z 10073e60 f   imgui_widgets.cpp.obj
 0001:00073020       ?CursorClamp@ImGuiInputTextState@@QAEXXZ 10074020 f i imgui_widgets.cpp.obj
 0001:00073050       ?DataTypeApplyFromText@ImGui@@YA_NPBDHPAX01@Z 10074050 f   imgui_widgets.cpp.obj
 0001:000732c0       ?DataTypeApplyOp@ImGui@@YAXHHPAXPBX1@Z 100742c0 f   imgui_widgets.cpp.obj
 0001:000738f0       ?DataTypeCompare@ImGui@@YAHHPBX0@Z 100748f0 f   imgui_widgets.cpp.obj
 0001:00073a90       ?DataTypeFormatString@ImGui@@YAHPADHHPBXPBD@Z 10074a90 f   imgui_widgets.cpp.obj
 0001:00073bb0       ?DeclColumns@ImGuiMenuColumns@@QAEMMMMM@Z 10074bb0 f   imgui_widgets.cpp.obj
 0001:00073c60       ?DragBehavior@ImGui@@YA_NIHPAXMPBX1PBDH@Z 10074c60 f   imgui_widgets.cpp.obj
 0001:00074050       ?DragScalar@ImGui@@YA_NPBDHPAXMPBX20H@Z 10075050 f   imgui_widgets.cpp.obj
 0001:000745d0       ?EndTabBar@ImGui@@YAXXZ    100755d0 f   imgui_widgets.cpp.obj
 0001:000746f0       ?EndTabItem@ImGui@@YAXXZ   100756f0 f   imgui_widgets.cpp.obj
 0001:00074750       ?ImParseFormatFindEnd@@YAPBDPBD@Z 10075750 f   imgui_widgets.cpp.obj
 0001:000747b0       ?ImParseFormatPrecision@@YAHPBDH@Z 100757b0 f   imgui_widgets.cpp.obj
 0001:00074890       ?ImParseFormatSanitizeForPrinting@@YAXPBDPADI@Z 10075890 f   imgui_widgets.cpp.obj
 0001:00074900       ?InputInt2@ImGui@@YA_NPBDQAHH@Z 10075900 f   imgui_widgets.cpp.obj
 0001:00074930       ?InputInt@ImGui@@YA_NPBDPAHHHH@Z 10075930 f   imgui_widgets.cpp.obj
 0001:00074980       ?InputScalar@ImGui@@YA_NPBDHPAXPBX20H@Z 10075980 f   imgui_widgets.cpp.obj
 0001:00074d30       ?InputScalarN@ImGui@@YA_NPBDHPAXHPBX20H@Z 10075d30 f   imgui_widgets.cpp.obj
 0001:00074e70       ?InputText@ImGui@@YA_NPBDPADIHP6AHPAUImGuiInputTextCallbackData@@@ZPAX@Z 10075e70 f   imgui_widgets.cpp.obj
 0001:00075000       ?InputTextDeactivateHook@ImGui@@YAXI@Z 10076000 f   imgui_widgets.cpp.obj
 0001:00075070       ?InputTextEx@ImGui@@YA_NPBD0PADHABUImVec2@@HP6AHPAUImGuiInputTextCallbackData@@@ZPAX@Z 10076070 f   imgui_widgets.cpp.obj
 0001:000780a0       ?InputTextMultiline@ImGui@@YA_NPBDPADIABUImVec2@@HP6AHPAUImGuiInputTextCallbackData@@@ZPAX@Z 100790a0 f   imgui_widgets.cpp.obj
 0001:00078200       ?InputTextWithHint@ImGui@@YA_NPBD0PADIHP6AHPAUImGuiInputTextCallbackData@@@ZPAX@Z 10079200 f   imgui_widgets.cpp.obj
 0001:00078240       ?InvisibleButton@ImGui@@YA_NPBDABUImVec2@@H@Z 10079240 f   imgui_widgets.cpp.obj
 0001:000783d0       ?MenuItem@ImGui@@YA_NPBD0_N1@Z 100793d0 f   imgui_widgets.cpp.obj
 0001:000783f0       ?MenuItemEx@ImGui@@YA_NPBD00_N1@Z 100793f0 f   imgui_widgets.cpp.obj
 0001:000788d0       ?OnKeyPressed@ImGuiInputTextState@@QAEXH@Z 100798d0 f   imgui_widgets.cpp.obj
 0001:00078900       ?RadioButton@ImGui@@YA_NPBD_N@Z 10079900 f   imgui_widgets.cpp.obj
 0001:00079240       ?Scrollbar@ImGui@@YAXW4ImGuiAxis@@@Z 1007a240 f   imgui_widgets.cpp.obj
 0001:00079430       ?ScrollbarEx@ImGui@@YA_NABUImRect@@IW4ImGuiAxis@@PA_J_J3H@Z 1007a430 f   imgui_widgets.cpp.obj
 0001:00079ab0       ?Selectable@ImGui@@YA_NPBD_NHABUImVec2@@@Z 1007aab0 f   imgui_widgets.cpp.obj
 0001:0007a0a0       ?Separator@ImGui@@YAXXZ    1007b0a0 f   imgui_widgets.cpp.obj
 0001:0007a0f0       ?SeparatorEx@ImGui@@YAXHM@Z 1007b0f0 f   imgui_widgets.cpp.obj
 0001:0007a380       ?SeparatorText@ImGui@@YAXPBD@Z 1007b380 f   imgui_widgets.cpp.obj
 0001:0007a3d0       ?SeparatorTextEx@ImGui@@YAXIPBD0M@Z 1007b3d0 f   imgui_widgets.cpp.obj
 0001:0007a830       ?ShrinkWidths@ImGui@@YAXPAUImGuiShrinkWidthItem@@HM@Z 1007b830 f   imgui_widgets.cpp.obj
 0001:0007aad0       ?SliderBehavior@ImGui@@YA_NABUImRect@@IHPAXPBX2PBDHPAU2@@Z 1007bad0 f   imgui_widgets.cpp.obj
 0001:0007ad70       ?SliderInt@ImGui@@YA_NPBDPAHHH0H@Z 1007bd70 f   imgui_widgets.cpp.obj
 0001:0007ada0       ?SliderScalar@ImGui@@YA_NPBDHPAXPBX20H@Z 1007bda0 f   imgui_widgets.cpp.obj
 0001:0007b280       ?Spacing@ImGui@@YAXXZ      1007c280 f   imgui_widgets.cpp.obj
 0001:0007c330       ?TabBarQueueReorderFromMousePos@ImGui@@YAXPAUImGuiTabBar@@PAUImGuiTabItem@@UImVec2@@@Z 1007d330 f   imgui_widgets.cpp.obj
 0001:0007c8b0       ?TabItemBackground@ImGui@@YAXPAUImDrawList@@ABUImRect@@HI@Z 1007d8b0 f   imgui_widgets.cpp.obj
 0001:0007cb10       ?TabItemCalcSize@ImGui@@YA?AUImVec2@@PBD_N@Z 1007db10 f   imgui_widgets.cpp.obj
 0001:0007cc40       ?TabItemEx@ImGui@@YA_NPAUImGuiTabBar@@PBDPA_NHPAUImGuiWindow@@@Z 1007dc40 f   imgui_widgets.cpp.obj
 0001:0007d940       ?TabItemLabelAndCloseButton@ImGui@@YAXPAUImDrawList@@ABUImRect@@HUImVec2@@PBDII_NPA_N5@Z 1007e940 f   imgui_widgets.cpp.obj
 0001:0007ddf0       ?TempInputScalar@ImGui@@YA_NABUImRect@@IPBDHPAX1PBX3@Z 1007edf0 f   imgui_widgets.cpp.obj
 0001:0007e270       ?Text@ImGui@@YAXPBDZZ      1007f270 f   imgui_widgets.cpp.obj
 0001:0007e2d0       ?TextColored@ImGui@@YAXABUImVec4@@PBDZZ 1007f2d0 f   imgui_widgets.cpp.obj
 0001:0007e340       ?TextDisabled@ImGui@@YAXPBDZZ 1007f340 f   imgui_widgets.cpp.obj
 0001:0007e3c0       ?TextEx@ImGui@@YAXPBD0H@Z  1007f3c0 f   imgui_widgets.cpp.obj
 0001:0007e870       ?TextUnformatted@ImGui@@YAXPBD0@Z 1007f870 f   imgui_widgets.cpp.obj
 0001:0007e890       ?TextV@ImGui@@YAXPBDPAD@Z  1007f890 f   imgui_widgets.cpp.obj
 0001:0007e8f0       ?TextWrapped@ImGui@@YAXPBDZZ 1007f8f0 f   imgui_widgets.cpp.obj
 0001:0007e990       ?TreeNode@ImGui@@YA_NPBD@Z 1007f990 f   imgui_widgets.cpp.obj
 0001:0007e9d0       ?TreeNodeBehavior@ImGui@@YA_NIHPBD0@Z 1007f9d0 f   imgui_widgets.cpp.obj
 0001:0007f620       ?TreeNodeEx@ImGui@@YA_NPBDH0ZZ 10080620 f   imgui_widgets.cpp.obj
 0001:0007f640       ?TreeNodeExV@ImGui@@YA_NPBDH0PAD@Z 10080640 f   imgui_widgets.cpp.obj
 0001:0007f6c0       ?TreeNodeSetOpen@ImGui@@YAXI_N@Z 100806c0 f   imgui_widgets.cpp.obj
 0001:0007f6f0       ?TreePop@ImGui@@YAXXZ      100806f0 f   imgui_widgets.cpp.obj
 0001:0007f790       ?TreePushOverrideID@ImGui@@YAXI@Z 10080790 f   imgui_widgets.cpp.obj
 0001:0007f7c0       ?Update@ImGuiMenuColumns@@QAEXM_N@Z 100807c0 f   imgui_widgets.cpp.obj
 0001:000811b0       ?ImGui_ImplDX9_CreateDeviceObjects@@YA_NXZ 100821b0 f   imgui_impl_dx9.cpp.obj
 0001:00081430       ?ImGui_ImplDX9_Init@@YA_NPAUIDirect3DDevice9@@@Z 10082430 f   imgui_impl_dx9.cpp.obj
 0001:000814b0       ?ImGui_ImplDX9_InvalidateDeviceObjects@@YAXXZ 100824b0 f   imgui_impl_dx9.cpp.obj
 0001:00081520       ?ImGui_ImplDX9_NewFrame@@YAXXZ 10082520 f   imgui_impl_dx9.cpp.obj
 0001:00081560       ?ImGui_ImplDX9_RenderDrawData@@YAXPAUImDrawData@@@Z 10082560 f   imgui_impl_dx9.cpp.obj
 0001:00081e90       ?ImGui_ImplDX9_Shutdown@@YAXXZ 10082e90 f   imgui_impl_dx9.cpp.obj
 0001:00081fa0       ?ImGui_ImplWin32_Init@@YA_NPAX@Z 10082fa0 f   imgui_impl_win32.cpp.obj
 0001:00082130       ?ImGui_ImplWin32_NewFrame@@YAXXZ 10083130 f   imgui_impl_win32.cpp.obj
 0001:00082440       ?ImGui_ImplWin32_Shutdown@@YAXXZ 10083440 f   imgui_impl_win32.cpp.obj
 0001:000832c0       ?ImGui_ImplWin32_WndProcHandler@@YAJPAUHWND__@@IIJ@Z 100842c0 f   imgui_impl_win32.cpp.obj
 0001:00083f70       _MH_CreateHook@12          10084f70 f   minhook:hook.c.obj
 0001:00084190       _MH_DisableHook@4          10085190 f   minhook:hook.c.obj
 0001:000841b0       _MH_EnableHook@4           100851b0 f   minhook:hook.c.obj
 0001:000841d0       _MH_Initialize@0           100851d0 f   minhook:hook.c.obj
 0001:00084220       _MH_Uninitialize@0         10085220 f   minhook:hook.c.obj
 0001:00084480       _AllocateBuffer            10085480 f   minhook:buffer.c.obj
 0001:00084500       _FreeBuffer                10085500 f   minhook:buffer.c.obj
 0001:00084570       _IsExecutableAddress       10085570 f   minhook:buffer.c.obj
 0001:000845b0       _UninitializeBuffer        100855b0 f   minhook:buffer.c.obj
 0001:000845f0       _CreateTrampolineFunction  100855f0 f   minhook:trampoline.c.obj
 0001:00084980       _hde32_disasm              10085980 f   minhook:hde32.c.obj
 0001:000850d8       _GdipAlloc@4               100860d8 f   gdiplus:gdiplus.dll
 0001:000850de       _GdipFree@4                100860de f   gdiplus:gdiplus.dll
 0001:000850e4       _GdiplusStartup@12         100860e4 f   gdiplus:gdiplus.dll
 0001:000850ea       _GdiplusShutdown@4         100860ea f   gdiplus:gdiplus.dll
 0001:000850f0       _GdipCloneImage@8          100860f0 f   gdiplus:gdiplus.dll
 0001:000850f6       _GdipDisposeImage@4        100860f6 f   gdiplus:gdiplus.dll
 0001:000850fc       _GdipCreateBitmapFromScan0@24 100860fc f   gdiplus:gdiplus.dll
 0001:00085102       _GdipBitmapLockBits@20     10086102 f   gdiplus:gdiplus.dll
 0001:00085108       _GdipBitmapUnlockBits@8    10086108 f   gdiplus:gdiplus.dll
 0001:0008510e       _GdipCreateFromHDC@8       1008610e f   gdiplus:gdiplus.dll
 0001:00085114       _GdipDeleteGraphics@4      10086114 f   gdiplus:gdiplus.dll
 0001:0008511a       _GdipSetInterpolationMode@8 1008611a f   gdiplus:gdiplus.dll
 0001:00085120       _GdipDrawImageRectI@24     10086120 f   gdiplus:gdiplus.dll
 0001:00085126       _CreateToolhelp32Snapshot@8 10086126 f   kernel32:KERNEL32.dll
 0001:0008512c       _Thread32First@8           1008612c f   kernel32:KERNEL32.dll
 0001:00085132       _Thread32Next@8            10086132 f   kernel32:KERNEL32.dll
 0001:00085138       __Query_perf_counter       10086138 f   libcpmt:xtime.obj
 0001:0008514f       __Query_perf_frequency     1008614f f   libcpmt:xtime.obj
 0001:00085194       __Timespec64_get_sys       10086194 f   libcpmt:xtime.obj
 0001:000851d2       __Xtime_get_ticks          100861d2 f   libcpmt:xtime.obj
 0001:000851f9       __Thrd_sleep_for@4         100861f9 f   libcpmt:sharedmutex.obj
 0001:000851ff       ??0bad_alloc@std@@QAE@XZ   100861ff f i libcpmt:xthrow.obj
 0001:0008521d       ??0bad_function_call@std@@QAE@ABV01@@Z 1008621d f i libcpmt:xthrow.obj
 0001:00085238       ??0bad_function_call@std@@QAE@XZ 10086238 f i libcpmt:xthrow.obj
 0001:0008524f       ??0length_error@std@@QAE@ABV01@@Z 1008624f f i libcpmt:xthrow.obj
 0001:0008526a       ??0length_error@std@@QAE@PBD@Z 1008626a f i libcpmt:xthrow.obj
 0001:00085289       ??0logic_error@std@@QAE@ABV01@@Z 10086289 f i libcpmt:xthrow.obj
 0001:000852a4       ??0out_of_range@std@@QAE@ABV01@@Z 100862a4 f i libcpmt:xthrow.obj
 0001:000852bf       ??0out_of_range@std@@QAE@PBD@Z 100862bf f i libcpmt:xthrow.obj
 0001:000852de       ??0runtime_error@std@@QAE@PBD@Z 100862de f i libcpmt:xthrow.obj
 0001:000852fd       ??_Ebad_exception@std@@UAEPAXI@Z 100862fd f i libvcruntime:frame.obj
 0001:000852fd       ??_Ebad_function_call@std@@UAEPAXI@Z 100862fd f i libcpmt:xthrow.obj
 0001:000852fd       ??_Elength_error@std@@UAEPAXI@Z 100862fd f i libcpmt:xthrow.obj
 0001:000852fd       ??_Elogic_error@std@@UAEPAXI@Z 100862fd f i libcpmt:xthrow.obj
 0001:000852fd       ??_Eout_of_range@std@@UAEPAXI@Z 100862fd f i libcpmt:xthrow.obj
 0001:000852fd       ??_Gbad_exception@std@@UAEPAXI@Z 100862fd f i libvcruntime:frame.obj
 0001:000852fd       ??_Gbad_function_call@std@@UAEPAXI@Z 100862fd f i libcpmt:xthrow.obj
 0001:000852fd       ??_Glength_error@std@@UAEPAXI@Z 100862fd f i libcpmt:xthrow.obj
 0001:000852fd       ??_Glogic_error@std@@UAEPAXI@Z 100862fd f i libcpmt:xthrow.obj
 0001:000852fd       ??_Gout_of_range@std@@UAEPAXI@Z 100862fd f i libcpmt:xthrow.obj
 0001:0008532a       ?_Xbad_alloc@std@@YAXXZ    1008632a f   libcpmt:xthrow.obj
 0001:0008532a       ?__scrt_throw_std_bad_alloc@@YAXXZ 1008632a f   LIBCMT:throw_bad_alloc.obj
 0001:00085347       ?_Xbad_function_call@std@@YAXXZ 10086347 f   libcpmt:xthrow.obj
 0001:00085364       ?_Xlength_error@std@@YAXPBD@Z 10086364 f   libcpmt:xthrow.obj
 0001:00085384       ?_Xout_of_range@std@@YAXPBD@Z 10086384 f   libcpmt:xthrow.obj
 0001:000853a4       ?_Xruntime_error@std@@YAXPBD@Z 100863a4 f   libcpmt:xthrow.obj
 0001:000853c4       ?what@bad_function_call@std@@UBEPBDXZ 100863c4 f i libcpmt:xthrow.obj
 0001:000853ca       ___std_init_once_link_alternate_names_and_abort@0 100863ca f   libcpmt:xonce2.obj
 0001:000853cf       __Mtx_lock                 100863cf f   libcpmt:mutex.obj
 0001:000853e0       __Mtx_unlock               100863e0 f   libcpmt:mutex.obj
 0001:0008552e       ??0system_error@std@@QAE@HABVerror_category@1@PBD@Z 1008652e f i libcpmt:thread0.obj
 0001:0008557e       ??_E_Generic_error_category@std@@UAEPAXI@Z 1008657e f i libcpmt:thread0.obj
 0001:0008557e       ??_G_Generic_error_category@std@@UAEPAXI@Z 1008657e f i libcpmt:thread0.obj
 0001:0008559b       ?_Throw_Cpp_error@std@@YAXH@Z 1008659b f   libcpmt:thread0.obj
 0001:000855d0       ?generic_category@std@@YAABVerror_category@1@XZ 100865d0 f i libcpmt:thread0.obj
 0001:000855d6       ?message@_Generic_error_category@std@@UBE?AV?$basic_string@DU?$char_traits@D@std@@V?$allocator@D@2@@2@H@Z 100865d6 f i libcpmt:thread0.obj
 0001:000855f3       ?name@_Generic_error_category@std@@UBEPBDXZ 100865f3 f i libcpmt:thread0.obj
 0001:000863f0       ___std_find_last_of_trivial_pos_1@16 100873f0 f   libcpmt:vector_algorithms.obj
 0001:00086410       ___std_find_trivial_1@12   10087410 f   libcpmt:vector_algorithms.obj
 0001:00086420       ___std_reverse_trivially_swappable_8 10087420 f   libcpmt:vector_algorithms.obj
 0001:00086500       ___std_search_1@16         10087500 f   libcpmt:vector_algorithms.obj
 0001:00086510       ___std_search_2@16         10087510 f   libcpmt:vector_algorithms.obj
 0001:00086519       ??0_Init_locks@std@@QAE@XZ 10087519 f   libcpmt:xlock.obj
 0001:00086546       ??0_Lockit@std@@QAE@H@Z    10087546 f   libcpmt:xlock.obj
 0001:00086577       ??1_Init_locks@std@@QAE@XZ 10087577 f   libcpmt:xlock.obj
 0001:0008659e       ??1_Lockit@std@@QAE@XZ     1008759e f   libcpmt:xlock.obj
 0001:000865bd       ?uncaught_exception@std@@YA_NXZ 100875bd f   libcpmt:uncaught_exception.obj
 0001:000865c2       ?_Syserror_map@std@@YAPBDH@Z 100875c2 f   libcpmt:syserror.obj
 0001:000865e7       ??0_Locimp@locale@std@@AAE@_N@Z 100875e7 f i libcpmt:locale0.obj
 0001:00086628       ??1_Fac_node@std@@QAE@XZ   10087628 f i libcpmt:locale0.obj
 0001:00086659       ??1_Fac_tidy_reg_t@std@@QAE@XZ 10087659 f i libcpmt:locale0.obj
 0001:0008667d       ??1_Locimp@locale@std@@MAE@XZ 1008767d f i libcpmt:locale0.obj
 0001:0008669d       ??4?$_Yarn@D@std@@QAEAAV01@PBD@Z 1008769d f i libcpmt:locale0.obj
 0001:000866e6       ??_E_Locimp@locale@std@@MAEPAXI@Z 100876e6 f i libcpmt:locale0.obj
 0001:000866e6       ??_G_Locimp@locale@std@@MAEPAXI@Z 100876e6 f i libcpmt:locale0.obj
 0001:00086708       ?_Facet_Register@std@@YAXPAV_Facet_base@1@@Z 10087708 f   libcpmt:locale0.obj
 0001:00086735       ?_Getgloballocale@locale@std@@CAPAV_Locimp@12@XZ 10087735 f   libcpmt:locale0.obj
 0001:0008673b       ?_Init@locale@std@@CAPAV_Locimp@12@_N@Z 1008773b f   libcpmt:locale0.obj
 0001:000867c8       ?_Locimp_dtor@_Locimp@locale@std@@CAXPAV123@@Z 100877c8 f   libcpmt:locale0.obj
 0001:00086839       ?_Locinfo_ctor@_Locinfo@std@@SAXPAV12@PBD@Z 10087839 f   libcpmt:locale0.obj
 0001:00086885       ?_Locinfo_dtor@_Locinfo@std@@SAXPAV12@@Z 10087885 f   libcpmt:locale0.obj
 0001:0008689f       ?_New_Locimp@_Locimp@locale@std@@CAPAV123@_N@Z 1008789f f   libcpmt:locale0.obj
 0001:000868c2       ?_Setgloballocale@locale@std@@CAXPAX@Z 100878c2 f   libcpmt:locale0.obj
 0001:000868ea       __Deletegloballocale       100878ea f   libcpmt:locale0.obj
 0001:00086952       __Getctype                 10087952 f   libcpmt:_tolower.obj
 0001:000869c0       __Tolower                  100879c0 f   libcpmt:_tolower.obj
 0001:00086aac       __Getcvt                   10087aac f   libcpmt:xwctomb.obj
 0001:00086b1f       __Toupper                  10087b1f f   libcpmt:_toupper.obj
 0001:00086c0b       ?_Addstd@ios_base@std@@SAXPAV12@@Z 10087c0b f   libcpmt:ios.obj
 0001:00086c57       ?_Callfns@ios_base@std@@AAEXW4event@12@@Z 10087c57 f i libcpmt:ios.obj
 0001:00086c8a       ?_Ios_base_dtor@ios_base@std@@CAXPAV12@@Z 10087c8a f   libcpmt:ios.obj
 0001:00086cca       ?_Tidy@ios_base@std@@AAEXXZ 10087cca f i libcpmt:ios.obj
 0001:00086dd0       ?_Fiopen@std@@YAPAU_iobuf@@PBDHH@Z 10087dd0 f   libcpmt:fiopen.obj
 0001:00086dd9       ?setw@std@@YA?AU?$_Smanip@_J@1@_J@Z 10087dd9 f   libcpmt:iomanip.obj
 0001:00086e3b       ___crtGetSystemTimePreciseAsFileTime 10087e3b f   libcpmt:winapisupp.obj
 0001:00086e90       __Mtxdst                   10087e90 f   libcpmt:xmtx.obj
 0001:00086e9e       __Mtxinit                  10087e9e f   libcpmt:xmtx.obj
 0001:00086eb3       __Mtxlock                  10087eb3 f   libcpmt:xmtx.obj
 0001:00086ec1       __Mtxunlock                10087ec1 f   libcpmt:xmtx.obj
 0001:00086ecf       ??1_Init_atexit@@QAE@XZ    10087ecf f i libcpmt:iosptrs.obj
 0001:00086f37       ?_Atexit@@YAXP6AXXZ@Z      10087f37 f   libcpmt:iosptrs.obj
 0001:00086f66       ??1?$__crt_scoped_stack_ptr@_W@@QAE@XZ 10087f66 f i libcpmt:StlLCMapStringA.obj
 0001:00086f7f       ___crtLCMapStringA         10087f7f f   libcpmt:StlLCMapStringA.obj
 0001:0008714f       __freea_crt                1008814f f i libcpmt:StlLCMapStringA.obj
 0001:00087170       __alldiv                   10088170 f   LIBCMT:lldiv.obj
 0001:00087220       __alldvrm                  10088220 f   LIBCMT:lldvrm.obj
 0001:00087300       __allmul                   10088300 f   LIBCMT:llmul.obj
 0001:00087334       ??_V@YAXPAX@Z              10088334 f   LIBCMT:delete_array.obj
 0001:00087339       @__security_check_cookie@4 10088339 f   LIBCMT:secchk.obj
 0001:00087347       ??2@YAPAXI@Z               10088347 f   LIBCMT:new_scalar.obj
 0001:00087377       ??3@YAXPAXI@Z              10088377 f   LIBCMT:delete_scalar_size.obj
 0001:000873c7       ___scrt_acquire_startup_lock 100883c7 f   LIBCMT:utility.obj
 0001:000873f9       ___scrt_dllmain_after_initialize_c 100883f9 f   LIBCMT:utility.obj
 0001:00087424       ___scrt_dllmain_before_initialize_c 10088424 f   LIBCMT:utility.obj
 0001:00087432       ___scrt_dllmain_crt_thread_attach 10088432 f   LIBCMT:utility.obj
 0001:00087451       ___scrt_dllmain_crt_thread_detach 10088451 f   LIBCMT:utility.obj
 0001:0008745e       ___scrt_dllmain_exception_filter 1008845e f   LIBCMT:utility.obj
 0001:00087492       ___scrt_dllmain_uninitialize_c 10088492 f   LIBCMT:utility.obj
 0001:000874b5       ___scrt_dllmain_uninitialize_critical 100884b5 f   LIBCMT:utility.obj
 0001:000874c2       ___scrt_initialize_crt     100884c2 f   LIBCMT:utility.obj
 0001:000874fb       ___scrt_initialize_onexit_tables 100884fb f   LIBCMT:utility.obj
 0001:00087582       ___scrt_is_nonwritable_in_current_image 10088582 f   LIBCMT:utility.obj
 0001:00087619       ___scrt_release_startup_lock 10088619 f   LIBCMT:utility.obj
 0001:00087636       ___scrt_uninitialize_crt   10088636 f   LIBCMT:utility.obj
 0001:0008765e       __onexit                   1008865e f   LIBCMT:utility.obj
 0001:0008768c       _atexit                    1008868c f   LIBCMT:utility.obj
 0001:000876a1       ??_Etype_info@@UAEPAXI@Z   100886a1 f i LIBCMT:std_type_info_static.obj
 0001:000876a1       ??_Gtype_info@@UAEPAXI@Z   100886a1 f i LIBCMT:std_type_info_static.obj
 0001:000876d0       __ftol2_sse                100886d0 f   LIBCMT:ftol2.obj
 0001:000876e0       __ftoi2                    100886e0 f   LIBCMT:ftol2.obj
 0001:00087760       __ftol2                    10088760 f   LIBCMT:ftol2.obj
 0001:00087810       __ftoul2                   10088810 f   LIBCMT:ftol2.obj
 0001:000878d0       __ftoul2_legacy            100888d0 f   LIBCMT:ftol2.obj
 0001:000878f0       __aullrem                  100888f0 f   LIBCMT:ullrem.obj
 0001:00087965       ___dyn_tls_init@12         10088965 f   LIBCMT:tlsdyn.obj
 0001:000879e9       ___dyn_tls_on_demand_init  100889e9 f   LIBCMT:tlsdyn.obj
 0001:000879f5       ??3@YAXPAX@Z               100889f5 f   LIBCMT:delete_scalar.obj
 0001:000879fa       ??2@YAPAXIABUnothrow_t@std@@@Z 100889fa f   LIBCMT:new_scalar_nothrow.obj
 0001:00087a60       __alloca_probe             10088a60 f   LIBCMT:chkstk.obj
 0001:00087a60       __chkstk                   10088a60 f   LIBCMT:chkstk.obj
 0001:00087a8b       __Init_thread_footer       10088a8b f   LIBCMT:thread_safe_statics.obj
 0001:00087adc       __Init_thread_header       10088adc f   LIBCMT:thread_safe_statics.obj
 0001:00087b2e       __Init_thread_wait_v2      10088b2e f   LIBCMT:thread_safe_statics.obj
 0001:00087b43       ___raise_securityfailure   10088b43 f   LIBCMT:gs_report.obj
 0001:00087b6b       ___report_gsfailure        10088b6b f   LIBCMT:gs_report.obj
 0001:00087c66       ___report_rangecheckfailure 10088c66 f   LIBCMT:gs_report.obj
 0001:00087c73       ___report_securityfailure  10088c73 f   LIBCMT:gs_report.obj
 0001:00087d50       __allshl                   10088d50 f   LIBCMT:llshl.obj
 0001:000880bc       __DllMainCRTStartup@12     100890bc f   LIBCMT:dll_dllmain.obj
 0001:000880e0       __aulldiv                  100890e0 f   LIBCMT:ulldiv.obj
 0001:00088148       __EH_epilog3               10089148 f   LIBCMT:ehprolg3.obj
 0001:0008815c       __EH_epilog3_GS            1008915c f   LIBCMT:ehprolg3.obj
 0001:0008816b       __EH_prolog3               1008916b f   LIBCMT:ehprolg3.obj
 0001:0008819e       __EH_prolog3_GS            1008919e f   LIBCMT:ehprolg3.obj
 0001:000881d4       __EH_prolog3_catch         100891d4 f   LIBCMT:ehprolg3.obj
 0001:0008820a       ___isa_available_init      1008920a f   LIBCMT:cpu_disp.obj
 0001:00088530       __alloca_probe_16          10089530 f   LIBCMT:alloca16.obj
 0001:00088546       __alloca_probe_8           10089546     LIBCMT:alloca16.obj
 0001:0008855c       ?__scrt_throw_std_bad_array_new_length@@YAXXZ 1008955c f   LIBCMT:throw_bad_alloc.obj
 0001:00088579       __get_startup_argv_mode    10089579 f   LIBCMT:argv_mode.obj
 0001:0008857d       ___scrt_is_ucrt_dll_in_use 1008957d f   LIBCMT:ucrt_detection.obj
 0001:00088589       ___scrt_fastfail           10089589 f   LIBCMT:utility_desktop.obj
 0001:0008869e       __crt_debugger_hook        1008969e f   LIBCMT:utility_desktop.obj
 0001:000886b0       __SEH_prolog4              100896b0 f   LIBCMT:sehprolg4.obj
 0001:00088742       ___security_init_cookie    10089742 f   LIBCMT:gs_support.obj
 0001:0008878d       ?__scrt_initialize_type_info@@YAXXZ 1008978d f   LIBCMT:tncleanup.obj
 0001:00088799       ?__scrt_uninitialize_type_info@@YAXXZ 10089799 f   LIBCMT:tncleanup.obj
 0001:000887a5       ___scrt_initialize_default_local_stdio_options 100897a5 f   LIBCMT:default_local_stdio_options.obj
 0001:000887c2       ___scrt_get_dyn_tls_init_callback 100897c2 f   LIBCMT:dyn_tls_init.obj
 0001:000887c8       __RTC_Initialize           100897c8 f   LIBCMT:initsect.obj
 0001:000887f4       __RTC_Terminate            100897f4 f   LIBCMT:initsect.obj
 0001:00088820       _ImmGetContext@4           10089820 f   imm32:IMM32.dll
 0001:00088826       _ImmReleaseContext@8       10089826 f   imm32:IMM32.dll
 0001:0008882c       _ImmSetCompositionWindow@8 1008982c f   imm32:IMM32.dll
 0001:00088832       _ImmSetCandidateWindow@8   10089832 f   imm32:IMM32.dll
 0001:00088838       ?GetRangeOfTrysToCheck@__FrameHandler3@@SA?AU?$pair@Viterator@TryBlockMap@__FrameHandler3@@V123@@std@@AAVTryBlockMap@1@HPAXPBU_s_FuncInfo@@H@Z 10089838 f   libvcruntime:trnsctrl.obj
 0001:000888a7       ?_CallCatchBlock2@@YAPAXPAUEHRegistrationNode@@PBU_s_FuncInfo@@PAXHK@Z 100898a7 f   libvcruntime:trnsctrl.obj
 0001:00088907       ?_CallSETranslator@@YAHPAUEHExceptionRecord@@PAUEHRegistrationNode@@PAX2PBU_s_FuncInfo@@H1@Z 10089907 f   libvcruntime:trnsctrl.obj
 0001:00088a06       ?_JumpToContinuation@@YGXPAXPAUEHRegistrationNode@@@Z 10089a06 f   libvcruntime:trnsctrl.obj
 0001:00088a36       ?_UnwindNestedFrames@@YGXPAUEHRegistrationNode@@PAUEHExceptionRecord@@@Z 10089a36 f   libvcruntime:trnsctrl.obj
 0001:00088a8a       __CatchGuardHandler        10089a8a f   libvcruntime:trnsctrl.obj
 0001:00088abb       __CreateFrameInfo          10089abb f   libvcruntime:trnsctrl.obj
 0001:00088adf       __FindAndUnlinkFrame       10089adf f   libvcruntime:trnsctrl.obj
 0001:00088b27       __TranslatorGuardHandler   10089b27 f   libvcruntime:trnsctrl.obj
 0001:00088bc6       ___CxxFrameHandler3        10089bc6 f   libvcruntime:trnsctrl.obj
 0001:00088c00       _memcpy                    10089c00 f   libvcruntime:memcpy.obj
 0001:00088c00       _memmove                   10089c00 f   libvcruntime:memmove.obj
 0001:00089174       ___std_exception_copy      1008a174 f   libvcruntime:std_exception.obj
 0001:000891d7       ___std_exception_destroy   1008a1d7 f   libvcruntime:std_exception.obj
 0001:000891f9       __CxxThrowException@8      1008a1f9 f   libvcruntime:throw.obj
 0001:00089270       _memset                    1008a270 f   libvcruntime:memset.obj
 0001:000893ca       ___DestructExceptionObject 1008a3ca f   libvcruntime:ehhelpers.obj
 0001:00089472       ?_CallMemberFunction0@@YGXQAX0@Z 1008a472 f i libvcruntime:ehhelpers.obj
 0001:000894d7       __IsExceptionObjectToBeDestroyed 1008a4d7 f   libvcruntime:ehhelpers.obj
 0001:000894fd       ___AdjustPointer           1008a4fd f   libvcruntime:ehhelpers.obj
 0001:00089522       ___FrameUnwindFilter       1008a522 f   libvcruntime:ehhelpers.obj
 0001:00089578       ___std_terminate           1008a578 f   libvcruntime:ehhelpers.obj
 0001:000895c0       __except_handler4          1008a5c0 f   libvcruntime:chandler4.obj
 0001:00089720       _strrchr                   1008a720 f   libvcruntime:strrchr.obj
 0001:00089860       _strstr                    1008a860 f   libvcruntime:strstr.obj
 0001:00089acb       _wcschr                    1008aacb f   libvcruntime:wcschr.obj
 0001:00089b65       _wcsstr                    1008ab65 f   libvcruntime:wcsstr.obj
 0001:00089e00       _memchr                    1008ae00 f   libvcruntime:memchr.obj
 0001:00089ead       __get_purecall_handler     1008aead f   libvcruntime:purevirt.obj
 0001:00089eb4       __purecall                 1008aeb4 f   libvcruntime:purevirt.obj
 0001:00089ed0       _strchr                    1008aed0 f   libvcruntime:strchr.obj
 0001:00089f3e       ___from_strstr_to_strchr   1008af3e     libvcruntime:strchr.obj
 0001:00089ffb       ___uncaught_exception      1008affb f   libvcruntime:uncaught_exception.obj
 0001:0008a00f       _memcmp                    1008b00f f   libvcruntime:memcmp.obj
 0001:0008b3d3       ___vcrt_initialize         1008c3d3 f   libvcruntime:initialization.obj
 0001:0008b3f2       ___vcrt_thread_attach      1008c3f2 f   libvcruntime:initialization.obj
 0001:0008b3fd       ___vcrt_thread_detach      1008c3fd f   libvcruntime:initialization.obj
 0001:0008b405       ___vcrt_uninitialize       1008c405 f   libvcruntime:initialization.obj
 0001:0008b41c       ___vcrt_uninitialize_critical 1008c41c f   libvcruntime:initialization.obj
 0001:0008b424       ___std_type_info_compare   1008c424 f   libvcruntime:std_type_info.obj
 0001:0008b460       ___std_type_info_destroy_list 1008c460 f   libvcruntime:std_type_info.obj
 0001:0008b483       ___vcrt_freefls@4          1008c483 f   libvcruntime:per_thread_data.obj
 0001:0008b49f       ___vcrt_freeptd_for_this_thread 1008c49f f   libvcruntime:per_thread_data.obj
 0001:0008b4ca       ___vcrt_getptd             1008c4ca f   libvcruntime:per_thread_data.obj
 0001:0008b4d8       ___vcrt_getptd_noexit      1008c4d8 f   libvcruntime:per_thread_data.obj
 0001:0008b56a       ___vcrt_getptd_noinit      1008c56a f   libvcruntime:per_thread_data.obj
 0001:0008b5a2       ___vcrt_initialize_ptd     1008c5a2 f   libvcruntime:per_thread_data.obj
 0001:0008b5d5       ___vcrt_uninitialize_ptd   1008c5d5 f   libvcruntime:per_thread_data.obj
 0001:0008bd27       ??$TypeMatchHelper@V__FrameHandler3@@@@YAHPBU_s_HandlerType@@PBU_s_CatchableType@@PBU_s_ThrowInfo@@@Z 1008cd27 f i libvcruntime:frame.obj
 0001:0008bdb5       ??$__InternalCxxFrameHandler@V__FrameHandler3@@@@YA?AW4_EXCEPTION_DISPOSITION@@PAUEHExceptionRecord@@PAUEHRegistrationNode@@PAU_CONTEXT@@PAXPBU_s_FuncInfo@@H1E@Z 1008cdb5 f i libvcruntime:frame.obj
 0001:0008beb7       ??$__InternalCxxFrameHandlerWrapper@V__FrameHandler3@@@@YA?AW4_EXCEPTION_DISPOSITION@@PAUEHExceptionRecord@@PAUEHRegistrationNode@@PAU_CONTEXT@@PAXPBU_s_FuncInfo@@H1E@Z 1008ceb7 f i libvcruntime:frame.obj
 0001:0008bec0       ??0bad_exception@std@@QAE@ABV01@@Z 1008cec0 f i libvcruntime:frame.obj
 0001:0008bedb       ??0bad_exception@std@@QAE@XZ 1008cedb f i libvcruntime:frame.obj
 0001:0008bef9       ??8type_info@@QBE_NABV0@@Z 1008cef9 f i libvcruntime:frame.obj
 0001:0008c173       ?FrameUnwindToEmptyState@__FrameHandler3@@SAXPAUEHRegistrationNode@@PAXPBU_s_FuncInfo@@@Z 1008d173 f   libvcruntime:frame.obj
 0001:0008c18b       ?FrameUnwindToState@__FrameHandler3@@SAXPAUEHRegistrationNode@@PAXPBU_s_FuncInfo@@H@Z 1008d18b f   libvcruntime:frame.obj
 0001:0008c313       ?_CallMemberFunction1@@YGXQAX00@Z 1008d313 f i libvcruntime:frame.obj
 0001:0008c323       ?_CallMemberFunction2@@YGXQAX00H@Z 1008d323 f i libvcruntime:frame.obj
 0001:0008c336       ?getESTypes@__FrameHandler3@@SAPBU_s_ESTypeList@@PBU_s_FuncInfo@@@Z 1008d336 f i libvcruntime:frame.obj
 0001:0008c350       __CallSettingFrame@12      1008d350 f   libvcruntime:lowhelpr.obj
 0001:0008c377       __NLG_Return               1008d377     libvcruntime:lowhelpr.obj
 0001:0008c39c       ___except_validate_context_record 1008d39c f   libvcruntime:jbcxrval.obj
 0001:0008c3d0       __local_unwind4            1008d3d0 f   libvcruntime:exsup4.obj
 0001:0008c4c0       @_EH4_CallFilterFunc@8     1008d4c0 f   libvcruntime:exsup4.obj
 0001:0008c4e0       @_EH4_TransferToHandler@8  1008d4e0 f   libvcruntime:exsup4.obj
 0001:0008c500       @_EH4_GlobalUnwind2@8      1008d500 f   libvcruntime:exsup4.obj
 0001:0008c520       @_EH4_LocalUnwind@16       1008d520 f   libvcruntime:exsup4.obj
 0001:0008c537       ___vcrt_initialize_locks   1008d537 f   libvcruntime:locks.obj
 0001:0008c573       ___vcrt_uninitialize_locks 1008d573 f   libvcruntime:locks.obj
 0001:0008c68d       ___vcrt_FlsAlloc           1008d68d f   libvcruntime:winapi_downlevel.obj
 0001:0008c6c8       ___vcrt_FlsFree            1008d6c8 f   libvcruntime:winapi_downlevel.obj
 0001:0008c703       ___vcrt_FlsGetValue        1008d703 f   libvcruntime:winapi_downlevel.obj
 0001:0008c73e       ___vcrt_FlsSetValue        1008d73e f   libvcruntime:winapi_downlevel.obj
 0001:0008c77c       ___vcrt_InitializeCriticalSectionEx 1008d77c f   libvcruntime:winapi_downlevel.obj
 0001:0008c7c3       _unexpected                1008d7c3 f   libvcruntime:unexpected.obj
 0001:0008c7e0       ?GetCurrentState@__FrameHandler3@@SAHPAUEHRegistrationNode@@PAXPBU_s_FuncInfo@@@Z 1008d7e0 f   libvcruntime:ehstate.obj
 0001:0008c7fd       ?SetState@__FrameHandler3@@SAXPAUEHRegistrationNode@@PBU_s_FuncInfo@@H@Z 1008d7fd f   libvcruntime:ehstate.obj
 0001:0008c810       __NLG_Notify1              1008d810 f   libvcruntime:exsup.obj
 0001:0008c820       __NLG_Notify               1008d820 f   libvcruntime:exsup.obj
 0001:0008c837       __NLG_Dispatch             1008d837     libvcruntime:exsup.obj
 0001:0008c837       __NLG_Dispatch2            1008d837     libvcruntime:exsup.obj
 0001:0008c840       __NLG_Call                 1008d840 f   libvcruntime:exsup.obj
 0001:0008c842       __NLG_Return2              1008d842     libvcruntime:exsup.obj
 0001:0008c843       ??0__crt_cached_ptd_host@@QAE@QAU__crt_locale_pointers@@@Z 1008d843 f i libucrt:invalid_parameter.obj
 0001:0008c88b       ??1__crt_cached_ptd_host@@QAE@XZ 1008d88b f i libucrt:invalid_parameter.obj
 0001:0008c8c7       ?check_synchronize_global_state_index@__crt_cached_ptd_host@@AAEIXZ 1008d8c7 f i libucrt:invalid_parameter.obj
 0001:0008c8f0       ?force_synchronize_per_thread_data@__crt_cached_ptd_host@@AAEPAU__acrt_ptd@@XZ 1008d8f0 f i libucrt:invalid_parameter.obj
 0001:0008c936       ?get_raw_ptd@__crt_cached_ptd_host@@QAEPAU__acrt_ptd@@XZ 1008d936 f i libucrt:invalid_parameter.obj
 0001:0008c953       ___acrt_call_reportfault   1008d953 f   libucrt:invalid_parameter.obj
 0001:0008ca8c       ___acrt_initialize_invalid_parameter_handler 1008da8c f   libucrt:invalid_parameter.obj
 0001:0008ca9b       __invalid_parameter        1008da9b f   libucrt:invalid_parameter.obj
 0001:0008cad2       __invalid_parameter_internal 1008dad2 f   libucrt:invalid_parameter.obj
 0001:0008cb4f       __invalid_parameter_noinfo 1008db4f f   libucrt:invalid_parameter.obj
 0001:0008cb5f       __invoke_watson            1008db5f f   libucrt:invalid_parameter.obj
 0001:0008cb93       _abort                     1008db93 f   libucrt:abort.obj
 0001:0008d1d6       ??$count@D@formatting_buffer@__crt_stdio_output@@QBEIXZ 1008e1d6 f i libucrt:output.obj
 0001:0008d1ee       ??$count@_W@formatting_buffer@__crt_stdio_output@@QBEIXZ 1008e1ee f i libucrt:output.obj
 0001:0008d207       ??$ensure_buffer_is_big_enough@D@formatting_buffer@__crt_stdio_output@@QAE_NIAAV__crt_cached_ptd_host@@@Z 1008e207 f i libucrt:output.obj
 0001:0008d287       ??$ensure_buffer_is_big_enough@_W@formatting_buffer@__crt_stdio_output@@QAE_NIAAV__crt_cached_ptd_host@@@Z 1008e287 f i libucrt:output.obj
 0001:0008d308       ??$is_overflow_condition@K@__crt_strtox@@YA_NIK@Z 1008e308 f i libucrt:output.obj
 0001:0008d33c       ??$is_wide_character_specifier@D@__crt_stdio_output@@YA_N_KDW4length_modifier@0@@Z 1008e33c f i libucrt:output.obj
 0001:0008d36d       ??$is_wide_character_specifier@_W@__crt_stdio_output@@YA_N_K_WW4length_modifier@0@@Z 1008e36d f i libucrt:output.obj
 0001:0008d3bb       ??$make_c_string_character_source@DPAPAD@__crt_strtox@@YA?AV?$c_string_character_source@D@0@QBDQAPAD@Z 1008e3bb f i libucrt:output.obj
 0001:0008d3bb       ??$make_c_string_character_source@_WPAPA_W@__crt_strtox@@YA?AV?$c_string_character_source@_W@0@QB_WQAPA_W@Z 1008e3bb f i libucrt:output.obj
 0001:0008d3d6       ??$parse_integer@KV?$c_string_character_source@D@__crt_strtox@@$0A@@__crt_strtox@@YAKAAV__crt_cached_ptd_host@@V?$c_string_character_source@D@0@H_N@Z 1008e3d6 f i libucrt:output.obj
 0001:0008d5e9       ??$parse_integer@KV?$c_string_character_source@_W@__crt_strtox@@$0A@@__crt_strtox@@YAKAAV__crt_cached_ptd_host@@V?$c_string_character_source@_W@0@H_N@Z 1008e5e9 f i libucrt:output.obj
 0001:0008dbcd       ??$scratch_data@D@formatting_buffer@__crt_stdio_output@@QAEPADXZ 1008ebcd f i libucrt:output.obj
 0001:0008dbeb       ??$type_case_integer@$07@?$output_processor@DV?$stream_output_adapter@D@__crt_stdio_output@@V?$standard_base@DV?$stream_output_adapter@D@__crt_stdio_output@@@2@@__crt_stdio_output@@AAE_N_N@Z 1008ebeb f i libucrt:output.obj
 0001:0008dbeb       ??$type_case_integer@$07@?$output_processor@DV?$string_output_adapter@D@__crt_stdio_output@@V?$format_validation_base@DV?$string_output_adapter@D@__crt_stdio_output@@@2@@__crt_stdio_output@@AAE_N_N@Z 1008ebeb f i libucrt:output.obj
 0001:0008dbeb       ??$type_case_integer@$07@?$output_processor@DV?$string_output_adapter@D@__crt_stdio_output@@V?$standard_base@DV?$string_output_adapter@D@__crt_stdio_output@@@2@@__crt_stdio_output@@AAE_N_N@Z 1008ebeb f i libucrt:output.obj
 0001:0008dd78       ??$type_case_integer@$07@?$output_processor@_WV?$string_output_adapter@_W@__crt_stdio_output@@V?$format_validation_base@_WV?$string_output_adapter@_W@__crt_stdio_output@@@2@@__crt_stdio_output@@AAE_N_N@Z 1008ed78 f i libucrt:output.obj
 0001:0008df0a       ??$type_case_integer@$09@?$output_processor@DV?$stream_output_adapter@D@__crt_stdio_output@@V?$standard_base@DV?$stream_output_adapter@D@__crt_stdio_output@@@2@@__crt_stdio_output@@AAE_N_N@Z 1008ef0a f i libucrt:output.obj
 0001:0008df0a       ??$type_case_integer@$09@?$output_processor@DV?$string_output_adapter@D@__crt_stdio_output@@V?$format_validation_base@DV?$string_output_adapter@D@__crt_stdio_output@@@2@@__crt_stdio_output@@AAE_N_N@Z 1008ef0a f i libucrt:output.obj
 0001:0008df0a       ??$type_case_integer@$09@?$output_processor@DV?$string_output_adapter@D@__crt_stdio_output@@V?$standard_base@DV?$string_output_adapter@D@__crt_stdio_output@@@2@@__crt_stdio_output@@AAE_N_N@Z 1008ef0a f i libucrt:output.obj
 0001:0008e097       ??$type_case_integer@$09@?$output_processor@_WV?$string_output_adapter@_W@__crt_stdio_output@@V?$format_validation_base@_WV?$string_output_adapter@_W@__crt_stdio_output@@@2@@__crt_stdio_output@@AAE_N_N@Z 1008f097 f i libucrt:output.obj
 0001:0008e229       ??$type_case_integer@$0BA@@?$output_processor@DV?$stream_output_adapter@D@__crt_stdio_output@@V?$standard_base@DV?$stream_output_adapter@D@__crt_stdio_output@@@2@@__crt_stdio_output@@AAE_N_N@Z 1008f229 f i libucrt:output.obj
 0001:0008e229       ??$type_case_integer@$0BA@@?$output_processor@DV?$string_output_adapter@D@__crt_stdio_output@@V?$format_validation_base@DV?$string_output_adapter@D@__crt_stdio_output@@@2@@__crt_stdio_output@@AAE_N_N@Z 1008f229 f i libucrt:output.obj
 0001:0008e229       ??$type_case_integer@$0BA@@?$output_processor@DV?$string_output_adapter@D@__crt_stdio_output@@V?$standard_base@DV?$string_output_adapter@D@__crt_stdio_output@@@2@@__crt_stdio_output@@AAE_N_N@Z 1008f229 f i libucrt:output.obj
 0001:0008e3b6       ??$type_case_integer@$0BA@@?$output_processor@_WV?$string_output_adapter@_W@__crt_stdio_output@@V?$format_validation_base@_WV?$string_output_adapter@_W@__crt_stdio_output@@@2@@__crt_stdio_output@@AAE_N_N@Z 1008f3b6 f i libucrt:output.obj
 0001:0008e548       ??$type_case_integer_parse_into_buffer@I$07@?$output_processor@DV?$stream_output_adapter@D@__crt_stdio_output@@V?$standard_base@DV?$stream_output_adapter@D@__crt_stdio_output@@@2@@__crt_stdio_output@@AAEXI_N@Z 1008f548 f i libucrt:output.obj
 0001:0008e548       ??$type_case_integer_parse_into_buffer@I$07@?$output_processor@DV?$string_output_adapter@D@__crt_stdio_output@@V?$format_validation_base@DV?$string_output_adapter@D@__crt_stdio_output@@@2@@__crt_stdio_output@@AAEXI_N@Z 1008f548 f i libucrt:output.obj
 0001:0008e548       ??$type_case_integer_parse_into_buffer@I$07@?$output_processor@DV?$string_output_adapter@D@__crt_stdio_output@@V?$standard_base@DV?$string_output_adapter@D@__crt_stdio_output@@@2@@__crt_stdio_output@@AAEXI_N@Z 1008f548 f i libucrt:output.obj
 0001:0008e5aa       ??$type_case_integer_parse_into_buffer@I$07@?$output_processor@_WV?$string_output_adapter@_W@__crt_stdio_output@@V?$format_validation_base@_WV?$string_output_adapter@_W@__crt_stdio_output@@@2@@__crt_stdio_output@@AAEXI_N@Z 1008f5aa f i libucrt:output.obj
 0001:0008e61b       ??$type_case_integer_parse_into_buffer@I$09@?$output_processor@DV?$stream_output_adapter@D@__crt_stdio_output@@V?$standard_base@DV?$stream_output_adapter@D@__crt_stdio_output@@@2@@__crt_stdio_output@@AAEXI_N@Z 1008f61b f i libucrt:output.obj
 0001:0008e61b       ??$type_case_integer_parse_into_buffer@I$09@?$output_processor@DV?$string_output_adapter@D@__crt_stdio_output@@V?$format_validation_base@DV?$string_output_adapter@D@__crt_stdio_output@@@2@@__crt_stdio_output@@AAEXI_N@Z 1008f61b f i libucrt:output.obj
 0001:0008e61b       ??$type_case_integer_parse_into_buffer@I$09@?$output_processor@DV?$string_output_adapter@D@__crt_stdio_output@@V?$standard_base@DV?$string_output_adapter@D@__crt_stdio_output@@@2@@__crt_stdio_output@@AAEXI_N@Z 1008f61b f i libucrt:output.obj
 0001:0008e69a       ??$type_case_integer_parse_into_buffer@I$09@?$output_processor@_WV?$string_output_adapter@_W@__crt_stdio_output@@V?$format_validation_base@_WV?$string_output_adapter@_W@__crt_stdio_output@@@2@@__crt_stdio_output@@AAEXI_N@Z 1008f69a f i libucrt:output.obj
 0001:0008e72f       ??$type_case_integer_parse_into_buffer@I$0BA@@?$output_processor@DV?$stream_output_adapter@D@__crt_stdio_output@@V?$standard_base@DV?$stream_output_adapter@D@__crt_stdio_output@@@2@@__crt_stdio_output@@AAEXI_N@Z 1008f72f f i libucrt:output.obj
 0001:0008e72f       ??$type_case_integer_parse_into_buffer@I$0BA@@?$output_processor@DV?$string_output_adapter@D@__crt_stdio_output@@V?$format_validation_base@DV?$string_output_adapter@D@__crt_stdio_output@@@2@@__crt_stdio_output@@AAEXI_N@Z 1008f72f f i libucrt:output.obj
 0001:0008e72f       ??$type_case_integer_parse_into_buffer@I$0BA@@?$output_processor@DV?$string_output_adapter@D@__crt_stdio_output@@V?$standard_base@DV?$string_output_adapter@D@__crt_stdio_output@@@2@@__crt_stdio_output@@AAEXI_N@Z 1008f72f f i libucrt:output.obj
 0001:0008e7ab       ??$type_case_integer_parse_into_buffer@I$0BA@@?$output_processor@_WV?$string_output_adapter@_W@__crt_stdio_output@@V?$format_validation_base@_WV?$string_output_adapter@_W@__crt_stdio_output@@@2@@__crt_stdio_output@@AAEXI_N@Z 1008f7ab f i libucrt:output.obj
 0001:0008e836       ??$type_case_integer_parse_into_buffer@_K$07@?$output_processor@DV?$stream_output_adapter@D@__crt_stdio_output@@V?$standard_base@DV?$stream_output_adapter@D@__crt_stdio_output@@@2@@__crt_stdio_output@@AAEX_K_N@Z 1008f836 f i libucrt:output.obj
 0001:0008e836       ??$type_case_integer_parse_into_buffer@_K$07@?$output_processor@DV?$string_output_adapter@D@__crt_stdio_output@@V?$format_validation_base@DV?$string_output_adapter@D@__crt_stdio_output@@@2@@__crt_stdio_output@@AAEX_K_N@Z 1008f836 f i libucrt:output.obj
 0001:0008e836       ??$type_case_integer_parse_into_buffer@_K$07@?$output_processor@DV?$string_output_adapter@D@__crt_stdio_output@@V?$standard_base@DV?$string_output_adapter@D@__crt_stdio_output@@@2@@__crt_stdio_output@@AAEX_K_N@Z 1008f836 f i libucrt:output.obj
 0001:0008e8aa       ??$type_case_integer_parse_into_buffer@_K$07@?$output_processor@_WV?$string_output_adapter@_W@__crt_stdio_output@@V?$format_validation_base@_WV?$string_output_adapter@_W@__crt_stdio_output@@@2@@__crt_stdio_output@@AAEX_K_N@Z 1008f8aa f i libucrt:output.obj
 0001:0008e92a       ??$type_case_integer_parse_into_buffer@_K$09@?$output_processor@DV?$stream_output_adapter@D@__crt_stdio_output@@V?$standard_base@DV?$stream_output_adapter@D@__crt_stdio_output@@@2@@__crt_stdio_output@@AAEX_K_N@Z 1008f92a f i libucrt:output.obj
 0001:0008e92a       ??$type_case_integer_parse_into_buffer@_K$09@?$output_processor@DV?$string_output_adapter@D@__crt_stdio_output@@V?$format_validation_base@DV?$string_output_adapter@D@__crt_stdio_output@@@2@@__crt_stdio_output@@AAEX_K_N@Z 1008f92a f i libucrt:output.obj
 0001:0008e92a       ??$type_case_integer_parse_into_buffer@_K$09@?$output_processor@DV?$string_output_adapter@D@__crt_stdio_output@@V?$standard_base@DV?$string_output_adapter@D@__crt_stdio_output@@@2@@__crt_stdio_output@@AAEX_K_N@Z 1008f92a f i libucrt:output.obj
 0001:0008e9bc       ??$type_case_integer_parse_into_buffer@_K$09@?$output_processor@_WV?$string_output_adapter@_W@__crt_stdio_output@@V?$format_validation_base@_WV?$string_output_adapter@_W@__crt_stdio_output@@@2@@__crt_stdio_output@@AAEX_K_N@Z 1008f9bc f i libucrt:output.obj
 0001:0008ea61       ??$type_case_integer_parse_into_buffer@_K$0BA@@?$output_processor@DV?$stream_output_adapter@D@__crt_stdio_output@@V?$standard_base@DV?$stream_output_adapter@D@__crt_stdio_output@@@2@@__crt_stdio_output@@AAEX_K_N@Z 1008fa61 f i libucrt:output.obj
 0001:0008ea61       ??$type_case_integer_parse_into_buffer@_K$0BA@@?$output_processor@DV?$string_output_adapter@D@__crt_stdio_output@@V?$format_validation_base@DV?$string_output_adapter@D@__crt_stdio_output@@@2@@__crt_stdio_output@@AAEX_K_N@Z 1008fa61 f i libucrt:output.obj
 0001:0008ea61       ??$type_case_integer_parse_into_buffer@_K$0BA@@?$output_processor@DV?$string_output_adapter@D@__crt_stdio_output@@V?$standard_base@DV?$string_output_adapter@D@__crt_stdio_output@@@2@@__crt_stdio_output@@AAEX_K_N@Z 1008fa61 f i libucrt:output.obj
 0001:0008eae7       ??$type_case_integer_parse_into_buffer@_K$0BA@@?$output_processor@_WV?$string_output_adapter@_W@__crt_stdio_output@@V?$format_validation_base@_WV?$string_output_adapter@_W@__crt_stdio_output@@@2@@__crt_stdio_output@@AAEX_K_N@Z 1008fae7 f i libucrt:output.obj
 0001:0008eb79       ??0?$output_adapter_data@DV?$stream_output_adapter@D@__crt_stdio_output@@@__crt_stdio_output@@IAE@ABV?$stream_output_adapter@D@1@_KQBDAAV__crt_cached_ptd_host@@QAD@Z 1008fb79 f i libucrt:output.obj
 0001:0008eb79       ??0?$output_adapter_data@DV?$string_output_adapter@D@__crt_stdio_output@@@__crt_stdio_output@@IAE@ABV?$string_output_adapter@D@1@_KQBDAAV__crt_cached_ptd_host@@QAD@Z 1008fb79 f i libucrt:output.obj
 0001:0008ebe0       ??0?$output_adapter_data@_WV?$string_output_adapter@_W@__crt_stdio_output@@@__crt_stdio_output@@IAE@ABV?$string_output_adapter@_W@1@_KQB_WAAV__crt_cached_ptd_host@@QAD@Z 1008fbe0 f i libucrt:output.obj
 0001:0008ec4c       ??1formatting_buffer@__crt_stdio_output@@QAE@XZ 1008fc4c f i libucrt:output.obj
 0001:0008ec66       ??4?$__crt_unique_heap_ptr@DU__crt_internal_free_policy@@@@QAEAAV0@$$QAV0@@Z 1008fc66 f i libucrt:output.obj
 0001:0008ec66       ??4?$__crt_unique_heap_ptr@EU__crt_internal_free_policy@@@@QAEAAV0@$$QAV0@@Z 1008fc66 f i libucrt:input.obj
 0001:0008ed26       ?crop_zeroes@__crt_stdio_output@@YAXPADQAU__crt_locale_pointers@@@Z 1008fd26 f i libucrt:output.obj
 0001:0008ed90       ?find_next_state@?$output_processor@DV?$stream_output_adapter@D@__crt_stdio_output@@V?$standard_base@DV?$stream_output_adapter@D@__crt_stdio_output@@@2@@__crt_stdio_output@@ABE?AW4state@2@DW432@@Z 1008fd90 f i libucrt:output.obj
 0001:0008ed90       ?find_next_state@?$output_processor@DV?$string_output_adapter@D@__crt_stdio_output@@V?$standard_base@DV?$string_output_adapter@D@__crt_stdio_output@@@2@@__crt_stdio_output@@ABE?AW4state@2@DW432@@Z 1008fd90 f i libucrt:output.obj
 0001:0008edcb       ?find_next_state@?$output_processor@DV?$string_output_adapter@D@__crt_stdio_output@@V?$format_validation_base@DV?$string_output_adapter@D@__crt_stdio_output@@@2@@__crt_stdio_output@@ABE?AW4state@2@DW432@@Z 1008fdcb f i libucrt:output.obj
 0001:0008ee08       ?find_next_state@?$output_processor@_WV?$string_output_adapter@_W@__crt_stdio_output@@V?$format_validation_base@_WV?$string_output_adapter@_W@__crt_stdio_output@@@2@@__crt_stdio_output@@ABE?AW4state@2@_WW432@@Z 1008fe08 f i libucrt:output.obj
 0001:0008ee44       ?force_decimal_point@__crt_stdio_output@@YAXPADQAU__crt_locale_pointers@@@Z 1008fe44 f i libucrt:output.obj
 0001:0008eea6       ?parse_int_from_format_string@?$output_processor@DV?$stream_output_adapter@D@__crt_stdio_output@@V?$standard_base@DV?$stream_output_adapter@D@__crt_stdio_output@@@2@@__crt_stdio_output@@AAE_NQAH@Z 1008fea6 f i libucrt:output.obj
 0001:0008eea6       ?parse_int_from_format_string@?$output_processor@DV?$string_output_adapter@D@__crt_stdio_output@@V?$format_validation_base@DV?$string_output_adapter@D@__crt_stdio_output@@@2@@__crt_stdio_output@@AAE_NQAH@Z 1008fea6 f i libucrt:output.obj
 0001:0008eea6       ?parse_int_from_format_string@?$output_processor@DV?$string_output_adapter@D@__crt_stdio_output@@V?$standard_base@DV?$string_output_adapter@D@__crt_stdio_output@@@2@@__crt_stdio_output@@AAE_NQAH@Z 1008fea6 f i libucrt:output.obj
 0001:0008ef1e       ?parse_int_from_format_string@?$output_processor@_WV?$string_output_adapter@_W@__crt_stdio_output@@V?$format_validation_base@_WV?$string_output_adapter@_W@__crt_stdio_output@@@2@@__crt_stdio_output@@AAE_NQAH@Z 1008ff1e f i libucrt:output.obj
 0001:0008ef98       ?process@?$output_processor@DV?$stream_output_adapter@D@__crt_stdio_output@@V?$standard_base@DV?$stream_output_adapter@D@__crt_stdio_output@@@2@@__crt_stdio_output@@QAEHXZ 1008ff98 f i libucrt:output.obj
 0001:0008f240       ?process@?$output_processor@DV?$string_output_adapter@D@__crt_stdio_output@@V?$format_validation_base@DV?$string_output_adapter@D@__crt_stdio_output@@@2@@__crt_stdio_output@@QAEHXZ 10090240 f i libucrt:output.obj
 0001:0008f528       ?process@?$output_processor@DV?$string_output_adapter@D@__crt_stdio_output@@V?$standard_base@DV?$string_output_adapter@D@__crt_stdio_output@@@2@@__crt_stdio_output@@QAEHXZ 10090528 f i libucrt:output.obj
 0001:0008f7fc       ?process@?$output_processor@_WV?$string_output_adapter@_W@__crt_stdio_output@@V?$format_validation_base@_WV?$string_output_adapter@_W@__crt_stdio_output@@@2@@__crt_stdio_output@@QAEHXZ 100907fc f i libucrt:output.obj
 0001:0008fa54       ?state_case_size@?$output_processor@DV?$stream_output_adapter@D@__crt_stdio_output@@V?$standard_base@DV?$stream_output_adapter@D@__crt_stdio_output@@@2@@__crt_stdio_output@@AAE_NXZ 10090a54 f i libucrt:output.obj
 0001:0008fbad       ?state_case_size@?$output_processor@DV?$string_output_adapter@D@__crt_stdio_output@@V?$format_validation_base@DV?$string_output_adapter@D@__crt_stdio_output@@@2@@__crt_stdio_output@@AAE_NXZ 10090bad f i libucrt:output.obj
 0001:0008fbad       ?state_case_size@?$output_processor@DV?$string_output_adapter@D@__crt_stdio_output@@V?$standard_base@DV?$string_output_adapter@D@__crt_stdio_output@@@2@@__crt_stdio_output@@AAE_NXZ 10090bad f i libucrt:output.obj
 0001:0008fd06       ?state_case_size@?$output_processor@_WV?$string_output_adapter@_W@__crt_stdio_output@@V?$format_validation_base@_WV?$string_output_adapter@_W@__crt_stdio_output@@@2@@__crt_stdio_output@@AAE_NXZ 10090d06 f i libucrt:output.obj
 0001:0008fe90       ?state_case_type@?$output_processor@DV?$stream_output_adapter@D@__crt_stdio_output@@V?$standard_base@DV?$stream_output_adapter@D@__crt_stdio_output@@@2@@__crt_stdio_output@@AAE_NXZ 10090e90 f i libucrt:output.obj
 0001:00090287       ?state_case_type@?$output_processor@DV?$string_output_adapter@D@__crt_stdio_output@@V?$format_validation_base@DV?$string_output_adapter@D@__crt_stdio_output@@@2@@__crt_stdio_output@@AAE_NXZ 10091287 f i libucrt:output.obj
 0001:00090287       ?state_case_type@?$output_processor@DV?$string_output_adapter@D@__crt_stdio_output@@V?$standard_base@DV?$string_output_adapter@D@__crt_stdio_output@@@2@@__crt_stdio_output@@AAE_NXZ 10091287 f i libucrt:output.obj
 0001:000906c6       ?state_case_type@?$output_processor@_WV?$string_output_adapter@_W@__crt_stdio_output@@V?$format_validation_base@_WV?$string_output_adapter@_W@__crt_stdio_output@@@2@@__crt_stdio_output@@AAE_NXZ 100916c6 f i libucrt:output.obj
 0001:00090bdc       ?to_integer_size@__crt_stdio_output@@YAIW4length_modifier@1@@Z 10091bdc f i libucrt:output.obj
 0001:00090c30       ?type_case_Z@?$output_processor@DV?$stream_output_adapter@D@__crt_stdio_output@@V?$standard_base@DV?$stream_output_adapter@D@__crt_stdio_output@@@2@@__crt_stdio_output@@AAE_NXZ 10091c30 f i libucrt:output.obj
 0001:00090c30       ?type_case_Z@?$output_processor@DV?$string_output_adapter@D@__crt_stdio_output@@V?$format_validation_base@DV?$string_output_adapter@D@__crt_stdio_output@@@2@@__crt_stdio_output@@AAE_NXZ 10091c30 f i libucrt:output.obj
 0001:00090c30       ?type_case_Z@?$output_processor@DV?$string_output_adapter@D@__crt_stdio_output@@V?$standard_base@DV?$string_output_adapter@D@__crt_stdio_output@@@2@@__crt_stdio_output@@AAE_NXZ 10091c30 f i libucrt:output.obj
 0001:00090ca3       ?type_case_Z@?$output_processor@_WV?$string_output_adapter@_W@__crt_stdio_output@@V?$format_validation_base@_WV?$string_output_adapter@_W@__crt_stdio_output@@@2@@__crt_stdio_output@@AAE_NXZ 10091ca3 f i libucrt:output.obj
 0001:00090d17       ?type_case_a@?$output_processor@DV?$stream_output_adapter@D@__crt_stdio_output@@V?$standard_base@DV?$stream_output_adapter@D@__crt_stdio_output@@@2@@__crt_stdio_output@@AAE_NXZ 10091d17 f i libucrt:output.obj
 0001:00090d17       ?type_case_a@?$output_processor@DV?$string_output_adapter@D@__crt_stdio_output@@V?$format_validation_base@DV?$string_output_adapter@D@__crt_stdio_output@@@2@@__crt_stdio_output@@AAE_NXZ 10091d17 f i libucrt:output.obj
 0001:00090d17       ?type_case_a@?$output_processor@DV?$string_output_adapter@D@__crt_stdio_output@@V?$standard_base@DV?$string_output_adapter@D@__crt_stdio_output@@@2@@__crt_stdio_output@@AAE_NXZ 10091d17 f i libucrt:output.obj
 0001:00090ece       ?type_case_a@?$output_processor@_WV?$string_output_adapter@_W@__crt_stdio_output@@V?$format_validation_base@_WV?$string_output_adapter@_W@__crt_stdio_output@@@2@@__crt_stdio_output@@AAE_NXZ 10091ece f i libucrt:output.obj
 0001:0009109b       ?type_case_c_tchar@?$output_processor@DV?$stream_output_adapter@D@__crt_stdio_output@@V?$standard_base@DV?$stream_output_adapter@D@__crt_stdio_output@@@2@@__crt_stdio_output@@AAE_ND@Z 1009209b f i libucrt:output.obj
 0001:0009109b       ?type_case_c_tchar@?$output_processor@DV?$string_output_adapter@D@__crt_stdio_output@@V?$format_validation_base@DV?$string_output_adapter@D@__crt_stdio_output@@@2@@__crt_stdio_output@@AAE_ND@Z 1009209b f i libucrt:output.obj
 0001:0009109b       ?type_case_c_tchar@?$output_processor@DV?$string_output_adapter@D@__crt_stdio_output@@V?$standard_base@DV?$string_output_adapter@D@__crt_stdio_output@@@2@@__crt_stdio_output@@AAE_ND@Z 1009209b f i libucrt:output.obj
 0001:00091127       ?type_case_c_tchar@?$output_processor@_WV?$string_output_adapter@_W@__crt_stdio_output@@V?$format_validation_base@_WV?$string_output_adapter@_W@__crt_stdio_output@@@2@@__crt_stdio_output@@AAE_N_W@Z 10092127 f i libucrt:output.obj
 0001:000911cc       ?type_case_n@?$output_processor@DV?$stream_output_adapter@D@__crt_stdio_output@@V?$standard_base@DV?$stream_output_adapter@D@__crt_stdio_output@@@2@@__crt_stdio_output@@AAE_NXZ 100921cc f i libucrt:output.obj
 0001:000911cc       ?type_case_n@?$output_processor@DV?$string_output_adapter@D@__crt_stdio_output@@V?$format_validation_base@DV?$string_output_adapter@D@__crt_stdio_output@@@2@@__crt_stdio_output@@AAE_NXZ 100921cc f i libucrt:output.obj
 0001:000911cc       ?type_case_n@?$output_processor@DV?$string_output_adapter@D@__crt_stdio_output@@V?$standard_base@DV?$string_output_adapter@D@__crt_stdio_output@@@2@@__crt_stdio_output@@AAE_NXZ 100921cc f i libucrt:output.obj
 0001:000911cc       ?type_case_n@?$output_processor@_WV?$string_output_adapter@_W@__crt_stdio_output@@V?$format_validation_base@_WV?$string_output_adapter@_W@__crt_stdio_output@@@2@@__crt_stdio_output@@AAE_NXZ 100921cc f i libucrt:output.obj
 0001:00091251       ?type_case_o@?$output_processor@DV?$stream_output_adapter@D@__crt_stdio_output@@V?$standard_base@DV?$stream_output_adapter@D@__crt_stdio_output@@@2@@__crt_stdio_output@@AAE_NXZ 10092251 f i libucrt:output.obj
 0001:00091251       ?type_case_o@?$output_processor@DV?$string_output_adapter@D@__crt_stdio_output@@V?$format_validation_base@DV?$string_output_adapter@D@__crt_stdio_output@@@2@@__crt_stdio_output@@AAE_NXZ 10092251 f i libucrt:output.obj
 0001:00091251       ?type_case_o@?$output_processor@DV?$string_output_adapter@D@__crt_stdio_output@@V?$standard_base@DV?$string_output_adapter@D@__crt_stdio_output@@@2@@__crt_stdio_output@@AAE_NXZ 10092251 f i libucrt:output.obj
 0001:0009126e       ?type_case_o@?$output_processor@_WV?$string_output_adapter@_W@__crt_stdio_output@@V?$format_validation_base@_WV?$string_output_adapter@_W@__crt_stdio_output@@@2@@__crt_stdio_output@@AAE_NXZ 1009226e f i libucrt:output.obj
 0001:0009128b       ?type_case_p@?$output_processor@DV?$stream_output_adapter@D@__crt_stdio_output@@V?$standard_base@DV?$stream_output_adapter@D@__crt_stdio_output@@@2@@__crt_stdio_output@@AAE_NXZ 1009228b f i libucrt:output.obj
 0001:0009128b       ?type_case_p@?$output_processor@DV?$string_output_adapter@D@__crt_stdio_output@@V?$format_validation_base@DV?$string_output_adapter@D@__crt_stdio_output@@@2@@__crt_stdio_output@@AAE_NXZ 1009228b f i libucrt:output.obj
 0001:0009128b       ?type_case_p@?$output_processor@DV?$string_output_adapter@D@__crt_stdio_output@@V?$standard_base@DV?$string_output_adapter@D@__crt_stdio_output@@@2@@__crt_stdio_output@@AAE_NXZ 1009228b f i libucrt:output.obj
 0001:000912a1       ?type_case_p@?$output_processor@_WV?$string_output_adapter@_W@__crt_stdio_output@@V?$format_validation_base@_WV?$string_output_adapter@_W@__crt_stdio_output@@@2@@__crt_stdio_output@@AAE_NXZ 100922a1 f i libucrt:output.obj
 0001:000912b7       ?type_case_s@?$output_processor@DV?$stream_output_adapter@D@__crt_stdio_output@@V?$standard_base@DV?$stream_output_adapter@D@__crt_stdio_output@@@2@@__crt_stdio_output@@AAE_NXZ 100922b7 f i libucrt:output.obj
 0001:000912b7       ?type_case_s@?$output_processor@DV?$string_output_adapter@D@__crt_stdio_output@@V?$format_validation_base@DV?$string_output_adapter@D@__crt_stdio_output@@@2@@__crt_stdio_output@@AAE_NXZ 100922b7 f i libucrt:output.obj
 0001:000912b7       ?type_case_s@?$output_processor@DV?$string_output_adapter@D@__crt_stdio_output@@V?$standard_base@DV?$string_output_adapter@D@__crt_stdio_output@@@2@@__crt_stdio_output@@AAE_NXZ 100922b7 f i libucrt:output.obj
 0001:0009132a       ?type_case_s@?$output_processor@_WV?$string_output_adapter@_W@__crt_stdio_output@@V?$format_validation_base@_WV?$string_output_adapter@_W@__crt_stdio_output@@@2@@__crt_stdio_output@@AAE_NXZ 1009232a f i libucrt:output.obj
 0001:0009139f       ?type_case_s_compute_narrow_string_length@?$output_processor@_WV?$string_output_adapter@_W@__crt_stdio_output@@V?$format_validation_base@_WV?$string_output_adapter@_W@__crt_stdio_output@@@2@@__crt_stdio_output@@AAEHH_W@Z 1009239f f i libucrt:output.obj
 0001:00091465       ?unget@?$c_string_character_source@D@__crt_strtox@@QAEXD@Z 10092465 f i libucrt:output.obj
 0001:0009148e       ?unget@?$c_string_character_source@_W@__crt_strtox@@QAEX_W@Z 1009248e f i libucrt:output.obj
 0001:000914c0       ?update_locale_slow@__crt_cached_ptd_host@@AAEXXZ 100924c0 f i libucrt:output.obj
 0001:0009151b       ?validate@?$c_string_character_source@D@__crt_strtox@@QBE_NXZ 1009251b f i libucrt:output.obj
 0001:0009151b       ?validate@?$c_string_character_source@_W@__crt_strtox@@QBE_NXZ 1009251b f i libucrt:output.obj
 0001:00091536       ?validate@?$stream_output_adapter@D@__crt_stdio_output@@QBE_NAAV__crt_cached_ptd_host@@@Z 10092536 f i libucrt:output.obj
 0001:0009156e       ?validate@?$string_output_adapter@D@__crt_stdio_output@@QBE_NAAV__crt_cached_ptd_host@@@Z 1009256e f i libucrt:output.obj
 0001:0009156e       ?validate@?$string_output_adapter@_W@__crt_stdio_output@@QBE_NAAV__crt_cached_ptd_host@@@Z 1009256e f i libucrt:output.obj
 0001:0009159f       ?validate_stream_is_ansi_if_required@?$__acrt_stdio_char_traits@D@@SA_NQAU_iobuf@@@Z 1009259f f i libucrt:output.obj
 0001:00091626       ?write_character@?$output_adapter_common@DV?$stream_output_adapter@D@__crt_stdio_output@@@__crt_stdio_output@@QBEXDQAHAAV__crt_cached_ptd_host@@@Z 10092626 f i libucrt:output.obj
 0001:00091648       ?write_character_without_count_update@?$stream_output_adapter@D@__crt_stdio_output@@QBE_NDAAV__crt_cached_ptd_host@@@Z 10092648 f i libucrt:output.obj
 0001:00091682       ?write_string@?$stream_output_adapter@D@__crt_stdio_output@@QBEXQBDHQAHAAV__crt_cached_ptd_host@@@Z 10092682 f i libucrt:output.obj
 0001:000916ae       ?write_string@?$string_output_adapter@D@__crt_stdio_output@@QBEXQBDHQAHAAV__crt_cached_ptd_host@@@Z 100926ae f i libucrt:output.obj
 0001:0009171d       ?write_string@?$string_output_adapter@_W@__crt_stdio_output@@QBEXQB_WHQAHAAV__crt_cached_ptd_host@@@Z 1009271d f i libucrt:output.obj
 0001:00091796       ?write_string_impl@?$output_adapter_common@DV?$stream_output_adapter@D@__crt_stdio_output@@@__crt_stdio_output@@IBEXQBDHQAHAAV__crt_cached_ptd_host@@@Z 10092796 f i libucrt:output.obj
 0001:00091815       ___acrt_locale_get_ctype_array_value 10092815 f i libucrt:output.obj
 0001:00091837       ___stdio_common_vfprintf   10092837 f   libucrt:output.obj
 0001:000918db       ___stdio_common_vsprintf   100928db f   libucrt:output.obj
 0001:0009191c       ___stdio_common_vsprintf_s 1009291c f   libucrt:output.obj
 0001:0009195d       ___stdio_common_vswprintf_s 1009295d f   libucrt:output.obj
 0001:0009199e       _rand                      1009299e f   libucrt:rand.obj
 0001:000919bf       ??$assemble_floating_point_snan@N@__crt_strtox@@YAX_NAAN@Z 100929bf f i libucrt:input.obj
 0001:000919e0       ??$assemble_floating_point_value_t@M@__crt_strtox@@YA?AW4SLD_STATUS@@_NH_KAAM@Z 100929e0 f i libucrt:input.obj
 0001:00091a1f       ??$assemble_floating_point_value_t@N@__crt_strtox@@YA?AW4SLD_STATUS@@_NH_KAAN@Z 10092a1f f i libucrt:input.obj
 0001:00091bae       ??$convert_decimal_string_to_floating_type@M@__crt_strtox@@YA?AW4SLD_STATUS@@ABUfloating_point_string@0@AAM@Z 10092bae f i libucrt:input.obj
 0001:00091bcf       ??$convert_decimal_string_to_floating_type@N@__crt_strtox@@YA?AW4SLD_STATUS@@ABUfloating_point_string@0@AAN@Z 10092bcf f i libucrt:input.obj
 0001:00091bf0       ??$convert_hexadecimal_string_to_floating_type@M@__crt_strtox@@YA?AW4SLD_STATUS@@ABUfloating_point_string@0@AAM@Z 10092bf0 f i libucrt:input.obj
 0001:00091c11       ??$convert_hexadecimal_string_to_floating_type@N@__crt_strtox@@YA?AW4SLD_STATUS@@ABUfloating_point_string@0@AAN@Z 10092c11 f i libucrt:input.obj
 0001:00091c32       ??$is_overflow_condition@_K@__crt_strtox@@YA_NI_K@Z 10092c32 f i libucrt:input.obj
 0001:00091c73       ??$make_input_adapter_character_source@V?$string_input_adapter@D@__crt_stdio_input@@@__crt_strtox@@YA?AV?$input_adapter_character_source@V?$string_input_adapter@D@__crt_stdio_input@@@0@QAV?$string_input_adapter@D@__crt_stdio_input@@_KQA_N@Z 10092c73 f i libucrt:input.obj
 0001:00091c73       ??$make_input_adapter_character_source@V?$string_input_adapter@_W@__crt_stdio_input@@@__crt_strtox@@YA?AV?$input_adapter_character_source@V?$string_input_adapter@_W@__crt_stdio_input@@@0@QAV?$string_input_adapter@_W@__crt_stdio_input@@_KQA_N@Z 10092c73 f i libucrt:input.obj
 0001:00091c91       ??$parse_floating_point@V?$input_adapter_character_source@V?$string_input_adapter@D@__crt_stdio_input@@@__crt_strtox@@M@__crt_strtox@@YA?AW4SLD_STATUS@@QAU__crt_locale_pointers@@V?$input_adapter_character_source@V?$string_input_adapter@D@__crt_stdio_input@@@0@QAM@Z 10092c91 f i libucrt:input.obj
 0001:00091d1b       ??$parse_floating_point@V?$input_adapter_character_source@V?$string_input_adapter@D@__crt_stdio_input@@@__crt_strtox@@N@__crt_strtox@@YA?AW4SLD_STATUS@@QAU__crt_locale_pointers@@V?$input_adapter_character_source@V?$string_input_adapter@D@__crt_stdio_input@@@0@QAN@Z 10092d1b f i libucrt:input.obj
 0001:00091da5       ??$parse_floating_point@V?$input_adapter_character_source@V?$string_input_adapter@_W@__crt_stdio_input@@@__crt_strtox@@M@__crt_strtox@@YA?AW4SLD_STATUS@@QAU__crt_locale_pointers@@V?$input_adapter_character_source@V?$string_input_adapter@_W@__crt_stdio_input@@@0@QAM@Z 10092da5 f i libucrt:input.obj
 0001:00091e2f       ??$parse_floating_point@V?$input_adapter_character_source@V?$string_input_adapter@_W@__crt_stdio_input@@@__crt_strtox@@N@__crt_strtox@@YA?AW4SLD_STATUS@@QAU__crt_locale_pointers@@V?$input_adapter_character_source@V?$string_input_adapter@_W@__crt_stdio_input@@@0@QAN@Z 10092e2f f i libucrt:input.obj
 0001:00091eb9       ??$parse_floating_point_from_source@V?$input_adapter_character_source@V?$string_input_adapter@D@__crt_stdio_input@@@__crt_strtox@@@__crt_strtox@@YA?AW4floating_point_parse_result@0@QAU__crt_locale_pointers@@AAV?$input_adapter_character_source@V?$string_input_adapter@D@__crt_stdio_input@@@0@AAUfloating_point_string@0@@Z 10092eb9 f i libucrt:input.obj
 0001:00092326       ??$parse_floating_point_from_source@V?$input_adapter_character_source@V?$string_input_adapter@_W@__crt_stdio_input@@@__crt_strtox@@@__crt_strtox@@YA?AW4floating_point_parse_result@0@QAU__crt_locale_pointers@@AAV?$input_adapter_character_source@V?$string_input_adapter@_W@__crt_stdio_input@@@0@AAUfloating_point_string@0@@Z 10093326 f i libucrt:input.obj
 0001:00092e2e       ??$parse_floating_point_possible_infinity@DV?$input_adapter_character_source@V?$string_input_adapter@D@__crt_stdio_input@@@__crt_strtox@@_K@__crt_strtox@@YA?AW4floating_point_parse_result@0@AADAAV?$input_adapter_character_source@V?$string_input_adapter@D@__crt_stdio_input@@@0@_K@Z 10093e2e f i libucrt:input.obj
 0001:00092ee9       ??$parse_floating_point_possible_infinity@_WV?$input_adapter_character_source@V?$string_input_adapter@_W@__crt_stdio_input@@@__crt_strtox@@_K@__crt_strtox@@YA?AW4floating_point_parse_result@0@AA_WAAV?$input_adapter_character_source@V?$string_input_adapter@_W@__crt_stdio_input@@@0@_K@Z 10093ee9 f i libucrt:input.obj
 0001:00092fb8       ??$parse_floating_point_possible_nan@DV?$input_adapter_character_source@V?$string_input_adapter@D@__crt_stdio_input@@@__crt_strtox@@_K@__crt_strtox@@YA?AW4floating_point_parse_result@0@AADAAV?$input_adapter_character_source@V?$string_input_adapter@D@__crt_stdio_input@@@0@_K@Z 10093fb8 f i libucrt:input.obj
 0001:000930c0       ??$parse_floating_point_possible_nan@_WV?$input_adapter_character_source@V?$string_input_adapter@_W@__crt_stdio_input@@@__crt_strtox@@_K@__crt_strtox@@YA?AW4floating_point_parse_result@0@AA_WAAV?$input_adapter_character_source@V?$string_input_adapter@_W@__crt_stdio_input@@@0@_K@Z 100940c0 f i libucrt:input.obj
 0001:000931e1       ??$parse_floating_point_possible_nan_is_ind@DV?$input_adapter_character_source@V?$string_input_adapter@D@__crt_stdio_input@@@__crt_strtox@@@__crt_strtox@@YA_NAADAAV?$input_adapter_character_source@V?$string_input_adapter@D@__crt_stdio_input@@@0@@Z 100941e1 f i libucrt:input.obj
 0001:0009321b       ??$parse_floating_point_possible_nan_is_ind@_WV?$input_adapter_character_source@V?$string_input_adapter@_W@__crt_stdio_input@@@__crt_strtox@@@__crt_strtox@@YA_NAA_WAAV?$input_adapter_character_source@V?$string_input_adapter@_W@__crt_stdio_input@@@0@@Z 1009421b f i libucrt:input.obj
 0001:0009325b       ??$parse_floating_point_possible_nan_is_snan@DV?$input_adapter_character_source@V?$string_input_adapter@D@__crt_stdio_input@@@__crt_strtox@@@__crt_strtox@@YA_NAADAAV?$input_adapter_character_source@V?$string_input_adapter@D@__crt_stdio_input@@@0@@Z 1009425b f i libucrt:input.obj
 0001:00093295       ??$parse_floating_point_possible_nan_is_snan@_WV?$input_adapter_character_source@V?$string_input_adapter@_W@__crt_stdio_input@@@__crt_strtox@@@__crt_strtox@@YA_NAA_WAAV?$input_adapter_character_source@V?$string_input_adapter@_W@__crt_stdio_input@@@0@@Z 10094295 f i libucrt:input.obj
 0001:000932d5       ??$parse_floating_point_write_result@M@__crt_strtox@@YA?AW4SLD_STATUS@@W4floating_point_parse_result@0@ABUfloating_point_string@0@QAM@Z 100942d5 f i libucrt:input.obj
 0001:0009341d       ??$parse_floating_point_write_result@N@__crt_strtox@@YA?AW4SLD_STATUS@@W4floating_point_parse_result@0@ABUfloating_point_string@0@QAN@Z 1009441d f i libucrt:input.obj
 0001:00093541       ??$parse_integer@_KV?$input_adapter_character_source@V?$string_input_adapter@D@__crt_stdio_input@@@__crt_strtox@@$00@__crt_strtox@@YA_KAAV__crt_cached_ptd_host@@V?$input_adapter_character_source@V?$string_input_adapter@D@__crt_stdio_input@@@0@H_N@Z 10094541 f i libucrt:input.obj
 0001:00093835       ??$parse_integer@_KV?$input_adapter_character_source@V?$string_input_adapter@D@__crt_stdio_input@@@__crt_strtox@@@__crt_strtox@@YA_KQAU__crt_locale_pointers@@V?$input_adapter_character_source@V?$string_input_adapter@D@__crt_stdio_input@@@0@H_N@Z 10094835 f i libucrt:input.obj
 0001:00093891       ??$parse_integer@_KV?$input_adapter_character_source@V?$string_input_adapter@_W@__crt_stdio_input@@@__crt_strtox@@$00@__crt_strtox@@YA_KAAV__crt_cached_ptd_host@@V?$input_adapter_character_source@V?$string_input_adapter@_W@__crt_stdio_input@@@0@H_N@Z 10094891 f i libucrt:input.obj
 0001:00093ec0       ??$parse_integer@_KV?$input_adapter_character_source@V?$string_input_adapter@_W@__crt_stdio_input@@@__crt_strtox@@@__crt_strtox@@YA_KQAU__crt_locale_pointers@@V?$input_adapter_character_source@V?$string_input_adapter@_W@__crt_stdio_input@@@0@H_N@Z 10094ec0 f i libucrt:input.obj
 0001:00093f1c       ??$process_floating_point_specifier_t@M@?$input_processor@DV?$string_input_adapter@D@__crt_stdio_input@@@__crt_stdio_input@@AAE_NXZ 10094f1c f i libucrt:input.obj
 0001:00093f84       ??$process_floating_point_specifier_t@M@?$input_processor@_WV?$string_input_adapter@_W@__crt_stdio_input@@@__crt_stdio_input@@AAE_NXZ 10094f84 f i libucrt:input.obj
 0001:00093fec       ??$process_floating_point_specifier_t@N@?$input_processor@DV?$string_input_adapter@D@__crt_stdio_input@@@__crt_stdio_input@@AAE_NXZ 10094fec f i libucrt:input.obj
 0001:00094058       ??$process_floating_point_specifier_t@N@?$input_processor@_WV?$string_input_adapter@_W@__crt_stdio_input@@@__crt_stdio_input@@AAE_NXZ 10095058 f i libucrt:input.obj
 0001:000940c4       ??$process_string_specifier_tchar@D@?$input_processor@DV?$string_input_adapter@D@__crt_stdio_input@@@__crt_stdio_input@@AAE_NW4conversion_mode@1@D@Z 100950c4 f i libucrt:input.obj
 0001:00094230       ??$process_string_specifier_tchar@D@?$input_processor@_WV?$string_input_adapter@_W@__crt_stdio_input@@@__crt_stdio_input@@AAE_NW4conversion_mode@1@D@Z 10095230 f i libucrt:input.obj
 0001:000943a5       ??$process_string_specifier_tchar@_W@?$input_processor@DV?$string_input_adapter@D@__crt_stdio_input@@@__crt_stdio_input@@AAE_NW4conversion_mode@1@_W@Z 100953a5 f i libucrt:input.obj
 0001:0009451d       ??$process_string_specifier_tchar@_W@?$input_processor@_WV?$string_input_adapter@_W@__crt_stdio_input@@@__crt_stdio_input@@AAE_NW4conversion_mode@1@_W@Z 1009551d f i libucrt:input.obj
 0001:00094695       ??$skip_whitespace@Vstring_input_adapter@__crt_stdio_input@@D@__crt_stdio_input@@YAHAAV?$string_input_adapter@D@0@QAU__crt_locale_pointers@@@Z 10095695 f i libucrt:input.obj
 0001:000946c4       ??$skip_whitespace@Vstring_input_adapter@__crt_stdio_input@@_W@__crt_stdio_input@@YAGAAV?$string_input_adapter@_W@0@QAU__crt_locale_pointers@@@Z 100956c4 f i libucrt:input.obj
 0001:000946f3       ??$write_floating_point@M@?$input_processor@DV?$string_input_adapter@D@__crt_stdio_input@@@__crt_stdio_input@@AAE_NABM@Z 100956f3 f i libucrt:input.obj
 0001:00094728       ??$write_floating_point@M@?$input_processor@_WV?$string_input_adapter@_W@__crt_stdio_input@@@__crt_stdio_input@@AAE_NABM@Z 10095728 f i libucrt:input.obj
 0001:0009475d       ??$write_floating_point@N@?$input_processor@DV?$string_input_adapter@D@__crt_stdio_input@@@__crt_stdio_input@@AAE_NABN@Z 1009575d f i libucrt:input.obj
 0001:00094798       ??$write_floating_point@N@?$input_processor@_WV?$string_input_adapter@_W@__crt_stdio_input@@@__crt_stdio_input@@AAE_NABN@Z 10095798 f i libucrt:input.obj
 0001:000947d3       ??0?$format_string_parser@D@__crt_stdio_input@@QAE@_KQBE@Z 100957d3 f i libucrt:input.obj
 0001:0009481d       ??0?$format_string_parser@_W@__crt_stdio_input@@QAE@_KQB_W@Z 1009581d f i libucrt:input.obj
 0001:0009485b       ??0?$input_adapter_character_source@V?$string_input_adapter@D@__crt_stdio_input@@@__crt_strtox@@QAE@$$QAV01@@Z 1009585b f i libucrt:input.obj
 0001:0009485b       ??0?$input_adapter_character_source@V?$string_input_adapter@_W@__crt_stdio_input@@@__crt_strtox@@QAE@$$QAV01@@Z 1009585b f i libucrt:input.obj
 0001:00094898       ??0?$input_adapter_character_source@V?$string_input_adapter@D@__crt_stdio_input@@@__crt_strtox@@QAE@QAV?$string_input_adapter@D@__crt_stdio_input@@_KQA_N@Z 10095898 f i libucrt:input.obj
 0001:00094898       ??0?$input_adapter_character_source@V?$string_input_adapter@_W@__crt_stdio_input@@@__crt_strtox@@QAE@QAV?$string_input_adapter@_W@__crt_stdio_input@@_KQA_N@Z 10095898 f i libucrt:input.obj
 0001:000948c9       ??0?$input_processor@DV?$string_input_adapter@D@__crt_stdio_input@@@__crt_stdio_input@@QAE@ABV?$string_input_adapter@D@1@_KQBDQAU__crt_locale_pointers@@QAD@Z 100958c9 f i libucrt:input.obj
 0001:0009490d       ??0?$input_processor@_WV?$string_input_adapter@_W@__crt_stdio_input@@@__crt_stdio_input@@QAE@ABV?$string_input_adapter@_W@1@_KQB_WQAU__crt_locale_pointers@@QAD@Z 1009590d f i libucrt:input.obj
 0001:00094951       ??0_LocaleUpdate@@QAE@QAU__crt_locale_pointers@@@Z 10095951 f i libucrt:input.obj
 0001:000949d3       ??R<lambda_448605b25275ab87d3c5d4aa7a38a0aa>@@QBE@XZ 100959d3 f i libucrt:input.obj
 0001:000949d3       ??R<lambda_e5165159ec566db3a71156c9b71536ca>@@QBE@XZ 100959d3 f i libucrt:input.obj
 0001:000949d3       ??R<lambda_fd76cae15b6f790020ebaa7b78a868c2>@@QBE@XZ 100959d3 f i libucrt:input.obj
 0001:000949ff       ??R<lambda_644f8ab42ed3fd1d660977a2364b3a7d>@@QBE@XZ 100959ff f i libucrt:input.obj
 0001:000949ff       ??R<lambda_f1fa4c266c18b246f3ed9c36247dab4f>@@QBE@XZ 100959ff f i libucrt:input.obj
 0001:000949ff       ??R<lambda_f765c90ab33e8386abf09c0f079d37e9>@@QBE@XZ 100959ff f i libucrt:input.obj
 0001:00094a29       ?advance@?$format_string_parser@D@__crt_stdio_input@@QAE_NXZ 10095a29 f i libucrt:input.obj
 0001:00094b41       ?advance@?$format_string_parser@_W@__crt_stdio_input@@QAE_NXZ 10095b41 f i libucrt:input.obj
 0001:00094c42       ?as_double@floating_point_value@__crt_strtox@@QBEAANXZ 10095c42 f i libucrt:input.obj
 0001:00094c67       ?as_float@floating_point_value@__crt_strtox@@QBEAAMXZ 10095c67 f i libucrt:input.obj
 0001:00094c8c       ?assemble_floating_point_infinity@__crt_strtox@@YAX_NABVfloating_point_value@1@@Z 10095c8c f i libucrt:input.obj
 0001:00094ccc       ?assemble_floating_point_value@__crt_strtox@@YA?AW4SLD_STATUS@@_KH_N1ABVfloating_point_value@1@@Z 10095ccc f i libucrt:input.obj
 0001:00095065       ?assemble_floating_point_value_from_big_integer@__crt_strtox@@YA?AW4SLD_STATUS@@ABUbig_integer@1@I_N1ABVfloating_point_value@1@@Z 10096065 f i libucrt:input.obj
 0001:00095202       ?assemble_floating_point_zero@__crt_strtox@@YAX_NABVfloating_point_value@1@@Z 10096202 f i libucrt:input.obj
 0001:00095237       ?convert_decimal_string_to_floating_type_common@__crt_strtox@@YA?AW4SLD_STATUS@@ABUfloating_point_string@1@ABVfloating_point_value@1@@Z 10096237 f i libucrt:input.obj
 0001:00096f36       ?convert_hexadecimal_string_to_floating_type_common@__crt_strtox@@YA?AW4SLD_STATUS@@ABUfloating_point_string@1@ABVfloating_point_value@1@@Z 10097f36 f i libucrt:input.obj
 0001:00096fe7       ?data@?$scanset_storage@$01@__crt_stdio_input@@QBEPAEXZ 10097fe7 f i libucrt:input.obj
 0001:0009701f       ?denormal_mantissa_mask@floating_point_value@__crt_strtox@@QBE_KXZ 1009801f f i libucrt:input.obj
 0001:00097040       ?divide@__crt_strtox@@YA_KAAUbig_integer@1@ABU21@@Z 10098040 f i libucrt:input.obj
 0001:00097517       ?get@?$input_adapter_character_source@V?$string_input_adapter@D@__crt_stdio_input@@@__crt_strtox@@QAEDXZ 10098517 f i libucrt:input.obj
 0001:00097558       ?get@?$input_adapter_character_source@V?$string_input_adapter@_W@__crt_stdio_input@@@__crt_strtox@@QAE_WXZ 10098558 f i libucrt:input.obj
 0001:0009759e       ?get@?$string_input_adapter@D@__crt_stdio_input@@QAEHXZ 1009859e f i libucrt:input.obj
 0001:000975b4       ?get@?$string_input_adapter@_W@__crt_stdio_input@@QAEGXZ 100985b4 f i libucrt:input.obj
 0001:000975ce       ?invert@?$scanset_buffer@_W@__crt_stdio_input@@QAEXXZ 100985ce f i libucrt:input.obj
 0001:000975e3       ?is_character_allowed_in_string@?$input_processor@DV?$string_input_adapter@D@__crt_stdio_input@@@__crt_stdio_input@@ABE_NW4conversion_mode@2@H@Z 100985e3 f i libucrt:input.obj
 0001:00097633       ?is_character_allowed_in_string@?$input_processor@_WV?$string_input_adapter@_W@__crt_stdio_input@@@__crt_stdio_input@@ABE_NW4conversion_mode@2@G@Z 10098633 f i libucrt:input.obj
 0001:0009767d       ?length@?$format_string_parser@D@__crt_stdio_input@@QBEIXZ 1009867d f i libucrt:input.obj
 0001:000976cb       ?length@?$format_string_parser@_W@__crt_stdio_input@@QBEIXZ 100986cb f i libucrt:input.obj
 0001:00097719       ?normal_mantissa_mask@floating_point_value@__crt_strtox@@QBE_KXZ 10098719 f i libucrt:input.obj
 0001:00097730       ?process@?$input_processor@DV?$string_input_adapter@D@__crt_stdio_input@@@__crt_stdio_input@@QAEHXZ 10098730 f i libucrt:input.obj
 0001:000977b5       ?process@?$input_processor@_WV?$string_input_adapter@_W@__crt_stdio_input@@@__crt_stdio_input@@QAEHXZ 100987b5 f i libucrt:input.obj
 0001:00097843       ?process_character_count_specifier@?$input_processor@DV?$string_input_adapter@D@__crt_stdio_input@@@__crt_stdio_input@@AAE_NXZ 10098843 f i libucrt:input.obj
 0001:0009785b       ?process_character_count_specifier@?$input_processor@_WV?$string_input_adapter@_W@__crt_stdio_input@@@__crt_stdio_input@@AAE_NXZ 1009885b f i libucrt:input.obj
 0001:00097875       ?process_conversion_specifier@?$input_processor@DV?$string_input_adapter@D@__crt_stdio_input@@@__crt_stdio_input@@AAE_NXZ 10098875 f i libucrt:input.obj
 0001:000978e9       ?process_conversion_specifier@?$input_processor@_WV?$string_input_adapter@_W@__crt_stdio_input@@@__crt_stdio_input@@AAE_NXZ 100988e9 f i libucrt:input.obj
 0001:0009795d       ?process_floating_point_specifier@?$input_processor@DV?$string_input_adapter@D@__crt_stdio_input@@@__crt_stdio_input@@AAE_NXZ 1009895d f i libucrt:input.obj
 0001:0009798d       ?process_floating_point_specifier@?$input_processor@_WV?$string_input_adapter@_W@__crt_stdio_input@@@__crt_stdio_input@@AAE_NXZ 1009898d f i libucrt:input.obj
 0001:000979bd       ?process_integer_specifier@?$input_processor@DV?$string_input_adapter@D@__crt_stdio_input@@@__crt_stdio_input@@AAE_NI_N@Z 100989bd f i libucrt:input.obj
 0001:00097a22       ?process_integer_specifier@?$input_processor@_WV?$string_input_adapter@_W@__crt_stdio_input@@@__crt_stdio_input@@AAE_NI_N@Z 10098a22 f i libucrt:input.obj
 0001:00097a87       ?process_literal_character@?$input_processor@DV?$string_input_adapter@D@__crt_stdio_input@@@__crt_stdio_input@@AAE_NXZ 10098a87 f i libucrt:input.obj
 0001:00097abd       ?process_literal_character@?$input_processor@_WV?$string_input_adapter@_W@__crt_stdio_input@@@__crt_stdio_input@@AAE_NXZ 10098abd f i libucrt:input.obj
 0001:00097af2       ?process_literal_character_tchar@?$input_processor@DV?$string_input_adapter@D@__crt_stdio_input@@@__crt_stdio_input@@AAE_ND@Z 10098af2 f i libucrt:input.obj
 0001:00097b40       ?process_state@?$input_processor@DV?$string_input_adapter@D@__crt_stdio_input@@@__crt_stdio_input@@AAE_NXZ 10098b40 f i libucrt:input.obj
 0001:00097b82       ?process_state@?$input_processor@_WV?$string_input_adapter@_W@__crt_stdio_input@@@__crt_stdio_input@@AAE_NXZ 10098b82 f i libucrt:input.obj
 0001:00097bc4       ?process_string_specifier@?$input_processor@DV?$string_input_adapter@D@__crt_stdio_input@@@__crt_stdio_input@@AAE_NW4conversion_mode@2@@Z 10098bc4 f i libucrt:input.obj
 0001:00097c0c       ?process_string_specifier@?$input_processor@_WV?$string_input_adapter@_W@__crt_stdio_input@@@__crt_stdio_input@@AAE_NW4conversion_mode@2@@Z 10098c0c f i libucrt:input.obj
 0001:00097c54       ?process_whitespace@?$input_processor@DV?$string_input_adapter@D@__crt_stdio_input@@@__crt_stdio_input@@AAE_NXZ 10098c54 f i libucrt:input.obj
 0001:00097c71       ?process_whitespace@?$input_processor@_WV?$string_input_adapter@_W@__crt_stdio_input@@@__crt_stdio_input@@AAE_NXZ 10098c71 f i libucrt:input.obj
 0001:00097c91       ?reset@?$scanset_buffer@_W@__crt_stdio_input@@QAEXXZ 10098c91 f i libucrt:input.obj
 0001:00097cab       ?reset_token_state_for_error@?$format_string_parser@_W@__crt_stdio_input@@AAEXH@Z 10098cab f i libucrt:input.obj
 0001:00097cd6       ?restore_state@?$input_adapter_character_source@V?$string_input_adapter@D@__crt_stdio_input@@@__crt_strtox@@QAE_N_K@Z 10098cd6 f i libucrt:input.obj
 0001:00097cd6       ?restore_state@?$input_adapter_character_source@V?$string_input_adapter@_W@__crt_stdio_input@@@__crt_strtox@@QAE_N_K@Z 10098cd6 f i libucrt:input.obj
 0001:00097cfb       ?scan_conversion_specifier@?$format_string_parser@D@__crt_stdio_input@@AAE_NXZ 10098cfb f i libucrt:input.obj
 0001:00097e77       ?scan_conversion_specifier@?$format_string_parser@_W@__crt_stdio_input@@AAE_NXZ 10098e77 f i libucrt:input.obj
 0001:00097fd7       ?scan_optional_assignment_suppressor@?$format_string_parser@_W@__crt_stdio_input@@AAEXXZ 10098fd7 f i libucrt:input.obj
 0001:00097feb       ?scan_optional_field_width@?$format_string_parser@D@__crt_stdio_input@@AAE_NXZ 10098feb f i libucrt:input.obj
 0001:0009807f       ?scan_optional_field_width@?$format_string_parser@_W@__crt_stdio_input@@AAE_NXZ 1009907f f i libucrt:input.obj
 0001:0009827a       ?scan_optional_length_modifier@?$format_string_parser@D@__crt_stdio_input@@AAEXXZ 1009927a f i libucrt:input.obj
 0001:0009838f       ?scan_optional_length_modifier@?$format_string_parser@_W@__crt_stdio_input@@AAEXXZ 1009938f f i libucrt:input.obj
 0001:000984c3       ?scan_optional_literal_character_trail_bytes_tchar@?$format_string_parser@D@__crt_stdio_input@@AAE_ND@Z 100994c3 f i libucrt:input.obj
 0001:00098515       ?scan_optional_wide_modifier@?$format_string_parser@D@__crt_stdio_input@@AAEXXZ 10099515 f i libucrt:input.obj
 0001:00098533       ?scan_optional_wide_modifier@?$format_string_parser@_W@__crt_stdio_input@@AAEXXZ 10099533 f i libucrt:input.obj
 0001:0009855d       ?scan_scanset_range@?$format_string_parser@D@__crt_stdio_input@@AAE_NXZ 1009955d f i libucrt:input.obj
 0001:000986ad       ?scan_scanset_range@?$format_string_parser@_W@__crt_stdio_input@@AAE_NXZ 100996ad f i libucrt:input.obj
 0001:00098819       ?set@?$scanset_buffer@E@__crt_stdio_input@@QAEXE@Z 10099819 f i libucrt:input.obj
 0001:00098844       ?set@?$scanset_buffer@_W@__crt_stdio_input@@QAEX_W@Z 10099844 f i libucrt:input.obj
 0001:00098874       ?set_wide_for_c_s_or_scanset@?$format_string_parser@D@__crt_stdio_input@@AAEXXZ 10099874 f i libucrt:input.obj
 0001:00098895       ?set_wide_for_c_s_or_scanset@?$format_string_parser@_W@__crt_stdio_input@@AAEXXZ 10099895 f i libucrt:input.obj
 0001:000988b6       ?should_default_to_wide@?$format_string_parser@_W@__crt_stdio_input@@AAE_N_W@Z 100998b6 f i libucrt:input.obj
 0001:000988ea       ?test@?$scanset_buffer@_W@__crt_stdio_input@@QBE_N_W@Z 100998ea f i libucrt:input.obj
 0001:0009891f       ?to_floating_point_length@__crt_stdio_input@@YAIW4length_modifier@1@@Z 1009991f f i libucrt:input.obj
 0001:00098942       ?to_integer_length@__crt_stdio_input@@YAIW4length_modifier@1@@Z 10099942 f i libucrt:input.obj
 0001:00098995       ?unget@?$input_adapter_character_source@V?$string_input_adapter@D@__crt_stdio_input@@@__crt_strtox@@QAEXD@Z 10099995 f i libucrt:input.obj
 0001:000989dc       ?unget@?$input_adapter_character_source@V?$string_input_adapter@_W@__crt_stdio_input@@@__crt_strtox@@QAEX_W@Z 100999dc f i libucrt:input.obj
 0001:00098a27       ?unget@?$string_input_adapter@D@__crt_stdio_input@@QAEXH@Z 10099a27 f i libucrt:input.obj
 0001:00098a46       ?unget@?$string_input_adapter@_W@__crt_stdio_input@@QAEXG@Z 10099a46 f i libucrt:input.obj
 0001:00098a6c       ?validate@?$format_string_parser@D@__crt_stdio_input@@QBE_NXZ 10099a6c f i libucrt:input.obj
 0001:00098a6c       ?validate@?$format_string_parser@_W@__crt_stdio_input@@QBE_NXZ 10099a6c f i libucrt:input.obj
 0001:00098a88       ?validate@?$input_adapter_character_source@V?$string_input_adapter@D@__crt_stdio_input@@@__crt_strtox@@QBE_NXZ 10099a88 f i libucrt:input.obj
 0001:00098a88       ?validate@?$input_adapter_character_source@V?$string_input_adapter@_W@__crt_stdio_input@@@__crt_strtox@@QBE_NXZ 10099a88 f i libucrt:input.obj
 0001:00098aa9       ?validate@?$string_input_adapter@D@__crt_stdio_input@@QAE_NXZ 10099aa9 f i libucrt:input.obj
 0001:00098aa9       ?validate@?$string_input_adapter@_W@__crt_stdio_input@@QAE_NXZ 10099aa9 f i libucrt:input.obj
 0001:00098acb       ?write_character@?$input_processor@DV?$string_input_adapter@D@__crt_stdio_input@@@__crt_stdio_input@@AAE_NQA_WIAAPA_WAAID@Z 10099acb f i libucrt:input.obj
 0001:00098b38       ?write_character@?$input_processor@_WV?$string_input_adapter@_W@__crt_stdio_input@@@__crt_stdio_input@@AAE_NQADIAAPADAAI_W@Z 10099b38 f i libucrt:input.obj
 0001:00098bbe       ?write_integer@?$input_processor@DV?$string_input_adapter@D@__crt_stdio_input@@@__crt_stdio_input@@AAE_N_K@Z 10099bbe f i libucrt:input.obj
 0001:00098c2d       ?write_integer@?$input_processor@_WV?$string_input_adapter@_W@__crt_stdio_input@@@__crt_stdio_input@@AAE_N_K@Z 10099c2d f i libucrt:input.obj
 0001:00098c9c       ___stdio_common_vsscanf    10099c9c f   libucrt:input.obj
 0001:00098cc0       ___stdio_common_vswscanf   10099cc0 f   libucrt:input.obj
 0001:00098ce4       __ischartype_l             10099ce4 f i libucrt:input.obj
 0001:00098f29       __fsopen                   10099f29 f   libucrt:fopen.obj
 0001:00098f34       __wfopen                   10099f34 f   libucrt:fopen.obj
 0001:00098f4b       _fopen_s                   10099f4b f   libucrt:fopen.obj
 0001:000990b7       __fclose_nolock            1009a0b7 f   libucrt:fclose.obj
 0001:000990e7       _fclose                    1009a0e7 f   libucrt:fclose.obj
 0001:0009934f       ___acrt_stdio_flush_nolock 1009a34f f   libucrt:fflush.obj
 0001:000993b8       __fflush_nolock            1009a3b8 f   libucrt:fflush.obj
 0001:0009941d       __flushall                 1009a41d f   libucrt:fflush.obj
 0001:00099426       _fflush                    1009a426 f   libucrt:fflush.obj
 0001:000995ad       __fputc_nolock_internal    1009a5ad f   libucrt:fputc.obj
 0001:000995da       _fputc                     1009a5da f   libucrt:fputc.obj
 0001:000997cd       _fputs                     1009a7cd f   libucrt:fputs.obj
 0001:00099810       _strncpy                   1009a810 f   libucrt:strncpy.obj
 0001:00099934       ??$parse_integer@KV?$c_string_character_source@D@__crt_strtox@@$00@__crt_strtox@@YAKAAV__crt_cached_ptd_host@@V?$c_string_character_source@D@0@H_N@Z 1009a934 f i libucrt:strtox.obj
 0001:00099b7f       ??$parse_integer@KV?$c_string_character_source@_W@__crt_strtox@@$00@__crt_strtox@@YAKAAV__crt_cached_ptd_host@@V?$c_string_character_source@_W@0@H_N@Z 1009ab7f f i libucrt:strtox.obj
 0001:0009a1a2       ??$parse_integer@_KV?$c_string_character_source@D@__crt_strtox@@$00@__crt_strtox@@YA_KAAV__crt_cached_ptd_host@@V?$c_string_character_source@D@0@H_N@Z 1009b1a2 f i libucrt:strtox.obj
 0001:0009a452       ??$parse_integer@_KV?$c_string_character_source@_W@__crt_strtox@@$00@__crt_strtox@@YA_KAAV__crt_cached_ptd_host@@V?$c_string_character_source@_W@0@H_N@Z 1009b452 f i libucrt:strtox.obj
 0001:0009aa21       _strtoul                   1009ba21 f   libucrt:strtox.obj
 0001:0009aa67       _strtoull                  1009ba67 f   libucrt:strtox.obj
 0001:0009aab3       _wcstoull                  1009bab3 f   libucrt:strtox.obj
 0001:0009ab00       _islower                   1009bb00 f   libucrt:_ctype.obj
 0001:0009ab90       _isspace                   1009bb90 f   libucrt:_ctype.obj
 0001:0009ac20       _isupper                   1009bc20 f   libucrt:_ctype.obj
 0001:0009aca4       __tolower_l                1009bca4 f   libucrt:tolower_toupper.obj
 0001:0009ada2       __toupper_l                1009bda2 f   libucrt:tolower_toupper.obj
 0001:0009aea0       _tolower                   1009bea0 f   libucrt:tolower_toupper.obj
 0001:0009aed0       _toupper                   1009bed0 f   libucrt:tolower_toupper.obj
 0001:0009af00       ___acrt_initialize_stdio   1009bf00 f   libucrt:_file.obj
 0001:0009afc8       ___acrt_iob_func           1009bfc8 f   libucrt:_file.obj
 0001:0009afd8       ___acrt_uninitialize_stdio 1009bfd8 f   libucrt:_file.obj
 0001:0009b024       __get_stream_buffer_pointers 1009c024 f   libucrt:_file.obj
 0001:0009b06a       __lock_file                1009c06a f   libucrt:_file.obj
 0001:0009b07e       __unlock_file              1009c07e f   libucrt:_file.obj
 0001:0009b19a       _freopen_s                 1009c19a f   libucrt:freopen.obj
 0001:0009b1c0       _strcspn                   1009c1c0 f   libucrt:strcspn.obj
 0001:0009b240       __stricmp                  1009c240 f   libucrt:stricmp.obj
 0001:0009b2c0       __stricmp_l                1009c2c0 f   libucrt:stricmp.obj
 0001:0009b3e0       _strncat                   1009c3e0 f   libucrt:strncat.obj
 0001:0009b520       _calloc                    1009c520 f   libucrt:calloc.obj
 0001:0009b530       _free                      1009c530 f   libucrt:free.obj
 0001:0009b535       __wtol                     1009c535 f   libucrt:atox.obj
 0001:0009b574       _atoi                      1009c574 f   libucrt:atox.obj
 0001:0009b5c0       __decomp                   1009c5c0 f i libucrt:frexp.obj
 0001:0009b6d0       __sptype                   1009c6d0 f i libucrt:frexp.obj
 0001:0009b750       _frexp                     1009c750 f   libucrt:frexp.obj
 0001:0009b911       __fgetc_nolock             1009c911 f   libucrt:fgetc.obj
 0001:0009b94d       _fgetc                     1009c94d f   libucrt:fgetc.obj
 0001:0009ba66       _fgetpos                   1009ca66 f   libucrt:fgetpos.obj
 0001:0009babf       __fread_nolock_s           1009cabf f   libucrt:fread.obj
 0001:0009bc93       _fread                     1009cc93 f   libucrt:fread.obj
 0001:0009bcb0       _fread_s                   1009ccb0 f   libucrt:fread.obj
 0001:0009bd4d       _fsetpos                   1009cd4d f   libucrt:fsetpos.obj
 0001:0009bd88       ?LongLongSub@@YAJ_J0PA_J@Z 1009cd88 f i libucrt:fseek.obj
 0001:0009c079       __fseeki64                 1009d079 f   libucrt:fseek.obj
 0001:0009c0b3       _fseek                     1009d0b3 f   libucrt:fseek.obj
 0001:0009c194       __fwrite_internal          1009d194 f   libucrt:fwrite.obj
 0001:0009c20b       __fwrite_nolock_internal   1009d20b f   libucrt:fwrite.obj
 0001:0009c39f       _fwrite                    1009d39f f   libucrt:fwrite.obj
 0001:0009c59d       _setvbuf                   1009d59d f   libucrt:setvbuf.obj
 0001:0009c5d7       __ungetc_nolock            1009d5d7 f   libucrt:ungetc.obj
 0001:0009c6cb       _ungetc                    1009d6cb f   libucrt:ungetc.obj
 0001:0009c73e       _localeconv                1009d73e f   libucrt:localeconv.obj
 0001:0009c770       __dclass                   1009d770 f i libucrt:nan.obj
 0001:0009c770       __ldclass                  1009d770 f i libucrt:nanl.obj
 0001:0009c790       __ceil_no_sse41            1009d790 f   libucrt:ceil_pentium4.obj
 0001:0009c7d0       _ceil                      1009d7d0 f   libucrt:ceil_pentium4.obj
 0001:0009c7f0       __ceil_pentium4            1009d7f0 f   libucrt:ceil_pentium4.obj
 0001:0009c8d0       _strncmp                   1009d8d0 f   libucrt:strncmp.obj
 0001:0009c950       __CIcos                    1009d950 f   libucrt:cos_impl.obj
 0001:0009c98b       __CIcos_default            1009d98b f   libucrt:cos_impl.obj
 0001:0009c99f       __cos_default              1009d99f     libucrt:cos_impl.obj
 0001:0009ca40       __CIsin                    1009da40 f   libucrt:sin_impl.obj
 0001:0009ca7b       __CIsin_default            1009da7b f   libucrt:sin_impl.obj
 0001:0009ca8f       __sin_default              1009da8f     libucrt:sin_impl.obj
 0001:0009d202       __ftelli64                 1009e202 f   libucrt:ftell.obj
 0001:0009d238       __ftelli64_nolock_internal 1009e238 f   libucrt:ftell.obj
 0001:0009d243       _ftell                     1009e243 f   libucrt:ftell.obj
 0001:0009d280       _malloc                    1009e280 f   libucrt:malloc.obj
 0001:0009d290       _qsort                     1009e290 f   libucrt:qsort.obj
 0001:0009d6d0       __CIfmod                   1009e6d0 f   libucrt:87fmod_impl.obj
 0001:0009d6e0       __fFMOD                    1009e6e0 f   libucrt:87fmod_impl.obj
 0001:0009d6f0       __CIsqrt                   1009e6f0 f   libucrt:sqrt_impl.obj
 0001:0009d704       __sqrt_common              1009e704     libucrt:sqrt_impl.obj
 0001:0009d7b0       __CIacos                   1009e7b0 f   libucrt:acos_impl.obj
 0001:0009d7eb       __CIacos_default           1009e7eb f   libucrt:acos_impl.obj
 0001:0009d7ff       __acos_default             1009e7ff     libucrt:acos_impl.obj
 0001:0009d927       ??$parse_floating_point@V?$c_string_character_source@D@__crt_strtox@@N@__crt_strtox@@YA?AW4SLD_STATUS@@QAU__crt_locale_pointers@@V?$c_string_character_source@D@0@QAN@Z 1009e927 f i libucrt:atof.obj
 0001:0009d9a7       ??$parse_floating_point_from_source@V?$c_string_character_source@D@__crt_strtox@@@__crt_strtox@@YA?AW4floating_point_parse_result@0@QAU__crt_locale_pointers@@AAV?$c_string_character_source@D@0@AAUfloating_point_string@0@@Z 1009e9a7 f i libucrt:atof.obj
 0001:0009ddcf       ??$parse_floating_point_possible_infinity@DV?$c_string_character_source@D@__crt_strtox@@PBD@__crt_strtox@@YA?AW4floating_point_parse_result@0@AADAAV?$c_string_character_source@D@0@PBD@Z 1009edcf f i libucrt:atof.obj
 0001:0009de81       ??$parse_floating_point_possible_nan@DV?$c_string_character_source@D@__crt_strtox@@PBD@__crt_strtox@@YA?AW4floating_point_parse_result@0@AADAAV?$c_string_character_source@D@0@PBD@Z 1009ee81 f i libucrt:atof.obj
 0001:0009df85       ??$parse_floating_point_possible_nan_is_ind@DV?$c_string_character_source@D@__crt_strtox@@@__crt_strtox@@YA_NAADAAV?$c_string_character_source@D@0@@Z 1009ef85 f i libucrt:atof.obj
 0001:0009dfc1       ??$parse_floating_point_possible_nan_is_snan@DV?$c_string_character_source@D@__crt_strtox@@@__crt_strtox@@YA_NAADAAV?$c_string_character_source@D@0@@Z 1009efc1 f i libucrt:atof.obj
 0001:0009dffd       ??R<lambda_32aa245da1b5b882fa96db788295c8b2>@@QBE@XZ 1009effd f i libucrt:atof.obj
 0001:0009dffd       ??R<lambda_690cf26ff5d754c94c32cf642e9f01bc>@@QBE@XZ 1009effd f i libucrt:atof.obj
 0001:0009dffd       ??R<lambda_e51f7abad2595a5950d3223319845217>@@QBE@XZ 1009effd f i libucrt:atof.obj
 0001:0009e023       _atof                      1009f023 f   libucrt:atof.obj
 0001:0009e040       __CIatan2                  1009f040 f   libucrt:87ctriga.obj
 0001:0009e050       __CIlog                    1009f050 f   libucrt:log_impl.obj
 0001:0009e08b       __CIlog_default            1009f08b f   libucrt:log_impl.obj
 0001:0009e09f       __log_default              1009f09f     libucrt:log_impl.obj
 0001:0009e160       __CIpow                    1009f160 f   libucrt:pow_impl.obj
 0001:0009e19b       __CIpow_default            1009f19b f   libucrt:pow_impl.obj
 0001:0009e1b4       __pow_default              1009f1b4     libucrt:pow_impl.obj
 0001:0009e3a9       ___acrt_initialize_locks   1009f3a9 f   libucrt:locks.obj
 0001:0009e3ea       ___acrt_lock               1009f3ea f   libucrt:locks.obj
 0001:0009e401       ___acrt_uninitialize_locks 1009f401 f   libucrt:locks.obj
 0001:0009e432       ___acrt_unlock             1009f432 f   libucrt:locks.obj
 0001:0009e449       __lock_locales             1009f449 f   libucrt:locks.obj
 0001:0009e457       __unlock_locales           1009f457 f   libucrt:locks.obj
 0001:0009e6b5       _setlocale                 1009f6b5 f   libucrt:setlocale.obj
 0001:0009e6ed       ___pctype_func             1009f6ed f   libucrt:ctype.obj
 0001:0009e711       ____lc_codepage_func       1009f711 f   libucrt:initctype.obj
 0001:0009e736       ____lc_locale_name_func    1009f736 f   libucrt:initctype.obj
 0001:0009e75d       ____mb_cur_max_func        1009f75d f   libucrt:initctype.obj
 0001:0009e782       ___acrt_locale_initialize_ctype 1009f782 f   libucrt:initctype.obj
 0001:0009ebf0       __wcsdup                   1009fbf0 f   libucrt:wcsdup.obj
 0001:0009ecd4       ___acrt_errno_from_os_error 1009fcd4 f   libucrt:errno.obj
 0001:0009ed33       ___acrt_errno_map_os_error 1009fd33 f   libucrt:errno.obj
 0001:0009ed56       ___acrt_errno_map_os_error_ptd 1009fd56 f   libucrt:errno.obj
 0001:0009ed7a       ___doserrno                1009fd7a f   libucrt:errno.obj
 0001:0009ed8f       __errno                    1009fd8f f   libucrt:errno.obj
 0001:0009edb0       _realloc                   1009fdb0 f   libucrt:realloc.obj
 0001:0009edc0       ___strncnt                 1009fdc0 f   libucrt:strncnt.obj
 0001:0009edde       ??$__acrt_convert_wcs_mbs_cp@D_WV<lambda_62f6974d9771e494a5ea317cc32e971c>@@U__crt_win32_buffer_internal_dynamic_resizing@@@@YAHQBDAAV?$__crt_win32_buffer@_WU__crt_win32_buffer_internal_dynamic_resizing@@@@ABV<lambda_62f6974d9771e494a5ea317cc32e971c>@@I@Z 1009fdde f i libucrt:strftime.obj
 0001:0009ee90       ??$__acrt_convert_wcs_mbs_cp@_WDV<lambda_0fec1a7b3f42a53036604e18c2d5e07e>@@U__crt_win32_buffer_no_resizing@@@@YAHQB_WAAV?$__crt_win32_buffer@DU__crt_win32_buffer_no_resizing@@@@ABV<lambda_0fec1a7b3f42a53036604e18c2d5e07e>@@I@Z 1009fe90 f i libucrt:strftime.obj
 0001:0009ef52       ??$__acrt_mbs_to_wcs_cp@U__crt_win32_buffer_internal_dynamic_resizing@@@@YAHQBDAAV?$__crt_win32_buffer@_WU__crt_win32_buffer_internal_dynamic_resizing@@@@I@Z 1009ff52 f i libucrt:strftime.obj
 0001:0009ef6f       ??R<lambda_0fec1a7b3f42a53036604e18c2d5e07e>@@QBE@IQB_WQADI@Z 1009ff6f f i libucrt:strftime.obj
 0001:0009ef6f       ??R<lambda_28bda7af82a03b66c1cb3803a755f95d>@@QBE@IQB_WQADI@Z 1009ff6f f i libucrt:argv_wildcards.obj
 0001:0009ef93       ?_deallocate@?$__crt_win32_buffer@DU__crt_win32_buffer_internal_dynamic_resizing@@@@AAEXXZ 1009ff93 f i libucrt:argv_wildcards.obj
 0001:0009ef93       ?_deallocate@?$__crt_win32_buffer@_WU__crt_win32_buffer_internal_dynamic_resizing@@@@AAEXXZ 1009ff93 f i libucrt:strftime.obj
 0001:0009efad       ?allocate@?$__crt_win32_buffer@DU__crt_win32_buffer_no_resizing@@@@QAEHI@Z 1009ffad f i libucrt:strftime.obj
 0001:0009efd4       ?allocate@?$__crt_win32_buffer@_WU__crt_win32_buffer_internal_dynamic_resizing@@@@QAEHI@Z 1009ffd4 f i libucrt:strftime.obj
 0001:0009f013       ?allocate@__crt_win32_buffer_internal_dynamic_resizing@@SAHQAPAXIABV__crt_win32_buffer_empty_debug_info@@@Z 100a0013 f i libucrt:strftime.obj
 0001:0009f034       ?set_to_nullptr@?$__crt_win32_buffer@DU__crt_win32_buffer_no_resizing@@@@QAEXXZ 100a0034 f i libucrt:strftime.obj
 0001:0009f050       _strnlen                   100a0050 f   libucrt:strnlen.obj
 0001:0009f1b0       _wcsnlen                   100a01b0 f   libucrt:strnlen.obj
 0001:0009f390       __callnewh                 100a0390 f   libucrt:new_handler.obj
 0001:0009f3d0       ___acrt_initialize_new_handler 100a03d0 f   libucrt:new_handler.obj
 0001:0009f3f0       __query_new_handler        100a03f0 f   libucrt:new_handler.obj
 0001:0009f450       __set_new_handler          100a0450 f   libucrt:new_handler.obj
 0001:0009f4c0       ?_set_new_handler@@YAP6AHI@ZH@Z 100a04c0 f   libucrt:new_handler.obj
 0001:0009f4cd       ??$__crt_fast_decode_pointer@P6AHI@Z@@YAP6AHI@ZQ6AHI@Z@Z 100a04cd f i libucrt:new_handler.obj
 0001:0009f4cd       ??$__crt_fast_decode_pointer@P6AXH@Z@@YAP6AXH@ZQ6AXH@Z@Z 100a04cd f i libucrt:signal.obj
 0001:0009f4cd       ??$__crt_fast_decode_pointer@P6GXPAXK0@Z@@YAP6GXPAXK0@ZQ6GX0K0@Z@Z 100a04cd f i libucrt:exit.obj
 0001:0009f4e8       ??$__crt_fast_encode_pointer@P6AHI@Z@@YAP6AHI@ZQ6AHI@Z@Z 100a04e8 f i libucrt:new_handler.obj
 0001:0009f4e8       ??$__crt_fast_encode_pointer@P6AHXZ@@YAP6AHXZQ6AHXZ@Z 100a04e8 f i libucrt:onexit.obj
 0001:0009f4e8       ??$__crt_fast_encode_pointer@PAP6AXXZ@@YAPAP6AXXZQAP6AXXZ@Z 100a04e8 f i libucrt:onexit.obj
 0001:0009f507       __seh_filter_dll           100a0507 f   libucrt:exception_filter.obj
 0001:0009f527       __seh_filter_exe           100a0527 f   libucrt:exception_filter.obj
 0001:0009f952       ___acrt_initialize_thread_local_exit_callback 100a0952 f   libucrt:exit.obj
 0001:0009f961       __cexit                    100a0961 f   libucrt:exit.obj
 0001:0009f970       __exit                     100a0970 f   libucrt:exit.obj
 0001:0009f986       __is_c_termination_complete 100a0986 f   libucrt:exit.obj
 0001:0009fc3c       ___acrt_allocate_buffer_for_argv 100a0c3c f   libucrt:argv_parsing.obj
 0001:0009fc8b       __configure_narrow_argv    100a0c8b f   libucrt:argv_parsing.obj
 0001:0009fe3a       ___dcrt_uninitialize_environments_nolock 100a0e3a f   libucrt:environment_initialization.obj
 0001:0009fe8b       __initialize_narrow_environment 100a0e8b f   libucrt:environment_initialization.obj
 0001:000a0133       __crt_atexit               100a1133 f   libucrt:onexit.obj
 0001:000a0149       __execute_onexit_table     100a1149 f   libucrt:onexit.obj
 0001:000a0187       __initialize_onexit_table  100a1187 f   libucrt:onexit.obj
 0001:000a01b0       __register_onexit_function 100a11b0 f   libucrt:onexit.obj
 0001:000a02de       ___acrt_initialize         100a12de f   libucrt:initialization.obj
 0001:000a02f0       ___acrt_thread_attach      100a12f0 f   libucrt:initialization.obj
 0001:000a02fb       ___acrt_thread_detach      100a12fb f   libucrt:initialization.obj
 0001:000a0303       ___acrt_uninitialize       100a1303 f   libucrt:initialization.obj
 0001:000a0333       ___acrt_uninitialize_critical 100a1333 f   libucrt:initialization.obj
 0001:000a0345       __initterm                 100a1345 f   libucrt:initterm.obj
 0001:000a0370       __initterm_e               100a1370 f   libucrt:initterm.obj
 0001:000a039e       _terminate                 100a139e f   libucrt:terminate.obj
 0001:000a03da       @_guard_check_icall@4      100a13da f i libucrt:checkcfg.obj
 0001:000a03e0       _strcpy_s                  100a13e0 f   libucrt:strcpy_s.obj
 0001:000a0470       _wcsncmp                   100a1470 f   libucrt:wcsncmp.obj
 0001:000a07a6       ?internal_get_ptd_head_slow@@YAPAU__acrt_ptd@@XZ 100a17a6 f   libucrt:per_thread_data.obj
 0001:000a0899       ___acrt_freeptd            100a1899 f   libucrt:per_thread_data.obj
 0001:000a08dd       ___acrt_getptd             100a18dd f   libucrt:per_thread_data.obj
 0001:000a08eb       ___acrt_getptd_head        100a18eb f   libucrt:per_thread_data.obj
 0001:000a092e       ___acrt_getptd_noexit      100a192e f   libucrt:per_thread_data.obj
 0001:000a09ba       ___acrt_getptd_noexit_explicit 100a19ba f   libucrt:per_thread_data.obj
 0001:000a0a03       ___acrt_initialize_ptd     100a1a03 f   libucrt:per_thread_data.obj
 0001:000a0a39       ___acrt_uninitialize_ptd   100a1a39 f   libucrt:per_thread_data.obj
 0001:000a0b53       ??0_expandlocale_locale_name_cache@@QAE@QA_WIQAU__crt_qualified_locale_data@@@Z 100a1b53 f i libucrt:wsetlocale.obj
 0001:000a0b9d       ??1_expandlocale_locale_name_cache@@QAE@XZ 100a1b9d f i libucrt:wsetlocale.obj
 0001:000a0d35       ?commit_locale_name@_expandlocale_locale_name_cache@@QAEXQB_WI@Z 100a1d35 f i libucrt:wsetlocale.obj
 0001:000a0d79       ?commit_locale_name_cache_already_updated@_expandlocale_locale_name_cache@@QAEXQB_WI@Z 100a1d79 f i libucrt:wsetlocale.obj
 0001:000a0dae       ___acrt_copy_locale_name   100a1dae f   libucrt:wsetlocale.obj
 0001:000a0e0e       ___acrt_set_locale_changed 100a1e0e f   libucrt:wsetlocale.obj
 0001:000a0e19       ___acrt_uninitialize_locale 100a1e19 f   libucrt:wsetlocale.obj
 0001:000a0e40       ___lc_lctowcs              100a1e40 f   libucrt:wsetlocale.obj
 0001:000a0eb0       ___lc_wcstolc              100a1eb0 f   libucrt:wsetlocale.obj
 0001:000a13f2       __wcscats                  100a23f2 f   libucrt:wsetlocale.obj
 0001:000a1433       __wsetlocale               100a2433 f   libucrt:wsetlocale.obj
 0001:000a21ed       ___acrt_get_sigabrt_handler 100a31ed f   libucrt:signal.obj
 0001:000a2214       ___acrt_initialize_signal_handlers 100a3214 f   libucrt:signal.obj
 0001:000a2232       _raise                     100a3232 f   libucrt:signal.obj
 0001:000a2430       __free_base                100a3430 f   libucrt:free_base.obj
 0001:000a2480       __malloc_base              100a3480 f   libucrt:malloc_base.obj
 0001:000a24d1       ___acrt_update_locale_info 100a34d1 f   libucrt:locale_update.obj
 0001:000a24fe       ___acrt_update_locale_info_explicit 100a34fe f   libucrt:locale_update.obj
 0001:000a252f       ___acrt_update_multibyte_info 100a352f f   libucrt:locale_update.obj
 0001:000a255c       ___acrt_update_multibyte_info_explicit 100a355c f   libucrt:locale_update.obj
 0001:000a258d       ?__acrt_fp_classify@@YA?AW4__acrt_fp_class@@ABN@Z 100a358d f i libucrt:cvt.obj
 0001:000a2f3c       ___acrt_fp_format          100a3f3c f   libucrt:cvt.obj
 0001:000a30bc       __wctomb_internal          100a40bc f   libucrt:wctomb.obj
 0001:000a3220       _wctomb_s                  100a4220 f   libucrt:wctomb.obj
 0001:000a325a       __mbtowc_internal          100a425a f   libucrt:mbtowc.obj
 0001:000a338a       __mbtowc_l                 100a438a f   libucrt:mbtowc.obj
 0001:000a33c2       ?__mblen_utf8@__crt_mbstring@@YAHPBD@Z 100a43c2 f   libucrt:mbrtoc32.obj
 0001:000a3403       ?__mbrtoc32_utf8@__crt_mbstring@@YAIPA_UPBDIPAU_Mbstatet@@AAV__crt_cached_ptd_host@@@Z 100a4403 f   libucrt:mbrtoc32.obj
 0001:000a35bc       ?__c16rtomb_utf8@__crt_mbstring@@YAIPAD_SPAU_Mbstatet@@AAV__crt_cached_ptd_host@@@Z 100a45bc f   libucrt:c16rtomb.obj
 0001:000a3693       ?__mbrtowc_utf8@__crt_mbstring@@YAIPA_WPBDIPAU_Mbstatet@@AAV__crt_cached_ptd_host@@@Z 100a4693 f   libucrt:mbrtowc.obj
 0001:000a36d6       ?__mbsrtowcs_utf8@__crt_mbstring@@YAIPA_WPAPBDIPAU_Mbstatet@@AAV__crt_cached_ptd_host@@@Z 100a46d6 f   libucrt:mbrtowc.obj
 0001:000a37e9       __fileno                   100a47e9 f   libucrt:fileno.obj
 0001:000a3810       __get_printf_count_output  100a4810 f   libucrt:printf_count_output.obj
 0001:000a3825       ___acrt_should_use_temporary_buffer 100a4825 f   libucrt:_sftbuf.obj
 0001:000a3863       ___acrt_stdio_begin_temporary_buffering_nolock 100a4863 f   libucrt:_sftbuf.obj
 0001:000a390e       ___acrt_stdio_end_temporary_buffering_nolock 100a490e f   libucrt:_sftbuf.obj
 0001:000a3aac       ___acrt_initialize_lowio   100a4aac f   libucrt:ioinit.obj
 0001:000a3b0c       ___acrt_uninitialize_lowio 100a4b0c f   libucrt:ioinit.obj
 0001:000a3b38       _iswctype                  100a4b38 f   libucrt:iswctype.obj
 0001:000a3ba1       __isctype_l                100a4ba1 f   libucrt:isctype.obj
 0001:000a3c70       __calloc_base              100a4c70 f   libucrt:calloc_base.obj
 0001:000a3cd0       _fegetround                100a4cd0 f   libucrt:fegetround.obj
 0001:000a3cdf       ?__acrt_stdio_allocate_stream@@YA?AV__crt_stdio_stream@@XZ 100a4cdf f   libucrt:stream.obj
 0001:000a3d48       ?__acrt_stdio_free_stream@@YAXV__crt_stdio_stream@@@Z 100a4d48 f   libucrt:stream.obj
 0001:000a3e45       ??$__acrt_stdio_parse_mode@D@@YA?AU__acrt_stdio_stream_mode@@QBD@Z 100a4e45 f i libucrt:openfile.obj
 0001:000a4086       ??$__acrt_stdio_parse_mode@_W@@YA?AU__acrt_stdio_stream_mode@@QB_W@Z 100a5086 f i libucrt:openfile.obj
 0001:000a441e       ?__acrt_stdio_parse_mode_D@@YA_NAAU__acrt_stdio_stream_mode@@@Z 100a541e f i libucrt:openfile.obj
 0001:000a4439       ?__acrt_stdio_parse_mode_T@@YA_NAAU__acrt_stdio_stream_mode@@@Z 100a5439 f i libucrt:openfile.obj
 0001:000a4458       ?__acrt_stdio_parse_mode_b@@YA_NAAU__acrt_stdio_stream_mode@@@Z 100a5458 f i libucrt:openfile.obj
 0001:000a4478       ?__acrt_stdio_parse_mode_c@@YA_NAAU__acrt_stdio_stream_mode@@AA_N@Z 100a5478 f i libucrt:openfile.obj
 0001:000a449a       ?__acrt_stdio_parse_mode_n@@YA_NAAU__acrt_stdio_stream_mode@@AA_N@Z 100a549a f i libucrt:openfile.obj
 0001:000a44bc       ?__acrt_stdio_parse_mode_plus@@YA_NAAU__acrt_stdio_stream_mode@@AA_N@Z 100a54bc f i libucrt:openfile.obj
 0001:000a44f2       ?__acrt_stdio_parse_mode_t@@YA_NAAU__acrt_stdio_stream_mode@@@Z 100a54f2 f i libucrt:openfile.obj
 0001:000a4512       ?__acrt_stdio_parse_mode_x@@YA_NAAU__acrt_stdio_stream_mode@@@Z 100a5512 f i libucrt:openfile.obj
 0001:000a4532       __openfile                 100a5532 f   libucrt:openfile.obj
 0001:000a453d       __wopenfile                100a553d f   libucrt:openfile.obj
 0001:000a45d9       __close_internal           100a55d9 f   libucrt:close.obj
 0001:000a467c       __close_nolock             100a567c f   libucrt:close.obj
 0001:000a46ac       __close_nolock_internal    100a56ac f   libucrt:close.obj
 0001:000a474c       ___acrt_stdio_free_buffer_nolock 100a574c f   libucrt:_freebuf.obj
 0001:000a482e       __commit                   100a582e f   libucrt:commit.obj
 0001:000a5051       __write                    100a6051 f   libucrt:write.obj
 0001:000a5088       __write_internal           100a6088 f   libucrt:write.obj
 0001:000a5199       __write_nolock             100a6199 f   libucrt:write.obj
 0001:000a560c       ___acrt_stdio_flush_and_write_narrow_nolock 100a660c f   libucrt:_flsbuf.obj
 0001:000a5804       ___acrt_LCMapStringA       100a6804 f   libucrt:lcmapstringa.obj
 0001:000a5bea       ___acrt_AppPolicyGetProcessTerminationMethodInternal@4 100a6bea f   libucrt:winapi_thunks.obj
 0001:000a5c39       ___acrt_AreFileApisANSI@0  100a6c39 f   libucrt:winapi_thunks.obj
 0001:000a5c58       ___acrt_EnumSystemLocalesEx@16 100a6c58 f   libucrt:winapi_thunks.obj
 0001:000a5cac       ___acrt_FlsAlloc@4         100a6cac f   libucrt:winapi_thunks.obj
 0001:000a5cb8       ___acrt_FlsFree@4          100a6cb8 f   libucrt:winapi_thunks.obj
 0001:000a5cc4       ___acrt_FlsGetValue2@4     100a6cc4 f   libucrt:winapi_thunks.obj
 0001:000a5cd1       ___acrt_FlsGetValue@4      100a6cd1 f   libucrt:winapi_thunks.obj
 0001:000a5cdd       ___acrt_FlsSetValue@8      100a6cdd f   libucrt:winapi_thunks.obj
 0001:000a5ce9       ___acrt_GetLocaleInfoEx@16 100a6ce9 f   libucrt:winapi_thunks.obj
 0001:000a5d28       ___acrt_GetUserDefaultLocaleName@8 100a6d28 f   libucrt:winapi_thunks.obj
 0001:000a5d64       ___acrt_InitializeCriticalSectionEx@12 100a6d64 f   libucrt:winapi_thunks.obj
 0001:000a5d70       ___acrt_IsValidLocaleName@4 100a6d70 f   libucrt:winapi_thunks.obj
 0001:000a5da8       ___acrt_LCIDToLocaleName@16 100a6da8 f   libucrt:winapi_thunks.obj
 0001:000a5de7       ___acrt_LCMapStringEx@36   100a6de7 f   libucrt:winapi_thunks.obj
 0001:000a5e44       ___acrt_LocaleNameToLCID@8 100a6e44 f   libucrt:winapi_thunks.obj
 0001:000a5e75       ___acrt_can_use_vista_locale_apis 100a6e75 f   libucrt:winapi_thunks.obj
 0001:000a5e80       ___acrt_eagerly_load_locale_apis 100a6e80 f   libucrt:winapi_thunks.obj
 0001:000a5eb7       ___acrt_initialize_winapi_thunks 100a6eb7 f   libucrt:winapi_thunks.obj
 0001:000a5eda       ___acrt_tls2_supported     100a6eda f   libucrt:winapi_thunks.obj
 0001:000a5f0b       ___acrt_uninitialize_winapi_thunks 100a6f0b f   libucrt:winapi_thunks.obj
 0001:000a5f41       __fcloseall                100a6f41 f   libucrt:closeall.obj
 0001:000a5ff0       __except1                  100a6ff0 f   libucrt:fpexcept.obj
 0001:000a6130       __handle_exc               100a7130 f   libucrt:fpexcept.obj
 0001:000a6460       __raise_exc                100a7460 f   libucrt:fpexcept.obj
 0001:000a6490       __raise_exc_ex             100a7490 f   libucrt:fpexcept.obj
 0001:000a67c0       __set_errno_from_matherr   100a77c0 f   libucrt:fpexcept.obj
 0001:000a6800       __umatherr                 100a7800 f   libucrt:fpexcept.obj
 0001:000a6900       ___set_fpsr_sse2           100a7900 f   libucrt:fpctrl.obj
 0001:000a69e0       __clrfp                    100a79e0 f   libucrt:fpctrl.obj
 0001:000a6a00       __ctrlfp                   100a7a00 f   libucrt:fpctrl.obj
 0001:000a6a30       __set_statfp               100a7a30 f   libucrt:fpctrl.obj
 0001:000a6a90       __statfp                   100a7a90 f   libucrt:fpctrl.obj
 0001:000a6c2d       ___acrt_stdio_refill_and_read_narrow_nolock 100a7c2d f   libucrt:_filbuf.obj
 0001:000a711f       __read                     100a811f f   libucrt:read.obj
 0001:000a7238       __read_nolock              100a8238 f   libucrt:read.obj
 0001:000a776c       __lseeki64                 100a876c f   libucrt:lseek.obj
 0001:000a77ac       __lseeki64_internal        100a87ac f   libucrt:lseek.obj
 0001:000a77ca       __lseeki64_nolock          100a87ca f   libucrt:lseek.obj
 0001:000a780a       __lseeki64_nolock_internal 100a880a f   libucrt:lseek.obj
 0001:000a7828       ___acrt_stdio_allocate_buffer_nolock 100a8828 f   libucrt:_getbuf.obj
 0001:000a7890       __dtest_inline             100a8890 f i libucrt:_test.obj
 0001:000a7890       __ldtest_inline            100a8890 f i libucrt:_test.obj
 0001:000a7900       ___libm_error_support      100a8900 f   libucrt:libm_error.obj
 0001:000a7ba0       ___acrt_initialize_sse2    100a8ba0 f   libucrt:mathfcns.obj
 0001:000a7bb0       __ceil_default             100a8bb0 f   libucrt:ceil.obj
 0001:000a7cb0       __CIcos_pentium4           100a8cb0 f   libucrt:cos_pentium4.obj
 0001:000a7cc8       __cos_pentium4             100a8cc8     libucrt:cos_pentium4.obj
 0001:000a7e60       __trandisp1                100a8e60 f   libucrt:87disp.obj
 0001:000a7ed5       __trandisp2                100a8ed5 f   libucrt:87disp.obj
 0001:000a7f6f       __rttospopde               100a8f6f     libucrt:87disp.obj
 0001:000a7f74       __rttospop                 100a8f74     libucrt:87disp.obj
 0001:000a7f80       __rtnospop                 100a8f80 f   libucrt:87disp.obj
 0001:000a7f90       __rttosnpop                100a8f90 f   libucrt:87disp.obj
 0001:000a7f91       __rtnospopde               100a8f91     libucrt:87disp.obj
 0001:000a7f98       __rtzeropop                100a8f98     libucrt:87disp.obj
 0001:000a7f9a       __rtzeronpop               100a8f9a     libucrt:87disp.obj
 0001:000a7fa0       __rtzerospop               100a8fa0 f   libucrt:87disp.obj
 0001:000a7fad       __rtonepop                 100a8fad     libucrt:87disp.obj
 0001:000a7fb0       __rtonenpop                100a8fb0 f   libucrt:87disp.obj
 0001:000a7fc0       __tosnan1                  100a8fc0 f   libucrt:87disp.obj
 0001:000a7ff0       __nosnan2                  100a8ff0 f   libucrt:87disp.obj
 0001:000a8000       __tosnan2                  100a9000 f   libucrt:87disp.obj
 0001:000a8030       __nan2                     100a9030 f   libucrt:87disp.obj
 0001:000a8070       __rtindfpop                100a9070 f   libucrt:87disp.obj
 0001:000a8072       __rtindfnpop               100a9072     libucrt:87disp.obj
 0001:000a8083       __rttosnpopde              100a9083     libucrt:87disp.obj
 0001:000a8090       __rtatan2inf               100a9090 f   libucrt:87disp.obj
 0001:000a80ad       __rtchsifneg               100a90ad     libucrt:87disp.obj
 0001:000a80c0       __twoToTOS                 100a90c0 f   libucrt:common.obj
 0001:000a80d5       __load_CW                  100a90d5 f   libucrt:common.obj
 0001:000a80ec       __convertTOStoQNaN         100a90ec f   libucrt:common.obj
 0001:000a8105       __fload_withFB             100a9105 f   libucrt:common.obj
 0001:000a8148       __checkTOS_withFB          100a9148 f   libucrt:common.obj
 0001:000a815e       __fast_exit                100a915e f   libucrt:common.obj
 0001:000a816b       __math_exit                100a916b f   libucrt:common.obj
 0001:000a8195       __check_overflow_exit      100a9195 f   libucrt:common.obj
 0001:000a81a9       __check_range_exit         100a91a9 f   libucrt:common.obj
 0001:000a8250       __startTwoArgErrorHandling 100a9250 f   libucrt:genexcep.obj
 0001:000a8267       __startOneArgErrorHandling 100a9267 f   libucrt:genexcep.obj
 0001:000a82b0       __CIsin_pentium4           100a92b0 f   libucrt:sin_pentium4.obj
 0001:000a82c8       __sin_pentium4             100a92c8     libucrt:sin_pentium4.obj
 0001:000a8480       __cintrindisp2             100a9480 f   libucrt:87cdisp.obj
 0001:000a84d0       __cintrindisp1             100a94d0 f   libucrt:87cdisp.obj
 0001:000a8519       __ctrandisp2               100a9519 f   libucrt:87cdisp.obj
 0001:000a86a8       __ctrandisp1               100a96a8 f   libucrt:87cdisp.obj
 0001:000a86db       __fload                    100a96db f   libucrt:87cdisp.obj
 0001:000a8720       __CIacos_pentium4          100a9720 f   libucrt:acos_pentium4.obj
 0001:000a8738       __acos_pentium4            100a9738     libucrt:acos_pentium4.obj
 0001:000a8ca0       __fFATN2                   100a9ca0 f   libucrt:87triga.obj
 0001:000a8cf0       __rtpiby2                  100a9cf0     libucrt:87triga.obj
 0001:000a8d00       __rtforatn20               100a9d00 f   libucrt:87triga.obj
 0001:000a8d30       __rtforatnby0              100a9d30 f   libucrt:87triga.obj
 0001:000a8d40       __CIlog_pentium4           100a9d40 f   libucrt:log_pentium4.obj
 0001:000a8d58       __log_pentium4             100a9d58     libucrt:log_pentium4.obj
 0001:000a8fd0       __fFEXP                    100a9fd0 f   libucrt:87tran.obj
 0001:000a9027       __rtinfpopse               100aa027     libucrt:87tran.obj
 0001:000a9029       __rtinfnpopse              100aa029     libucrt:87tran.obj
 0001:000a9039       __fFLN                     100aa039     libucrt:87tran.obj
 0001:000a90ee       __rtinfpop                 100aa0ee     libucrt:87tran.obj
 0001:000a90f0       __rtinfnpop                100aa0f0     libucrt:87tran.obj
 0001:000a9100       __rtforexpinf              100aa100 f   libucrt:87tran.obj
 0001:000a910d       __ffexpm1                  100aa10d     libucrt:87tran.obj
 0001:000a91c0       __CIpow_pentium4           100aa1c0 f   libucrt:pow_pentium4.obj
 0001:000a91d9       __pow_pentium4             100aa1d9     libucrt:pow_pentium4.obj
 0001:000a9ce0       __powhlp                   100aace0 f   libucrt:powhlp.obj
 0001:000aa179       _mbstowcs_s                100ab179 f   libucrt:mbstowcs.obj
 0001:000aa52d       __wcstombs_s_l             100ab52d f   libucrt:wcstombs.obj
 0001:000aa64b       ___acrt_GetLocaleInfoA     100ab64b f   libucrt:getlocaleinfoa.obj
 0001:000aa7fb       ___acrt_GetStringTypeA     100ab7fb f   libucrt:getstringtypea.obj
 0001:000aa900       _wcscpy_s                  100ab900 f   libucrt:wcscpy_s.obj
 0001:000aa9a0       __realloc_base             100ab9a0 f   libucrt:realloc_base.obj
 0001:000aaaa1       ___acrt_MultiByteToWideChar 100abaa1 f   libucrt:multibytetowidechar.obj
 0001:000aab5b       ___acrt_WideCharToMultiByte 100abb5b f   libucrt:widechartomultibyte.obj
 0001:000aabd0       ___ascii_wcsicmp           100abbd0 f   libucrt:wcsicmp.obj
 0001:000aac20       __wcsicmp                  100abc20 f   libucrt:wcsicmp.obj
 0001:000aac70       __wcsicmp_l                100abc70 f   libucrt:wcsicmp.obj
 0001:000aae19       ___acrt_initialize_timeset 100abe19 f   libucrt:timeset.obj
 0001:000aae4e       ?__acrt_get_utf8_acp_compatibility_codepage@@YAIXZ 100abe4e f i libucrt:tzset.obj
 0001:000aae8d       ___acrt_app_verifier_enabled 100abe8d f   libucrt:peb_access.obj
 0001:000aae9f       ___acrt_is_secure_process  100abe9f f   libucrt:peb_access.obj
 0001:000aaeb2       ___acrt_get_process_end_policy 100abeb2 f   libucrt:win_policies.obj
 0001:000aaef1       ??$__acrt_convert_wcs_mbs_cp@_WDV<lambda_28bda7af82a03b66c1cb3803a755f95d>@@U__crt_win32_buffer_internal_dynamic_resizing@@@@YAHQB_WAAV?$__crt_win32_buffer@DU__crt_win32_buffer_internal_dynamic_resizing@@@@ABV<lambda_28bda7af82a03b66c1cb3803a755f95d>@@I@Z 100abef1 f i libucrt:argv_wildcards.obj
 0001:000ab496       ?allocate@?$__crt_win32_buffer@DU__crt_win32_buffer_internal_dynamic_resizing@@@@QAEHI@Z 100ac496 f i libucrt:argv_wildcards.obj
 0001:000ab559       ___acrt_expand_narrow_argv_wildcards 100ac559 f   libucrt:argv_wildcards.obj
 0001:000ab564       ___acrt_GetModuleFileNameA 100ac564 f   libucrt:getmodulefilenamea.obj
 0001:000abb81       ___acrt_initialize_multibyte 100acb81 f   libucrt:mbctype.obj
 0001:000abbc9       ___acrt_update_thread_multibyte_data 100acbc9 f   libucrt:mbctype.obj
 0001:000abbdc       __setmbcp_nolock           100acbdc f   libucrt:mbctype.obj
 0001:000abe31       __ismbblead                100ace31 f   libucrt:ismbbyte.obj
 0001:000abe49       ___acrt_initialize_command_line 100ace49 f   libucrt:argv_data.obj
 0001:000abe99       ___dcrt_get_narrow_environment_from_os 100ace99 f   libucrt:get_environment_from_os.obj
 0001:000abf40       __recalloc_base            100acf40 f   libucrt:recalloc.obj
 0001:000abfc0       __recalloc                 100acfc0 f   libucrt:recalloc.obj
 0001:000abfd0       __get_heap_handle          100acfd0 f   libucrt:heap_handle.obj
 0001:000abfe0       ___acrt_initialize_heap    100acfe0 f   libucrt:heap_handle.obj
 0001:000ac000       ___acrt_uninitialize_heap  100ad000 f   libucrt:heap_handle.obj
 0001:000ac010       ___acrt_getheap            100ad010 f   libucrt:heap_handle.obj
 0001:000ac016       ___acrt_execute_initializers 100ad016 f   libucrt:shared_initialization.obj
 0001:000ac07e       ___acrt_execute_uninitializers 100ad07e f   libucrt:shared_initialization.obj
 0001:000ac0b0       ___acrt_has_user_matherr   100ad0b0 f   libucrt:matherr.obj
 0001:000ac0d0       ___acrt_initialize_user_matherr 100ad0d0 f   libucrt:matherr.obj
 0001:000ac0e0       ___acrt_invoke_user_matherr 100ad0e0 f   libucrt:matherr.obj
 0001:000ac119       ___acrt_add_locale_ref     100ad119 f   libucrt:locale_refcounting.obj
 0001:000ac196       ___acrt_free_locale        100ad196 f   libucrt:locale_refcounting.obj
 0001:000ac2de       ___acrt_locale_add_lc_time_reference 100ad2de f   libucrt:locale_refcounting.obj
 0001:000ac307       ___acrt_locale_free_lc_time_if_unreferenced 100ad307 f   libucrt:locale_refcounting.obj
 0001:000ac338       ___acrt_locale_release_lc_time_reference 100ad338 f   libucrt:locale_refcounting.obj
 0001:000ac361       ___acrt_release_locale_ref 100ad361 f   libucrt:locale_refcounting.obj
 0001:000ac3e2       ___acrt_update_thread_locale_data 100ad3e2 f   libucrt:locale_refcounting.obj
 0001:000ac463       __updatetlocinfoEx_nolock  100ad463 f   libucrt:locale_refcounting.obj
 0001:000ac4b3       ___acrt_locale_free_monetary 100ad4b3 f   libucrt:initmon.obj
 0001:000ac5b1       ___acrt_locale_initialize_monetary 100ad5b1 f   libucrt:initmon.obj
 0001:000ac912       ___acrt_locale_free_numeric 100ad912 f   libucrt:initnum.obj
 0001:000ac97b       ___acrt_locale_initialize_numeric 100ad97b f   libucrt:initnum.obj
 0001:000ace39       ___acrt_locale_free_time   100ade39 f   libucrt:inittime.obj
 0001:000acf1d       ___acrt_locale_initialize_time 100adf1d f   libucrt:inittime.obj
 0001:000acfa0       _wcscat_s                  100adfa0 f   libucrt:wcscat_s.obj
 0001:000ad050       _wcsncat_s                 100ae050 f   libucrt:wcsncat_s.obj
 0001:000ad180       _wcsncpy_s                 100ae180 f   libucrt:wcsncpy_s.obj
 0001:000ad290       _wcscspn                   100ae290 f   libucrt:wcscspn.obj
 0001:000ad2e0       _wcspbrk                   100ae2e0 f   libucrt:wcspbrk.obj
 0001:000ada10       ___acrt_get_qualified_locale 100aea10 f   libucrt:get_qualified_locale.obj
 0001:000ae38e       ___acrt_get_qualified_locale_downlevel 100af38e f   libucrt:getqloc_downlevel.obj
 0001:000ae580       __query_new_mode           100af580 f   libucrt:new_mode.obj
 0001:000ae590       __set_new_mode             100af590 f   libucrt:new_mode.obj
 0001:000ae670       ___acrt_fp_strflt_to_string 100af670 f   libucrt:_fptostr.obj
 0001:000ae769       ___acrt_fltout             100af769 f   libucrt:cfout.obj
 0001:000afc37       ?__c32rtomb_utf8@__crt_mbstring@@YAIPAD_UPAU_Mbstatet@@AAV__crt_cached_ptd_host@@@Z 100b0c37 f   libucrt:c32rtomb.obj
 0001:000afce5       ?reset_and_return@__crt_mbstring@@YAIIPAU_Mbstatet@@@Z 100b0ce5 f   libucrt:common_utf8.obj
 0001:000afcf9       ?return_illegal_sequence@__crt_mbstring@@YAIPAU_Mbstatet@@AAV__crt_cached_ptd_host@@@Z 100b0cf9 f   libucrt:common_utf8.obj
 0001:000afd1b       __isatty                   100b0d1b f   libucrt:isatty.obj
 0001:000afd71       ___acrt_lowio_create_handle_array 100b0d71 f   libucrt:osfinfo.obj
 0001:000afdec       ___acrt_lowio_destroy_handle_array 100b0dec f   libucrt:osfinfo.obj
 0001:000afe21       ___acrt_lowio_ensure_fh_exists 100b0e21 f   libucrt:osfinfo.obj
 0001:000afebf       ___acrt_lowio_lock_fh      100b0ebf f   libucrt:osfinfo.obj
 0001:000afee2       ___acrt_lowio_set_os_handle 100b0ee2 f   libucrt:osfinfo.obj
 0001:000aff74       ___acrt_lowio_unlock_fh    100b0f74 f   libucrt:osfinfo.obj
 0001:000aff97       __alloc_osfhnd             100b0f97 f   libucrt:osfinfo.obj
 0001:000b00aa       __free_osfhnd              100b10aa f   libucrt:osfinfo.obj
 0001:000b013b       __get_osfhandle            100b113b f   libucrt:osfinfo.obj
 0001:000b01a5       ___acrt_GetStringTypeW     100b11a5 f   libucrt:getstringtypew.obj
 0001:000b01c0       ___acrt_fenv_get_common_round_control 100b11c0 f   libucrt:_fenvutils.obj
 0001:000b01f0       ___acrt_fenv_get_control   100b11f0 f   libucrt:_fenvutils.obj
 0001:000b03d0       ___acrt_fenv_get_status    100b13d0 f   libucrt:_fenvutils.obj
 0001:000b0480       ___acrt_fenv_set_control   100b1480 f   libucrt:_fenvutils.obj
 0001:000b06d0       ___acrt_fenv_set_status    100b16d0 f   libucrt:_fenvutils.obj
 0001:000b07e0       ___ascii_wcsnicmp          100b17e0 f   libucrt:wcsnicmp.obj
 0001:000b0850       __wcsnicmp                 100b1850 f   libucrt:wcsnicmp.obj
 0001:000b08a0       __wcsnicmp_l               100b18a0 f   libucrt:wcsnicmp.obj
 0001:000b0aa0       __strnicmp                 100b1aa0 f   libucrt:strnicmp.obj
 0001:000b0b00       __strnicmp_l               100b1b00 f   libucrt:strnicmp.obj
 0001:000b131b       __sopen_nolock             100b231b f   libucrt:open.obj
 0001:000b1389       __sopen_s                  100b2389 f   libucrt:open.obj
 0001:000b13a9       __wsopen_nolock            100b23a9 f   libucrt:open.obj
 0001:000b16d4       __wsopen_s                 100b26d4 f   libucrt:open.obj
 0001:000b16f4       __putwch_nolock            100b26f4 f   libucrt:putwch.obj
 0001:000b17bd       ___acrt_DownlevelLCIDToLocaleName 100b27bd f   libucrt:lcidtoname_downlevel.obj
 0001:000b183b       ___acrt_DownlevelLocaleNameToLCID 100b283b f   libucrt:lcidtoname_downlevel.obj
 0001:000b1870       __frnd                     100b2870 f   libucrt:frnd.obj
 0001:000b1890       __87except                 100b2890 f   libucrt:87except.obj
 0001:000b19d0       __fpclass                  100b29d0 f   libucrt:ieeemisc.obj
 0001:000b1a91       ?__wcsrtombs_utf8@__crt_mbstring@@YAIPADPAPB_WIPAU_Mbstatet@@AAV__crt_cached_ptd_host@@@Z 100b2a91 f   libucrt:wcrtomb.obj
 0001:000b1ba0       _strncpy_s                 100b2ba0 f   libucrt:strncpy_s.obj
 0001:000b1c92       __towlower_l               100b2c92 f   libucrt:towlower.obj
 0001:000b1d70       _strpbrk                   100b2d70 f   libucrt:strpbrk.obj
 0001:000b1db0       __mbsdec                   100b2db0 f   libucrt:mbsdec.obj
 0001:000b1dc7       __mbsdec_l                 100b2dc7 f   libucrt:mbsdec.obj
 0001:000b1e60       __msize_base               100b2e60 f   libucrt:msize.obj
 0001:000b1ea0       __msize                    100b2ea0 f   libucrt:msize.obj
 0001:000b1fcf       __itow_s                   100b2fcf f   libucrt:xtoa.obj
 0001:000b2010       __controlfp_s              100b3010 f   libucrt:contrlfp.obj
 0001:000b2080       _fegetenv                  100b3080 f   libucrt:fegetenv.obj
 0001:000b20a0       _fesetenv                  100b30a0 f   libucrt:fesetenv.obj
 0001:000b2100       _feholdexcept              100b3100 f   libucrt:feholdexcept.obj
 0001:000b2160       __libm_sse2_log10_precise  100b3160 f   libucrt:log10_sse2_precise.obj
 0001:000b2410       __query_app_type           100b3410 f   libucrt:report_runtime_error.obj
 0001:000b2420       ___ascii_strnicmp          100b3420 f   libucrt:_strnicm.obj
 0001:000b2481       __get_fmode                100b3481 f   libucrt:setmode.obj
 0001:000b24ae       __setmode_nolock           100b34ae f   libucrt:setmode.obj
 0001:000b257f       ??0__crt_seek_guard@@QAE@H_J@Z 100b357f f i libucrt:chsize.obj
 0001:000b25cc       __chsize_nolock            100b35cc f   libucrt:chsize.obj
 0001:000b2603       __chsize_nolock_internal   100b3603 f   libucrt:chsize.obj
 0001:000b27b9       ___dcrt_lowio_ensure_console_output_initialized 100b37b9 f   libucrt:initcon.obj
 0001:000b27d8       ___dcrt_terminate_console_output 100b37d8 f   libucrt:initcon.obj
 0001:000b27ef       ___dcrt_write_console      100b37ef f   libucrt:initcon.obj
 0001:000b2844       ___acrt_LCMapStringW       100b3844 f   libucrt:lcmapstringw.obj
 0001:000b2960       __clearfp                  100b3960 f   libucrt:ieee87.obj
 0001:000b2a80       __control87                100b3a80 f   libucrt:ieee87.obj
 0001:000b2f10       __CIlog10                  100b3f10 f   libucrt:log10_impl.obj
 0001:000b2f4b       __CIlog10_default          100b3f4b f   libucrt:log10_impl.obj
 0001:000b2f5f       __log10_default            100b3f5f     libucrt:log10_impl.obj
 0001:000b3020       ___acrt_initialize_fmode   100b4020 f   libucrt:txtmode.obj
 0001:000b3040       __CIlog10_pentium4         100b4040 f   libucrt:log10_pentium4.obj
 0001:000b3058       __log10_pentium4           100b4058     libucrt:log10_pentium4.obj
 0001:000b32d0       __FindPESection            100b42d0 f   LIBCMT:pesect.obj
 0001:000b3320       __IsNonwritableInCurrentImage 100b4320 f   LIBCMT:pesect.obj
 0001:000b33e0       __ValidateImageBase        100b43e0 f   LIBCMT:pesect.obj
 0001:000b3420       __aulldvrm                 100b4420 f   LIBCMT:ulldvrm.obj
 0001:000b34c0       __aullshr                  100b44c0 f   LIBCMT:ullshr.obj
 0001:000b34e0       __allrem                   100b44e0 f   LIBCMT:llrem.obj
 0001:000b3592       __filter_x86_sse2_floating_point_exception 100b4592 f   LIBCMT:x86_exception_filter.obj
 0001:000b3592       __filter_x86_sse2_floating_point_exception_default 100b4592 f   LIBCMT:x86_exception_filter.obj
 0002:00000000       __imp__DeleteObject@4      100b7000     gdi32:GDI32.dll
 0002:00000004       __imp__SetBkMode@8         100b7004     gdi32:GDI32.dll
 0002:00000008       __imp__SetTextColor@8      100b7008     gdi32:GDI32.dll
 0002:0000000c       __imp__CreateSolidBrush@4  100b700c     gdi32:GDI32.dll
 0002:00000010       \177GDI32_NULL_THUNK_DATA  100b7010     gdi32:GDI32.dll
 0002:00000014       __imp__ImmReleaseContext@8 100b7014     imm32:IMM32.dll
 0002:00000018       __imp__ImmSetCompositionWindow@8 100b7018     imm32:IMM32.dll
 0002:0000001c       __imp__ImmSetCandidateWindow@8 100b701c     imm32:IMM32.dll
 0002:00000020       __imp__ImmGetContext@4     100b7020     imm32:IMM32.dll
 0002:00000024       \177IMM32_NULL_THUNK_DATA  100b7024     imm32:IMM32.dll
 0002:00000028       __imp__GetOEMCP@0          100b7028     kernel32:KERNEL32.dll
 0002:0000002c       __imp__GetACP@0            100b702c     kernel32:KERNEL32.dll
 0002:00000030       __imp__CreateThread@24     100b7030     kernel32:KERNEL32.dll
 0002:00000034       __imp__GetCurrentThreadId@0 100b7034     kernel32:KERNEL32.dll
 0002:00000038       __imp__DisableThreadLibraryCalls@4 100b7038     kernel32:KERNEL32.dll
 0002:0000003c       __imp__GetCurrentProcess@0 100b703c     kernel32:KERNEL32.dll
 0002:00000040       __imp__ExitProcess@4       100b7040     kernel32:KERNEL32.dll
 0002:00000044       __imp__TerminateProcess@8  100b7044     kernel32:KERNEL32.dll
 0002:00000048       __imp__FreeLibraryAndExitThread@8 100b7048     kernel32:KERNEL32.dll
 0002:0000004c       __imp__GetModuleHandleA@4  100b704c     kernel32:KERNEL32.dll
 0002:00000050       __imp__GetProcAddress@8    100b7050     kernel32:KERNEL32.dll
 0002:00000054       __imp__VirtualQuery@12     100b7054     kernel32:KERNEL32.dll
 0002:00000058       __imp__GetTickCount@0      100b7058     kernel32:KERNEL32.dll
 0002:0000005c       __imp__CloseHandle@4       100b705c     kernel32:KERNEL32.dll
 0002:00000060       __imp__WaitForSingleObject@8 100b7060     kernel32:KERNEL32.dll
 0002:00000064       __imp__LoadLibraryA@4      100b7064     kernel32:KERNEL32.dll
 0002:00000068       __imp__GetLastError@0      100b7068     kernel32:KERNEL32.dll
 0002:0000006c       __imp__SetEvent@4          100b706c     kernel32:KERNEL32.dll
 0002:00000070       __imp__CreateEventA@16     100b7070     kernel32:KERNEL32.dll
 0002:00000074       __imp__GetLocalTime@4      100b7074     kernel32:KERNEL32.dll
 0002:00000078       __imp__SystemTimeToFileTime@8 100b7078     kernel32:KERNEL32.dll
 0002:0000007c       __imp__MultiByteToWideChar@24 100b707c     kernel32:KERNEL32.dll
 0002:00000080       __imp__WideCharToMultiByte@32 100b7080     kernel32:KERNEL32.dll
 0002:00000084       __imp__AllocConsole@0      100b7084     kernel32:KERNEL32.dll
 0002:00000088       __imp__SetConsoleTitleA@4  100b7088     kernel32:KERNEL32.dll
 0002:0000008c       __imp__GetModuleFileNameA@12 100b708c     kernel32:KERNEL32.dll
 0002:00000090       __imp__GlobalAlloc@8       100b7090     kernel32:KERNEL32.dll
 0002:00000094       __imp__GlobalUnlock@4      100b7094     kernel32:KERNEL32.dll
 0002:00000098       __imp__GlobalLock@4        100b7098     kernel32:KERNEL32.dll
 0002:0000009c       __imp__GlobalFree@4        100b709c     kernel32:KERNEL32.dll
 0002:000000a0       __imp__QueryPerformanceCounter@4 100b70a0     kernel32:KERNEL32.dll
 0002:000000a4       __imp__QueryPerformanceFrequency@4 100b70a4     kernel32:KERNEL32.dll
 0002:000000a8       __imp__FreeLibrary@4       100b70a8     kernel32:KERNEL32.dll
 0002:000000ac       __imp__GetLocaleInfoA@16   100b70ac     kernel32:KERNEL32.dll
 0002:000000b0       __imp__HeapCreate@12       100b70b0     kernel32:KERNEL32.dll
 0002:000000b4       __imp__HeapDestroy@4       100b70b4     kernel32:KERNEL32.dll
 0002:000000b8       __imp__HeapAlloc@12        100b70b8     kernel32:KERNEL32.dll
 0002:000000bc       __imp__HeapReAlloc@16      100b70bc     kernel32:KERNEL32.dll
 0002:000000c0       __imp__HeapFree@12         100b70c0     kernel32:KERNEL32.dll
 0002:000000c4       __imp__Sleep@4             100b70c4     kernel32:KERNEL32.dll
 0002:000000c8       __imp__GetCurrentProcessId@0 100b70c8     kernel32:KERNEL32.dll
 0002:000000cc       __imp__OpenThread@12       100b70cc     kernel32:KERNEL32.dll
 0002:000000d0       __imp__SuspendThread@4     100b70d0     kernel32:KERNEL32.dll
 0002:000000d4       __imp__ResumeThread@4      100b70d4     kernel32:KERNEL32.dll
 0002:000000d8       __imp__GetThreadContext@8  100b70d8     kernel32:KERNEL32.dll
 0002:000000dc       __imp__SetThreadContext@8  100b70dc     kernel32:KERNEL32.dll
 0002:000000e0       __imp__FlushInstructionCache@12 100b70e0     kernel32:KERNEL32.dll
 0002:000000e4       __imp__VirtualProtect@16   100b70e4     kernel32:KERNEL32.dll
 0002:000000e8       __imp__GetModuleHandleW@4  100b70e8     kernel32:KERNEL32.dll
 0002:000000ec       __imp__CreateToolhelp32Snapshot@8 100b70ec     kernel32:KERNEL32.dll
 0002:000000f0       __imp__Thread32First@8     100b70f0     kernel32:KERNEL32.dll
 0002:000000f4       __imp__Thread32Next@8      100b70f4     kernel32:KERNEL32.dll
 0002:000000f8       __imp__VirtualAlloc@16     100b70f8     kernel32:KERNEL32.dll
 0002:000000fc       __imp__VirtualFree@12      100b70fc     kernel32:KERNEL32.dll
 0002:00000100       __imp__EnumSystemLocalesW@8 100b7100     kernel32:KERNEL32.dll
 0002:00000104       __imp__GetCommandLineA@0   100b7104     kernel32:KERNEL32.dll
 0002:00000108       __imp__IsValidLocale@8     100b7108     kernel32:KERNEL32.dll
 0002:0000010c       __imp__GetLocaleInfoW@16   100b710c     kernel32:KERNEL32.dll
 0002:00000110       __imp__LCMapStringW@24     100b7110     kernel32:KERNEL32.dll
 0002:00000114       __imp__FlsFree@4           100b7114     kernel32:KERNEL32.dll
 0002:00000118       __imp__FlsSetValue@8       100b7118     kernel32:KERNEL32.dll
 0002:0000011c       __imp__FlsGetValue@4       100b711c     kernel32:KERNEL32.dll
 0002:00000120       __imp__FlsAlloc@4          100b7120     kernel32:KERNEL32.dll
 0002:00000124       __imp__SetFilePointerEx@20 100b7124     kernel32:KERNEL32.dll
 0002:00000128       __imp__GetFileSizeEx@8     100b7128     kernel32:KERNEL32.dll
 0002:0000012c       __imp__GetConsoleMode@8    100b712c     kernel32:KERNEL32.dll
 0002:00000130       __imp__GetConsoleOutputCP@0 100b7130     kernel32:KERNEL32.dll
 0002:00000134       __imp__WriteFile@20        100b7134     kernel32:KERNEL32.dll
 0002:00000138       __imp__FlushFileBuffers@4  100b7138     kernel32:KERNEL32.dll
 0002:0000013c       __imp__GetFileType@4       100b713c     kernel32:KERNEL32.dll
 0002:00000140       __imp__GetStdHandle@4      100b7140     kernel32:KERNEL32.dll
 0002:00000144       __imp__GetModuleFileNameW@12 100b7144     kernel32:KERNEL32.dll
 0002:00000148       __imp__GetModuleHandleExW@12 100b7148     kernel32:KERNEL32.dll
 0002:0000014c       __imp__ReadFile@20         100b714c     kernel32:KERNEL32.dll
 0002:00000150       __imp__LoadLibraryExW@12   100b7150     kernel32:KERNEL32.dll
 0002:00000154       __imp__TlsFree@4           100b7154     kernel32:KERNEL32.dll
 0002:00000158       __imp__TlsSetValue@8       100b7158     kernel32:KERNEL32.dll
 0002:0000015c       __imp__TlsGetValue@4       100b715c     kernel32:KERNEL32.dll
 0002:00000160       __imp__TlsAlloc@0          100b7160     kernel32:KERNEL32.dll
 0002:00000164       __imp__InitializeCriticalSectionAndSpinCount@8 100b7164     kernel32:KERNEL32.dll
 0002:00000168       __imp__SetLastError@4      100b7168     kernel32:KERNEL32.dll
 0002:0000016c       __imp__InterlockedFlushSList@4 100b716c     kernel32:KERNEL32.dll
 0002:00000170       __imp__RaiseException@16   100b7170     kernel32:KERNEL32.dll
 0002:00000174       __imp__RtlUnwind@16        100b7174     kernel32:KERNEL32.dll
 0002:00000178       __imp__InitializeSListHead@4 100b7178     kernel32:KERNEL32.dll
 0002:0000017c       __imp__GetStartupInfoW@4   100b717c     kernel32:KERNEL32.dll
 0002:00000180       __imp__IsDebuggerPresent@0 100b7180     kernel32:KERNEL32.dll
 0002:00000184       __imp__IsProcessorFeaturePresent@4 100b7184     kernel32:KERNEL32.dll
 0002:00000188       __imp__SetUnhandledExceptionFilter@4 100b7188     kernel32:KERNEL32.dll
 0002:0000018c       __imp__UnhandledExceptionFilter@4 100b718c     kernel32:KERNEL32.dll
 0002:00000190       __imp__WakeAllConditionVariable@4 100b7190     kernel32:KERNEL32.dll
 0002:00000194       __imp__GetCPInfo@8         100b7194     kernel32:KERNEL32.dll
 0002:00000198       __imp__ReadConsoleW@20     100b7198     kernel32:KERNEL32.dll
 0002:0000019c       __imp__GetStringTypeW@16   100b719c     kernel32:KERNEL32.dll
 0002:000001a0       __imp__LCMapStringEx@36    100b71a0     kernel32:KERNEL32.dll
 0002:000001a4       __imp__DecodePointer@4     100b71a4     kernel32:KERNEL32.dll
 0002:000001a8       __imp__EncodePointer@4     100b71a8     kernel32:KERNEL32.dll
 0002:000001ac       __imp__DeleteCriticalSection@4 100b71ac     kernel32:KERNEL32.dll
 0002:000001b0       __imp__LeaveCriticalSection@4 100b71b0     kernel32:KERNEL32.dll
 0002:000001b4       __imp__EnterCriticalSection@4 100b71b4     kernel32:KERNEL32.dll
 0002:000001b8       __imp__IsValidCodePage@4   100b71b8     kernel32:KERNEL32.dll
 0002:000001bc       __imp__GetCommandLineW@0   100b71bc     kernel32:KERNEL32.dll
 0002:000001c0       __imp__GetEnvironmentStringsW@0 100b71c0     kernel32:KERNEL32.dll
 0002:000001c4       __imp__FreeEnvironmentStringsW@4 100b71c4     kernel32:KERNEL32.dll
 0002:000001c8       __imp__GetProcessHeap@0    100b71c8     kernel32:KERNEL32.dll
 0002:000001cc       __imp__SetStdHandle@8      100b71cc     kernel32:KERNEL32.dll
 0002:000001d0       __imp__CreateFileW@28      100b71d0     kernel32:KERNEL32.dll
 0002:000001d4       __imp__HeapSize@12         100b71d4     kernel32:KERNEL32.dll
 0002:000001d8       __imp__SetEndOfFile@4      100b71d8     kernel32:KERNEL32.dll
 0002:000001dc       __imp__WriteConsoleW@20    100b71dc     kernel32:KERNEL32.dll
 0002:000001e0       __imp__GetUserDefaultLCID@0 100b71e0     kernel32:KERNEL32.dll
 0002:000001e4       __imp__FindNextFileW@8     100b71e4     kernel32:KERNEL32.dll
 0002:000001e8       __imp__FindFirstFileExW@24 100b71e8     kernel32:KERNEL32.dll
 0002:000001ec       __imp__FindClose@4         100b71ec     kernel32:KERNEL32.dll
 0002:000001f0       __imp__ReleaseSRWLockExclusive@4 100b71f0     kernel32:KERNEL32.dll
 0002:000001f4       __imp__AcquireSRWLockExclusive@4 100b71f4     kernel32:KERNEL32.dll
 0002:000001f8       __imp__TryAcquireSRWLockExclusive@4 100b71f8     kernel32:KERNEL32.dll
 0002:000001fc       __imp__SleepConditionVariableSRW@16 100b71fc     kernel32:KERNEL32.dll
 0002:00000200       __imp__InitOnceBeginInitialize@16 100b7200     kernel32:KERNEL32.dll
 0002:00000200       __imp____std_init_once_begin_initialize@16 100b7200     kernel32:KERNEL32.dll
 0002:00000204       __imp__InitOnceComplete@12 100b7204     kernel32:KERNEL32.dll
 0002:00000204       __imp____std_init_once_complete@12 100b7204     kernel32:KERNEL32.dll
 0002:00000208       __imp__InitializeCriticalSectionEx@12 100b7208     kernel32:KERNEL32.dll
 0002:0000020c       __imp__GetSystemTimeAsFileTime@4 100b720c     kernel32:KERNEL32.dll
 0002:00000210       \177KERNEL32_NULL_THUNK_DATA 100b7210     kernel32:KERNEL32.dll
 0002:00000214       __imp__ScreenToClient@8    100b7214     user32:USER32.dll
 0002:00000218       __imp__ClientToScreen@8    100b7218     user32:USER32.dll
 0002:0000021c       __imp__GetCursorPos@4      100b721c     user32:USER32.dll
 0002:00000220       __imp__SetCursor@4         100b7220     user32:USER32.dll
 0002:00000224       __imp__SetCursorPos@8      100b7224     user32:USER32.dll
 0002:00000228       __imp__GetForegroundWindow@0 100b7228     user32:USER32.dll
 0002:0000022c       __imp__IsWindowUnicode@4   100b722c     user32:USER32.dll
 0002:00000230       __imp__SetCapture@4        100b7230     user32:USER32.dll
 0002:00000234       __imp__GetCapture@0        100b7234     user32:USER32.dll
 0002:00000238       __imp__GetKeyState@4       100b7238     user32:USER32.dll
 0002:0000023c       __imp__GetMessageExtraInfo@0 100b723c     user32:USER32.dll
 0002:00000240       __imp__TrackMouseEvent@4   100b7240     user32:USER32.dll
 0002:00000244       __imp__GetKeyboardLayout@4 100b7244     user32:USER32.dll
 0002:00000248       __imp__EmptyClipboard@0    100b7248     user32:USER32.dll
 0002:0000024c       __imp__GetClipboardData@4  100b724c     user32:USER32.dll
 0002:00000250       __imp__SetClipboardData@8  100b7250     user32:USER32.dll
 0002:00000254       __imp__CloseClipboard@0    100b7254     user32:USER32.dll
 0002:00000258       __imp__OpenClipboard@4     100b7258     user32:USER32.dll
 0002:0000025c       __imp__LoadCursorA@8       100b725c     user32:USER32.dll
 0002:00000260       __imp__InflateRect@12      100b7260     user32:USER32.dll
 0002:00000264       __imp__FillRect@12         100b7264     user32:USER32.dll
 0002:00000268       __imp__GetClientRect@8     100b7268     user32:USER32.dll
 0002:0000026c       __imp__InvalidateRect@12   100b726c     user32:USER32.dll
 0002:00000270       __imp__EndPaint@8          100b7270     user32:USER32.dll
 0002:00000274       __imp__BeginPaint@8        100b7274     user32:USER32.dll
 0002:00000278       __imp__UpdateWindow@4      100b7278     user32:USER32.dll
 0002:0000027c       __imp__DrawTextA@20        100b727c     user32:USER32.dll
 0002:00000280       __imp__KillTimer@8         100b7280     user32:USER32.dll
 0002:00000284       __imp__SetTimer@16         100b7284     user32:USER32.dll
 0002:00000288       __imp__MsgWaitForMultipleObjects@20 100b7288     user32:USER32.dll
 0002:0000028c       __imp__SetLayeredWindowAttributes@16 100b728c     user32:USER32.dll
 0002:00000290       __imp__ShowWindow@8        100b7290     user32:USER32.dll
 0002:00000294       __imp__DestroyWindow@4     100b7294     user32:USER32.dll
 0002:00000298       __imp__CreateWindowExA@48  100b7298     user32:USER32.dll
 0002:0000029c       __imp__RegisterClassExA@4  100b729c     user32:USER32.dll
 0002:000002a0       __imp__PostQuitMessage@4   100b72a0     user32:USER32.dll
 0002:000002a4       __imp__DefWindowProcA@16   100b72a4     user32:USER32.dll
 0002:000002a8       __imp__PostMessageA@16     100b72a8     user32:USER32.dll
 0002:000002ac       __imp__PeekMessageA@20     100b72ac     user32:USER32.dll
 0002:000002b0       __imp__DispatchMessageA@4  100b72b0     user32:USER32.dll
 0002:000002b4       __imp__TranslateMessage@4  100b72b4     user32:USER32.dll
 0002:000002b8       __imp__GetWindowLongA@8    100b72b8     user32:USER32.dll
 0002:000002bc       __imp__GetWindowRect@8     100b72bc     user32:USER32.dll
 0002:000002c0       __imp__RedrawWindow@16     100b72c0     user32:USER32.dll
 0002:000002c4       __imp__GetSystemMetrics@4  100b72c4     user32:USER32.dll
 0002:000002c8       __imp__SetWindowPos@28     100b72c8     user32:USER32.dll
 0002:000002cc       __imp__SetWindowLongA@12   100b72cc     user32:USER32.dll
 0002:000002d0       __imp__IsWindow@4          100b72d0     user32:USER32.dll
 0002:000002d4       __imp__CallWindowProcA@20  100b72d4     user32:USER32.dll
 0002:000002d8       __imp__GetWindowThreadProcessId@8 100b72d8     user32:USER32.dll
 0002:000002dc       __imp__FindWindowA@8       100b72dc     user32:USER32.dll
 0002:000002e0       __imp__GetAsyncKeyState@4  100b72e0     user32:USER32.dll
 0002:000002e4       __imp__ReleaseCapture@0    100b72e4     user32:USER32.dll
 0002:000002e8       \177USER32_NULL_THUNK_DATA 100b72e8     user32:USER32.dll
 0002:000002ec       __imp__GdipFree@4          100b72ec     gdiplus:gdiplus.dll
 0002:000002f0       __imp__GdipDrawImageRectI@24 100b72f0     gdiplus:gdiplus.dll
 0002:000002f4       __imp__GdipSetInterpolationMode@8 100b72f4     gdiplus:gdiplus.dll
 0002:000002f8       __imp__GdipDeleteGraphics@4 100b72f8     gdiplus:gdiplus.dll
 0002:000002fc       __imp__GdipCreateFromHDC@8 100b72fc     gdiplus:gdiplus.dll
 0002:00000300       __imp__GdipBitmapUnlockBits@8 100b7300     gdiplus:gdiplus.dll
 0002:00000304       __imp__GdipBitmapLockBits@20 100b7304     gdiplus:gdiplus.dll
 0002:00000308       __imp__GdipCreateBitmapFromScan0@24 100b7308     gdiplus:gdiplus.dll
 0002:0000030c       __imp__GdipDisposeImage@4  100b730c     gdiplus:gdiplus.dll
 0002:00000310       __imp__GdipCloneImage@8    100b7310     gdiplus:gdiplus.dll
 0002:00000314       __imp__GdiplusShutdown@4   100b7314     gdiplus:gdiplus.dll
 0002:00000318       __imp__GdiplusStartup@12   100b7318     gdiplus:gdiplus.dll
 0002:0000031c       __imp__GdipAlloc@4         100b731c     gdiplus:gdiplus.dll
 0002:00000320       \177gdiplus_NULL_THUNK_DATA 100b7320     gdiplus:gdiplus.dll
 0002:00000324       ___guard_check_icall_fptr  100b7324     LIBCMT:guard_support.obj
 0002:00000328       ___castguard_check_failure_os_handled_fptr 100b7328     LIBCMT:guard_support.obj
 0002:0000032c       ___xc_a                    100b732c     LIBCMT:initializers.obj
 0002:00000398       ___xc_z                    100b7398     LIBCMT:initializers.obj
 0002:000003a4       ___xi_a                    100b73a4     LIBCMT:initializers.obj
 0002:000003ac       ___acrt_stdio_initializer  100b73ac     libucrt:stdio_initializer.obj
 0002:000003b0       ___acrt_tran_sse2_initializer 100b73b0     libucrt:sse2_initializer.obj
 0002:000003b4       ___acrt_timeset_initializer 100b73b4     libucrt:timeset_initializer.obj
 0002:000003b8       ___acrt_multibyte_initializer 100b73b8     libucrt:multibyte_initializer.obj
 0002:000003bc       ___acrt_fmode_initializer  100b73bc     libucrt:fmode_initializer.obj
 0002:000003c0       ___xi_z                    100b73c0     LIBCMT:initializers.obj
 0002:000003c4       ___xl_a                    100b73c4     LIBCMT:tlssup.obj
 0002:000003cc       ___xl_z                    100b73cc     LIBCMT:tlssup.obj
 0002:000003d0       ___xp_a                    100b73d0     LIBCMT:initializers.obj
 0002:000003d4       ___acrt_locale_terminator  100b73d4     libucrt:locale_initializer.obj
 0002:000003d8       ___dcrt_console_output_terminator 100b73d8     libucrt:console_output_initializer.obj
 0002:000003dc       ___acrt_stdio_terminator   100b73dc     libucrt:stdio_initializer.obj
 0002:000003e0       ___xp_z                    100b73e0     LIBCMT:initializers.obj
 0002:000003e4       ___xt_a                    100b73e4     LIBCMT:initializers.obj
 0002:000003e8       ___xt_z                    100b73e8     LIBCMT:initializers.obj
 0002:00000410       ??_C@_0EO@FBOJCLKM@?$FLext_client?$FN?5ExitProcess?5interc@ 100b7410     ext_client.cpp.obj
 0002:00000460       ??_C@_0EK@IPGCJIEF@?$FLext_client?$FN?5CPSQuit?3?3OnUpdate?5@ 100b7460     ext_client.cpp.obj
 0002:000004ac       ??_C@_0L@BFGLIBKB@SRO_CLIENT@ 100b74ac     ext_client.cpp.obj
 0002:000004b8       ??_C@_0HA@CDCNFACK@?$FLext_client?$FN?5PostQuitMessage?5in@ 100b74b8     ext_client.cpp.obj
 0002:00000528       ??_C@_0P@ECBNDEOF@sro_client?4exe@ 100b7528     ext_client.cpp.obj
 0002:00000538       ??_C@_0CI@PKNNMGLC@?$FLext_client?$FN?5client?5core?5thread@ 100b7538     ext_client.cpp.obj
 0002:00000560       ??_C@_0EA@BAPJELFM@?$FLext_client?$FN?5critical?5error?3?5ho@ 100b7560     ext_client.cpp.obj
 0002:000005a0       ??_C@_0DD@NFPIDBIC@?$FLext_client?$FN?5hook?5library?5initi@ 100b75a0     ext_client.cpp.obj
 0002:000005d4       ??_C@_0DD@EBNDIINA@?$FLext_client?$FN?5warning?3?5some?5hook@ 100b75d4     ext_client.cpp.obj
 0002:00000608       ??_C@_0DD@DKEGHKPI@?$FLext_client?$FN?5all?5core?5hooks?5ins@ 100b7608     ext_client.cpp.obj
 0002:0000063c       ??_C@_0M@LPAKIOHO@ExitProcess@ 100b763c     ext_client.cpp.obj
 0002:00000648       ??_C@_0N@MDJJJHMB@kernel32?4dll@ 100b7648     ext_client.cpp.obj
 0002:00000658       ??_C@_0DH@COPPGBMI@?$FLext_client?$FN?5ExitProcess?5detour@ 100b7658     ext_client.cpp.obj
 0002:00000690       ??_C@_0DL@GJJJCNMC@?$FLext_client?$FN?5warning?3?5ExitProce@ 100b7690     ext_client.cpp.obj
 0002:000006cc       ??_C@_0BA@HKEKMKC@PostQuitMessage@ 100b76cc     ext_client.cpp.obj
 0002:000006dc       ??_C@_0L@GMPLCCII@user32?4dll@ 100b76dc     ext_client.cpp.obj
 0002:000006e8       ??_C@_0DL@PCKEOFDB@?$FLext_client?$FN?5PostQuitMessage?5de@ 100b76e8     ext_client.cpp.obj
 0002:00000724       ??_C@_0DP@CJPKCMPF@?$FLext_client?$FN?5warning?3?5PostQuitM@ 100b7724     ext_client.cpp.obj
 0002:00000764       ??_C@_0DL@HGHHBHHC@?$FLext_client?$FN?5CPSQuit?3?3OnUpdate?5@ 100b7764     ext_client.cpp.obj
 0002:000007a0       ??_C@_0DP@FLHKDIBD@?$FLext_client?$FN?5warning?3?5CPSQuit?3?3@ 100b77a0     ext_client.cpp.obj
 0002:000007e0       ??_C@_0CM@LAEMNJPN@?$FLext_client?$FN?5unload?5requested?5v@ 100b77e0     ext_client.cpp.obj
 0002:0000080c       ??_C@_0CK@LDMFMEHG@?$FLext_client?$FN?5initiating?5shutdow@ 100b780c     ext_client.cpp.obj
 0002:00000838       ??_C@_0BP@CJHGAKMN@?$FLext_client?$FN?5shutdown?5complete@ 100b7838     ext_client.cpp.obj
 0002:00000858       ??_C@_07CIFAGBMG@unknown@  100b7858     shutdown_guard.cpp.obj
 0002:00000860       ??_C@_0BM@ONPOHGJG@?$FLshutdown_guard?$FN?5armed?5?$CI?$CFs?$CJ@ 100b7860     shutdown_guard.cpp.obj
 0002:00000880       ??_C@_0EE@HMODCMLO@?$FLshutdown_guard?$FN?5forcing?5proces@ 100b7880     shutdown_guard.cpp.obj
 0002:000008c8       ??_7exception@std@@6B@     100b78c8     d3d_hook.cpp.obj
 0002:000008d0       ??_C@_0BC@EOODALEL@Unknown?5exception@ 100b78d0     d3d_hook.cpp.obj
 0002:000008e8       ??_7bad_alloc@std@@6B@     100b78e8     d3d_hook.cpp.obj
 0002:000008f4       ??_7bad_array_new_length@std@@6B@ 100b78f4     d3d_hook.cpp.obj
 0002:000008fc       ??_C@_0BF@KINCDENJ@bad?5array?5new?5length@ 100b78fc     d3d_hook.cpp.obj
 0002:00000914       ??_C@_0CL@BEPAKNLF@?$FLd3d_hook?$FN?5imgui?5ready?5?$CIdevice?$DN@ 100b7914     d3d_hook.cpp.obj
 0002:00000940       ??_C@_0CH@MBFNNHNG@?$FLd3d_hook?$FN?5rebound?5imgui?5hwnd?5?$CF@ 100b7940     d3d_hook.cpp.obj
 0002:00000968       ??_C@_0N@FHFBIKKI@window_close@ 100b7968     d3d_hook.cpp.obj
 0002:00000978       ??_C@_0EC@OPCGEJEM@?$FLd3d_hook?$FN?5Reset?3?5Forcing?5tripl@ 100b7978     d3d_hook.cpp.obj
 0002:000009bc       ??_C@_0DP@BOJOGMCL@?$FLd3d_hook?$FN?5Reset?3?5Forcing?5D3DPR@ 100b79bc     d3d_hook.cpp.obj
 0002:000009fc       ??_C@_0DH@CHCGOPN@?$FLd3d_hook?$FN?5Direct3DCreate9?5inte@ 100b79fc     d3d_hook.cpp.obj
 0002:00000a38       ??_C@_0EH@BEGENIOO@?$FLd3d_hook?$FN?5CreateDevice?3?5Adapte@ 100b7a38     d3d_hook.cpp.obj
 0002:00000a80       ??_C@_0DL@BAMIBAED@?$FLd3d_hook?$FN?5GPU?5supports?5Hardwar@ 100b7a80     d3d_hook.cpp.obj
 0002:00000abc       ??_C@_0DK@CLNICAFG@?$FLd3d_hook?$FN?5GPU?5supports?5Pure?5De@ 100b7abc     d3d_hook.cpp.obj
 0002:00000af8       ??_C@_0DL@HHPJCKKO@?$FLd3d_hook?$FN?5Pure?5Device?5requeste@ 100b7af8     d3d_hook.cpp.obj
 0002:00000b38       ??_C@_0EI@MLBMCOML@?$FLd3d_hook?$FN?5GPU?5does?5not?5support@ 100b7b38     d3d_hook.cpp.obj
 0002:00000b80       ??_C@_0DA@KAMICMEH@?$FLd3d_hook?$FN?5Failed?5to?5query?5devi@ 100b7b80     d3d_hook.cpp.obj
 0002:00000bb0       ??_C@_0DL@KFNKJGMC@?$FLd3d_hook?$FN?5Forcing?5triple?5buffe@ 100b7bb0     d3d_hook.cpp.obj
 0002:00000bec       ??_C@_0DI@KEFOPEJ@?$FLd3d_hook?$FN?5Forcing?5D3DPRESENTFL@ 100b7bec     d3d_hook.cpp.obj
 0002:00000c24       ??_C@_0CM@GPDIHBPP@?$FLd3d_hook?$FN?5Device?5successfully?5@ 100b7c24     d3d_hook.cpp.obj
 0002:00000c50       ??_C@_0CL@FMKGNBNO@?$FLd3d_hook?$FN?5CreateDevice?5failed?5@ 100b7c50     d3d_hook.cpp.obj
 0002:00000c7c       ??_C@_0N@JIIFLKLP@CreateDevice@ 100b7c7c     d3d_hook.cpp.obj
 0002:00000c8c       ??_C@_08JOJPFIBL@d3d_hook@ 100b7c8c     d3d_hook.cpp.obj
 0002:00000c98       ??_C@_0CI@LMHHCPBL@?$FLd3d_hook?$FN?5hooked?5CreateDevice?5@ 100b7c98     d3d_hook.cpp.obj
 0002:00000cc0       ??_C@_08DFNIHOFL@EndScene@ 100b7cc0     d3d_hook.cpp.obj
 0002:00000ccc       ??_C@_05CCGMLFNG@Reset@    100b7ccc     d3d_hook.cpp.obj
 0002:00000cd4       ??_C@_0DH@JNHNMDJC@?$FLd3d_hook?$FN?5hooked?5EndScene?5?$EA?50x@ 100b7cd4     d3d_hook.cpp.obj
 0002:00000d0c       ??_C@_08NIHLGCK@d3d9?4dll@ 100b7d0c     d3d_hook.cpp.obj
 0002:00000d18       ??_C@_0BA@FAFMMBOF@Direct3DCreate9@ 100b7d18     d3d_hook.cpp.obj
 0002:00000d28       ??_C@_0CL@HBGKHBEE@?$FLd3d_hook?$FN?5hooked?5Direct3DCreat@ 100b7d28     d3d_hook.cpp.obj
 0002:00000d58       ??_C@_0EM@BBHMLBFD@?$FLd3d_hook?$FN?5active?5device?5alread@ 100b7d58     d3d_hook.cpp.obj
 0002:00000da4       ??_C@_0BE@BHBDNPPP@?$FLd3d_hook?$FN?5unhooked@ 100b7da4     d3d_hook.cpp.obj
 0002:00000db8       ??_C@_0BE@JGGNDKDA@?$FL?$CFs?$FN?5?$CFs?5hook?5failed@ 100b7db8     d3d_hook.cpp.obj
 0002:00000dd0       ??_7?$_Func_impl_no_alloc@V<lambda_8019bdfe0512b4fe063b74018eb77c39>@@X$$V@std@@6B@ 100b7dd0     d3d_hook.cpp.obj
 0002:00000dec       ??_7?$_Func_impl_no_alloc@V<lambda_ee8dfbd253b68aa19b43fb36ec206597>@@X$$V@std@@6B@ 100b7dec     d3d_hook.cpp.obj
 0002:00000e08       ??_7?$_Func_impl_no_alloc@V<lambda_b04c464536f8b168a4c9ecd89205d2d2>@@X$$V@std@@6B@ 100b7e08     d3d_hook.cpp.obj
 0002:00000e24       ??_7?$_Func_impl_no_alloc@V<lambda_59909544974d3be07ecadbe172069b22>@@X$$V@std@@6B@ 100b7e24     d3d_hook.cpp.obj
 0002:00000e3c       ??_C@_0BA@FOIKENOD@vector?5too?5long@ 100b7e3c     d3d_hook.cpp.obj
 0002:00000e4c       ??_C@_0DG@BJMAAHKN@?$FLhook_manager?$FN?5ERROR?3?5version_c@ 100b7e4c     hook_manager.cpp.obj
 0002:00000e84       ??_C@_0CO@GONBBLID@?$FLhook_manager?$FN?5ERROR?3?5title?5fai@ 100b7e84     hook_manager.cpp.obj
 0002:00000eb4       ??_C@_0CP@MCJFCMFJ@?$FLhook_manager?$FN?5ERROR?3?5packet?5fa@ 100b7eb4     hook_manager.cpp.obj
 0002:00000ee4       ??_C@_0DH@DALEPKED@?$FLhook_manager?$FN?5ERROR?3?5interface@ 100b7ee4     hook_manager.cpp.obj
 0002:00000f1c       ??_C@_0DJ@KKEMDAEF@?$FLhook_manager?$FN?5ERROR?3?5character@ 100b7f1c     hook_manager.cpp.obj
 0002:00000f58       ??_C@_0DE@NFFNHCL@?$FLhook_manager?$FN?5ERROR?3?5welcome_m@ 100b7f58     hook_manager.cpp.obj
 0002:00000f8c       ??_C@_0DE@EEMACHE@?$FLhook_manager?$FN?5ERROR?3?5sight_ran@ 100b7f8c     hook_manager.cpp.obj
 0002:00000fc0       ??_C@_0CO@JCBDIFLE@?$FLhook_manager?$FN?5ERROR?3?5intro?5fai@ 100b7fc0     hook_manager.cpp.obj
 0002:00000ff0       ??_C@_0CO@LLOKKHCC@?$FLhook_manager?$FN?5ERROR?3?5quest?5fai@ 100b7ff0     hook_manager.cpp.obj
 0002:00001020       ??_C@_0DC@FDKMJPHF@?$FLhook_manager?$FN?5ERROR?3?5assertion@ 100b8020     hook_manager.cpp.obj
 0002:00001054       ??_C@_0CJ@IDFDGFBJ@interface?2loading?2start_loading@ 100b8054     version_check_hook.cpp.obj
 0002:00001084       ??_7Image@Gdiplus@@6B@     100b8084     version_check_hook.cpp.obj
 0002:00001090       ??_7Bitmap@Gdiplus@@6B@    100b8090     version_check_hook.cpp.obj
 0002:00001098       ??_C@_0BM@EHPGHCMG@?$FLversion_check?$FN?5instance?$DN?$CFp@ 100b8098     version_check_hook.cpp.obj
 0002:000010b4       ??_C@_0CJ@OBIGCMPP@?$FLversion_check?$FN?5gateway?5connect@ 100b80b4     version_check_hook.cpp.obj
 0002:000010e0       ??_C@_0CG@LPOCBEJK@?$FLversion_check?$FN?5gateway?5connect@ 100b80e0     version_check_hook.cpp.obj
 0002:00001108       ??_C@_0DB@KJBNCGDN@?$FLversion_check?$FN?5child?5?$CD?$CFd?5?$DN?5?$CFp?0@ 100b8108     version_check_hook.cpp.obj
 0002:00001140       ??_C@_0EG@BJPCCOKJ@?$FLversion_check?$FN?5find_loading_ba@ 100b8140     version_check_hook.cpp.obj
 0002:00001188       ??_C@_0EI@LFBNJCBD@?$FLversion_check?$FN?5find_loading_ba@ 100b8188     version_check_hook.cpp.obj
 0002:000011d0       ??_C@_0DM@HHGLKFKE@?$FLversion_check?$FN?5find_loading_ba@ 100b81d0     version_check_hook.cpp.obj
 0002:0000120c       __GUID_85c31227_3de5_4f00_9b3a_f11ac38c18b5 100b820c     version_check_hook.cpp.obj
 0002:00001220       ??_C@_0EE@PMABMLNL@?$FLversion_check?$FN?5found?5D3D?5textu@ 100b8220     version_check_hook.cpp.obj
 0002:00001264       ??_C@_0N@KIAFNDB@?$DMunreadable?$DO@ 100b8264     version_check_hook.cpp.obj
 0002:00001278       ??_C@_0EM@MCGLGJON@?$FLversion_check?$FN?5convert?5failed?3@ 100b8278     version_check_hook.cpp.obj
 0002:000012c4       ??_C@_0N@MKIDEJOI@d3dx9_43?4dll@ 100b82c4     version_check_hook.cpp.obj
 0002:000012d4       ??_C@_0N@BNPJKEN@d3dx9_42?4dll@ 100b82d4     version_check_hook.cpp.obj
 0002:000012e4       ??_C@_0N@IHELOIOD@d3dx9_41?4dll@ 100b82e4     version_check_hook.cpp.obj
 0002:000012f4       ??_C@_0N@EMBHDLEG@d3dx9_40?4dll@ 100b82f4     version_check_hook.cpp.obj
 0002:00001304       ??_C@_0N@KOLPFEAA@d3dx9_39?4dll@ 100b8304     version_check_hook.cpp.obj
 0002:00001314       ??_C@_0N@GFODIHKF@d3dx9_38?4dll@ 100b8314     version_check_hook.cpp.obj
 0002:00001324       ??_C@_0N@JELFDFHA@d3dx9_37?4dll@ 100b8324     version_check_hook.cpp.obj
 0002:00001334       ??_C@_0N@FPOJOGNF@d3dx9_36?4dll@ 100b8334     version_check_hook.cpp.obj
 0002:00001344       ??_C@_0N@NJHNJEHL@d3dx9_35?4dll@ 100b8344     version_check_hook.cpp.obj
 0002:00001354       ??_C@_0N@BCCBEHNO@d3dx9_34?4dll@ 100b8354     version_check_hook.cpp.obj
 0002:00001364       ??_C@_0N@PCEHHGG@d3dx9_33?4dll@ 100b8364     version_check_hook.cpp.obj
 0002:00001374       ??_C@_0N@MEHIKEMD@d3dx9_32?4dll@ 100b8374     version_check_hook.cpp.obj
 0002:00001384       ??_C@_0N@ECOMNGGN@d3dx9_31?4dll@ 100b8384     version_check_hook.cpp.obj
 0002:00001394       ??_C@_0N@IJLAAFMI@d3dx9_30?4dll@ 100b8394     version_check_hook.cpp.obj
 0002:000013a4       ??_C@_0N@IMIFPLE@d3dx9_29?4dll@ 100b83a4     version_check_hook.cpp.obj
 0002:000013b4       ??_C@_0N@MDJEIMBB@d3dx9_28?4dll@ 100b83b4     version_check_hook.cpp.obj
 0002:000013c4       ??_C@_0N@DCMCDOME@d3dx9_27?4dll@ 100b83c4     version_check_hook.cpp.obj
 0002:000013d4       ??_C@_0N@PJJOONGB@d3dx9_26?4dll@ 100b83d4     version_check_hook.cpp.obj
 0002:000013e4       ??_C@_0N@HPAKJPMP@d3dx9_25?4dll@ 100b83e4     version_check_hook.cpp.obj
 0002:000013f4       ??_C@_0N@LEFGEMGK@d3dx9_24?4dll@ 100b83f4     version_check_hook.cpp.obj
 0002:00001404       ??_C@_0BL@DOKAHNDD@D3DXLoadSurfaceFromSurface@ 100b8404     version_check_hook.cpp.obj
 0002:00001420       ??_C@_0DE@FDNGMGFC@?$FLversion_check?$FN?5using?5?$CFs?$CBD3DXLo@ 100b8420     version_check_hook.cpp.obj
 0002:00001454       ??_C@_04FKMICODN@show@     100b8454     version_check_hook.cpp.obj
 0002:00001460       ??_C@_0GH@BHAFNOJM@?$FLversion_check?$FN?5?$CFs?5preloaded?5lo@ 100b8460     version_check_hook.cpp.obj
 0002:000014c8       ??_C@_0DB@LJMBFEPP@?$FLversion_check?$FN?5failed?5to?5set?5l@ 100b84c8     version_check_hook.cpp.obj
 0002:000014fc       ??_C@_03KCHOJKKI@set@      100b84fc     version_check_hook.cpp.obj
 0002:00001500       ??_C@_0FK@PLOBFOIJ@?$FLversion_check?$FN?5?$CFs?5loading?5bann@ 100b8500     version_check_hook.cpp.obj
 0002:00001560       ??_C@_0GC@BIBIOHNK@?$FLversion_check?$FN?5?$CFs?5loading?5bann@ 100b8560     version_check_hook.cpp.obj
 0002:000015c4       ??_C@_0DD@PAODNOIO@?$FLversion_check?$FN?5cycle?5initializ@ 100b85c4     version_check_hook.cpp.obj
 0002:000015f8       ??_C@_0EF@IOMDCJHJ@?$FLversion_check?$FN?5cycle?5trigger?3?5@ 100b85f8     version_check_hook.cpp.obj
 0002:00001640       ??_C@_06BEAPMILO@cycled@   100b8640     version_check_hook.cpp.obj
 0002:00001648       ??_C@_0GC@MCOKEHKO@?$FLversion_check?$FN?5preloaded?5loadi@ 100b8648     version_check_hook.cpp.obj
 0002:000016b0       ??_C@_0FJ@PGCLFLFH@?$FLversion_check?$FN?5preloaded?5?$CFd?5lo@ 100b86b0     version_check_hook.cpp.obj
 0002:0000170c       ??_C@_0DH@LMHEMNNN@?$FLversion_check?$FN?5failed?5to?5start@ 100b870c     version_check_hook.cpp.obj
 0002:00001748       ??_C@_0EA@JEFNOLD@?$FLversion_check?$FN?5Restoring?5origi@ 100b8748     version_check_hook.cpp.obj
 0002:00001788       ??_C@_0CK@IGKDGCHE@?$FLversion_check?$FN?5OnCreate?$CIself?$DN?$CF@ 100b8788     version_check_hook.cpp.obj
 0002:000017b8       ??_C@_0GB@HKKFGOLP@?$FLversion_check?$FN?5OnCreate?5origin@ 100b87b8     version_check_hook.cpp.obj
 0002:0000181c       ??_C@_0O@CHLPGLGD@initial?5cycle@ 100b881c     version_check_hook.cpp.obj
 0002:0000182c       ??_C@_07GLCKIJBG@initial@  100b882c     version_check_hook.cpp.obj
 0002:00001838       ??_C@_0FP@FMBLCIFG@?$FLversion_check?$FN?5Recreating?5wind@ 100b8838     version_check_hook.cpp.obj
 0002:00001898       ??_C@_0FA@DKNIMIHG@?$FLversion_check?$FN?5Resetting?5D3D?5v@ 100b8898     version_check_hook.cpp.obj
 0002:000018e8       ??_C@_0EC@GJKNNCBO@?$FLversion_check?$FN?5customizing?5loa@ 100b88e8     version_check_hook.cpp.obj
 0002:0000192c       ??_C@_0DH@FLLIMNCO@?$FLversion_check?$FN?5on_update_detou@ 100b892c     version_check_hook.cpp.obj
 0002:00001964       ??_C@_0CI@ONPMMECB@?$FLversion_check?$FN?5OnMsgRecv?5opcod@ 100b8964     version_check_hook.cpp.obj
 0002:0000198c       ??_C@_0CK@BOFPALKM@?$FLversion_check?$FN?5forcing?5version@ 100b898c     version_check_hook.cpp.obj
 0002:000019b8       ??_C@_0DN@PGFPNMBH@?$FLversion_check?$FN?5blocked?5SetChil@ 100b89b8     version_check_hook.cpp.obj
 0002:000019f8       ??_C@_0DJ@DGMPOEPC@?$FLcps_title?$FN?5blocked?5SetChildPro@ 100b89f8     version_check_hook.cpp.obj
 0002:00001a38       ??_C@_0GI@FGAHIHAD@?$FLversion_check?$FN?5SetChildProcess@ 100b8a38     version_check_hook.cpp.obj
 0002:00001aa0       ??_C@_0CN@JLOGKIBK@?$FLversion_check?$FN?5skipped?5CPS_Loa@ 100b8aa0     version_check_hook.cpp.obj
 0002:00001ad0       ??_C@_0BA@GNPOGNAI@create_instance@ 100b8ad0     version_check_hook.cpp.obj
 0002:00001ae0       ??_C@_0O@NJBCPHFL@version_check@ 100b8ae0     version_check_hook.cpp.obj
 0002:00001af0       ??_C@_0BA@PKCIOFBG@connect_gateway@ 100b8af0     version_check_hook.cpp.obj
 0002:00001b00       ??_C@_09EBLALOKP@on_create@ 100b8b00     version_check_hook.cpp.obj
 0002:00001b0c       ??_C@_09DFBGJPOA@on_update@ 100b8b0c     version_check_hook.cpp.obj
 0002:00001b18       ??_C@_0M@BEHFINEM@on_msg_recv@ 100b8b18     version_check_hook.cpp.obj
 0002:00001b24       ??_C@_0BC@HNFDNKKM@set_child_process@ 100b8b24     version_check_hook.cpp.obj
 0002:00001b38       ??_C@_0O@EMLJFD@load_textdata@ 100b8b38     version_check_hook.cpp.obj
 0002:00001b48       ??_C@_0CA@IEEENCNI@?$FLversion_check?$FN?5hooks?5installed@ 100b8b48     version_check_hook.cpp.obj
 0002:00001b68       ??_C@_0BO@KGBPIHPD@?$FLversion_check?$FN?5hooks?5removed@ 100b8b68     version_check_hook.cpp.obj
 0002:00001b88       ??_C@_0DE@IENHPFEF@?$FLversion_check?$FN?5tick?3?5cycling?5b@ 100b8b88     version_check_hook.cpp.obj
 0002:00001bc0       ??_7?$_Func_impl_no_alloc@V<lambda_2b4e874bcc56da08e0b7e4d871685d0b>@@X$$V@std@@6B@ 100b8bc0     version_check_hook.cpp.obj
 0002:00001bdc       ??_7?$_Func_impl_no_alloc@V<lambda_31d96936e7aec46c316efa19b922f190>@@X$$V@std@@6B@ 100b8bdc     version_check_hook.cpp.obj
 0002:00001bf8       ??_7?$_Func_impl_no_alloc@V<lambda_9c931b08981ab1c8b2118511c7bdace0>@@X$$V@std@@6B@ 100b8bf8     version_check_hook.cpp.obj
 0002:00001c14       ??_7?$_Func_impl_no_alloc@V<lambda_dcdab12d9be94e416b0298cb70ec5c72>@@X$$V@std@@6B@ 100b8c14     version_check_hook.cpp.obj
 0002:00001c30       ??_7?$_Func_impl_no_alloc@V<lambda_0753aca32cbf0d54a6a3e7c426e16cb4>@@X$$V@std@@6B@ 100b8c30     version_check_hook.cpp.obj
 0002:00001c4c       ??_7?$_Func_impl_no_alloc@V<lambda_19ea2bfdb895bb65b013e89caf4128fb>@@X$$V@std@@6B@ 100b8c4c     version_check_hook.cpp.obj
 0002:00001c88       ??_C@_0BE@EIPBGNHP@Loading?5splash?5?$CF02d@ 100b8c88     loading_splash_overlay.cpp.obj
 0002:00001c9c       ??_C@_00CNPNBAHC@@         100b8c9c     loading_splash_overlay.cpp.obj
 0002:00001ca0       ??_C@_0CP@FGFEPHNG@?$FLversion_check?$FN?5overlay?5create?5@ 100b8ca0     loading_splash_overlay.cpp.obj
 0002:00001cd0       ??_C@_0FM@DGDJBOMD@?$FLversion_check?$FN?5overlay?5started@ 100b8cd0     loading_splash_overlay.cpp.obj
 0002:00001d2c       ??_C@_0CA@HHGJMKCP@?$FLversion_check?$FN?5overlay?5stopped@ 100b8d2c     loading_splash_overlay.cpp.obj
 0002:00001e1c       ??_C@_0DA@JCGIOLCO@?$FLtitle_hook?$FN?5OnCreate?5skipped?5?$CI@ 100b8e1c     title_hook.cpp.obj
 0002:00001e4c       ??_C@_0CF@POEOBDLK@?$FLtitle_hook?$FN?5OnMsgRecv?5opcode?$DN0@ 100b8e4c     title_hook.cpp.obj
 0002:00001e74       ??_C@_0CJ@MDNCACMA@?$FLtitle_hook?$FN?5blocked?5login?5pack@ 100b8e74     title_hook.cpp.obj
 0002:00001ea0       ??_C@_0EI@JLAPNKMO@?$FLtitle_hook?$FN?5auth?5notify?5receiv@ 100b8ea0     title_hook.cpp.obj
 0002:00001ee8       ??_C@_0DB@KHHJKOJG@?$FLtitle_hook?$FN?5updating?5selected?5@ 100b8ee8     title_hook.cpp.obj
 0002:00001f1c       ??_C@_1BK@OMJGCNON@?$AAD?$AAa?$AAt?$AAa?$AA?5?$AAV?$AAe?$AAr?$AAs?$AAi?$AAo?$AAn@ 100b8f1c     title_hook.cpp.obj
 0002:00001f38       ??_C@_1BI@DCCKJGHO@?$AAE?$AAx?$AAe?$AA?5?$AAV?$AAe?$AAr?$AAs?$AAi?$AAo?$AAn@ 100b8f38     title_hook.cpp.obj
 0002:00001f50       ??_C@_1BA@LIACFDLB@?$AAV?$AAe?$AAr?$AAs?$AAi?$AAo?$AAn@ 100b8f50     title_hook.cpp.obj
 0002:00001f60       ??_C@_19NBIDBHK@?$AAB?$AAe?$AAt?$AAa@ 100b8f60     title_hook.cpp.obj
 0002:00001f6c       ??_C@_17EKDACLFK@?$AA?$CF?$AAl?$AAf@ 100b8f6c     title_hook.cpp.obj
 0002:00001f74       ??_C@_0CG@GOLNABKA@?$FLtitle_hook?$FN?5discovered?5data?5la@ 100b8f74     title_hook.cpp.obj
 0002:00001f9c       ??_C@_0DC@OCEFFKDN@?$FLtitle_hook?$FN?5discovered?5exe?5lab@ 100b8f9c     title_hook.cpp.obj
 0002:00001fd0       ??_C@_0EJ@MBNHALKK@?$FLtitle_hook?$FN?5login?5layout?5descr@ 100b8fd0     title_hook.cpp.obj
 0002:0000201c       ??_C@_0CC@KPPBDKAE@?$FLtitle_hook?$FN?5login?5frame?5?$CFs?5?9?$DO?5@ 100b901c     title_hook.cpp.obj
 0002:00002040       ??_C@_0M@KJOAIHMC@list_button@ 100b9040     title_hook.cpp.obj
 0002:0000204c       ??_C@_0DE@PLGPAEOD@?$FLtitle_hook?$FN?5channel?5list?5butto@ 100b904c     title_hook.cpp.obj
 0002:00002080       ??_C@_0DB@DAJKMPAA@?$FLtitle_hook?$FN?5hid?5channel?5list?5b@ 100b9080     title_hook.cpp.obj
 0002:000020b4       ??_C@_0N@JHNBBAOB@logo?9big?4ddj@ 100b90b4     title_hook.cpp.obj
 0002:000020c4       ??_C@_08HKAPFPC@logo?4ddj@ 100b90c4     title_hook.cpp.obj
 0002:000020d0       ??_C@_0BK@GMFCJHGD@?$FLtitle_hook?$FN?5auto?5DoLogin@ 100b90d0     title_hook.cpp.obj
 0002:000020ec       ??_C@_0DB@HENJEPIG@?$FLtitle_hook?$FN?5hook?9free?5title?5UI@ 100b90ec     title_hook.cpp.obj
 0002:00002120       ??_C@_0L@PGKJFLDN@title_hook@ 100b9120     title_hook.cpp.obj
 0002:0000212c       ??_C@_0BN@DJOMPDEN@?$FLtitle_hook?$FN?5hooks?5installed@ 100b912c     title_hook.cpp.obj
 0002:0000214c       ??_C@_0BL@KPLLDOKO@?$FLtitle_hook?$FN?5hooks?5removed@ 100b914c     title_hook.cpp.obj
 0002:0000216c       ??_7?$_Func_impl_no_alloc@V<lambda_919ba523871a6660731b860850c24c35>@@X$$V@std@@6B@ 100b916c     title_hook.cpp.obj
 0002:00002188       ??_7?$_Func_impl_no_alloc@V<lambda_faf072030710147a91b256853ea97040>@@X$$V@std@@6B@ 100b9188     title_hook.cpp.obj
 0002:000021a0       __real@3ff0000000000000    100b91a0     title_hook.cpp.obj
 0002:000021a8       ??_C@_0M@OBHDHPIP@GDR_STATIC1@ 100b91a8     title_login_layout.cpp.obj
 0002:000021b4       ??_C@_0M@PKIHFJKG@GDR_EDIT_ID@ 100b91b4     title_login_layout.cpp.obj
 0002:000021c0       ??_C@_0M@MKFOCMEM@GDR_STATIC2@ 100b91c0     title_login_layout.cpp.obj
 0002:000021cc       ??_C@_0O@EPKIJDAH@GDR_EDIT_PASS@ 100b91cc     title_login_layout.cpp.obj
 0002:000021dc       ??_C@_0M@NDEFBNAN@GDR_STATIC3@ 100b91dc     title_login_layout.cpp.obj
 0002:000021e8       ??_C@_0P@NHHAIDG@GDR_STA_SERVER@ 100b91e8     title_login_layout.cpp.obj
 0002:000021f8       ??_C@_0P@LNLGNMOM@GDR_BTN_SERVER@ 100b91f8     title_login_layout.cpp.obj
 0002:00002208       ??_C@_0M@JMAEILMK@GDR_STATIC4@ 100b9208     title_login_layout.cpp.obj
 0002:00002214       ??_C@_0BA@JFKNCMPB@GDR_STA_CHANNEL@ 100b9214     title_login_layout.cpp.obj
 0002:00002224       ??_C@_0BA@PDBLNGOP@GDR_BTN_CHANNEL@ 100b9224     title_login_layout.cpp.obj
 0002:00002234       ??_C@_0BH@DKDPODGM@GDR_STA_CHANNELMESSAGE@ 100b9234     title_login_layout.cpp.obj
 0002:0000227c       ??_C@_0DP@EKDIGMGL@?$FLchar_select_hook?$FN?5cached?5slot?5@ 100b927c     character_select_hook.cpp.obj
 0002:000022c0       ??_C@_0EK@MNNDCMBN@?$FLchar_select_hook?$FN?5playing?5char@ 100b92c0     character_select_hook.cpp.obj
 0002:0000230c       ??_C@_0O@CHKGLAIG@call?5returned@ 100b930c     character_select_hook.cpp.obj
 0002:0000231c       ??_C@_0N@LKFEHKON@call?5skipped@ 100b931c     character_select_hook.cpp.obj
 0002:0000232c       ??_C@_0DD@HBAMCGEK@?$FLchar_select_hook?$FN?5char?9select?5@ 100b932c     character_select_hook.cpp.obj
 0002:00002360       ??_C@_0GF@FEIPACFC@?$FLchar_select_hook?$FN?5play_greetin@ 100b9360     character_select_hook.cpp.obj
 0002:000023c8       ??_C@_0DN@HKMNEPBI@?$FLchar_select_hook?$FN?5update_last_@ 100b93c8     character_select_hook.cpp.obj
 0002:00002408       ??_C@_0CM@EJFEDNHI@?$FLchar_select_hook?$FN?5selected_slo@ 100b9408     character_select_hook.cpp.obj
 0002:00002434       ??_C@_0CJ@JMKHAKLL@?$FLchar_select_hook?$FN?5character_at@ 100b9434     character_select_hook.cpp.obj
 0002:00002460       ??_C@_0DN@HPCFHDBK@?$FLchar_select_hook?$FN?5packed_time?5@ 100b9460     character_select_hook.cpp.obj
 0002:000024a0       ??_C@_0EC@MIOBJLCB@?$FLchar_select_hook?$FN?5packed_time?5@ 100b94a0     character_select_hook.cpp.obj
 0002:000024e8       ??_C@_0GA@HPLEFNLC@?$FLchar_select_hook?$FN?5Failed?5to?5co@ 100b94e8     character_select_hook.cpp.obj
 0002:00002548       ??_C@_0EI@LIDCEGLH@?$FLchar_select_hook?$FN?5Elapsed?5pars@ 100b9548     character_select_hook.cpp.obj
 0002:00002590       ??_C@_1FI@JDCPAPFJ@?$AAL?$AAa?$AAs?$AAt?$AA?5?$AAl?$AAo?$AAg?$AAo?$AAu?$AAt?$AA?5?$AA?3?$AA?5?$AA?$CF@ 100b9590     character_select_hook.cpp.obj
 0002:000025e8       ??_C@_1CK@JBPILDKB@?$AAU?$AAI?$AAI?$AAT?$AA_?$AAS?$AAT?$AAT?$AA_?$AAL?$AAA?$AAS?$AAT?$AA_?$AAL@ 100b95e8     character_select_hook.cpp.obj
 0002:00002614       ??_C@_0DA@OGAPIEFI@?$FLchar_select_hook?$FN?5Format?5strin@ 100b9614     character_select_hook.cpp.obj
 0002:00002644       ??_C@_0CJ@HIFCEGNE@?$FLchar_select_hook?$FN?5Formatted?5bu@ 100b9644     character_select_hook.cpp.obj
 0002:00002670       ??_C@_0CN@BLAPIGFO@?$FLchar_select_hook?$FN?5label?5widget@ 100b9670     character_select_hook.cpp.obj
 0002:000026a0       ??_C@_0CM@PCNCDDL@?$FLchar_select_hook?$FN?5set_text?5cal@ 100b96a0     character_select_hook.cpp.obj
 0002:000026cc       ??_C@_0CM@OJJINCCN@?$FLchar_select_hook?$FN?5set_anim?5cal@ 100b96cc     character_select_hook.cpp.obj
 0002:000026f8       ??_C@_0FB@EDGDCGAF@?$FLchar_select_hook?$FN?5on_update_de@ 100b96f8     character_select_hook.cpp.obj
 0002:00002750       ??_C@_0HA@GANMHDJA@?$FLchar_select_hook?$FN?5greeting?5ski@ 100b9750     character_select_hook.cpp.obj
 0002:000027c0       ??_C@_0DI@IIPBAGBG@?$FLchar_select_hook?$FN?5on_enter_msg@ 100b97c0     character_select_hook.cpp.obj
 0002:000027f8       ??_C@_0DL@IFNFMHJN@?$FLchar_select_hook?$FN?5on_slot_chan@ 100b97f8     character_select_hook.cpp.obj
 0002:00002834       ??_C@_0CC@LIEDJHGG@?$FLchar_select_hook?$FN?5install?5call@ 100b9834     character_select_hook.cpp.obj
 0002:00002858       ??_C@_0N@OIDILJKP@on_enter_msg@ 100b9858     character_select_hook.cpp.obj
 0002:00002868       ??_C@_0M@IJMGJFML@char_select@ 100b9868     character_select_hook.cpp.obj
 0002:00002874       ??_C@_0P@CLNJHOPL@on_slot_change@ 100b9874     character_select_hook.cpp.obj
 0002:00002884       ??_C@_0CN@DBOCMKLI@?$FLchar_select_hook?$FN?5hook?5install@ 100b9884     character_select_hook.cpp.obj
 0002:000028b4       ??_C@_0DA@OMAAJFMM@?$FLchar_select_hook?$FN?5hooks?5succes@ 100b98b4     character_select_hook.cpp.obj
 0002:000028e4       ??_C@_0CB@IMDNONA@?$FLchar_select_hook?$FN?5hooks?5remove@ 100b98e4     character_select_hook.cpp.obj
 0002:0000290c       ??_7?$_Func_impl_no_alloc@V<lambda_a9ab3610afa722316d9e4be261787542>@@X$$V@std@@6B@ 100b990c     character_select_hook.cpp.obj
 0002:00002928       ??_7?$_Func_impl_no_alloc@V<lambda_8392ef37813845485c1600dec211f7dd>@@X$$V@std@@6B@ 100b9928     character_select_hook.cpp.obj
 0002:00002944       ??_7?$_Func_impl_no_alloc@V<lambda_d5387bcdc0c40a1de130e5b4a363145c>@@X$$V@std@@6B@ 100b9944     character_select_hook.cpp.obj
 0002:00002960       ??_7?$_Func_impl_no_alloc@V<lambda_9e54353aa454f7d92a3812adb7bd9804>@@X$$V@std@@6B@ 100b9960     character_select_hook.cpp.obj
 0002:00002978       __real@3f000000            100b9978     character_select_hook.cpp.obj
 0002:0000297c       ??_C@_04MLLFJLJF@C?9?$DOS@ 100b997c     packet_hook.cpp.obj
 0002:00002984       ??_C@_04OBJHBOEG@S?9?$DOC@ 100b9984     packet_hook.cpp.obj
 0002:0000298c       ??_C@_09LIBMOLNF@?5modified@ 100b998c     packet_hook.cpp.obj
 0002:00002998       ??_C@_08MBEFIPNN@?5blocked@ 100b9998     packet_hook.cpp.obj
 0002:000029a4       ??_C@_0CG@BEMKKGDD@?$FLnet?$FN?5stream?5?$CFs?5opcode?$DN?$CFs?5len?$DN?$CF@ 100b99a4     packet_hook.cpp.obj
 0002:000029cc       ??_C@_03ICICOMAL@yes@      100b99cc     packet_hook.cpp.obj
 0002:000029d0       ??_C@_02KAJCLHKP@no@       100b99d0     packet_hook.cpp.obj
 0002:000029d4       ??_C@_0CN@HOCKDCMP@?$FLnet?$FN?5CMsg?5?$CFs?5opcode?$DN?$CFs?5len?$DN?$CFzu@ 100b99d4     packet_hook.cpp.obj
 0002:00002a04       ??_C@_0CE@LHPKMPCN@?$FLnet?$FN?5CMsg?5?$CFs?5opcode?$DN?$CFs?5len?$DN?$CFzu@ 100b9a04     packet_hook.cpp.obj
 0002:00002a28       ??_C@_0CE@EIFGNDKN@?$FLnet?$FN?5consumed?5by?5handler?5opcod@ 100b9a28     packet_hook.cpp.obj
 0002:00002a4c       ??_C@_0CB@IIDDCLAP@?$FLnet?$FN?5dropped?5dispatch?5opcode?$DN?$CF@ 100b9a4c     packet_hook.cpp.obj
 0002:00002a70       ??_C@_09ECIIIKHH@from_wire@ 100b9a70     packet_hook.cpp.obj
 0002:00002a7c       ??_C@_0M@KHKNFEPL@packet_hook@ 100b9a7c     packet_hook.cpp.obj
 0002:00002a88       ??_C@_0BA@KOIMGFBJ@stream_dispatch@ 100b9a88     packet_hook.cpp.obj
 0002:00002a98       ??_C@_0BB@CKOLHHEJ@send_from_buffer@ 100b9a98     packet_hook.cpp.obj
 0002:00002aac       ??_C@_0O@EKDAMKDP@cmsg_dispatch@ 100b9aac     packet_hook.cpp.obj
 0002:00002abc       ??_C@_0BB@LLNHKCNK@send_pool_buffer@ 100b9abc     packet_hook.cpp.obj
 0002:00002ad0       ??_C@_0CC@KLBBICDJ@?$FLpacket_hook?$FN?5installed?5?$CI5?5hook@ 100b9ad0     packet_hook.cpp.obj
 0002:00002af8       ??_7?$_Func_impl_no_alloc@V<lambda_d808f1789c8518bdbc5271d6edea4e84>@@X$$V@std@@6B@ 100b9af8     packet_hook.cpp.obj
 0002:00002b14       ??_7?$_Func_impl_no_alloc@V<lambda_05397b0f5f50f30f14183dccbd5f6e17>@@X$$V@std@@6B@ 100b9b14     packet_hook.cpp.obj
 0002:00002b30       ??_7?$_Func_impl_no_alloc@V<lambda_148d939d3f328850d25f1b60d13e1a30>@@X$$V@std@@6B@ 100b9b30     packet_hook.cpp.obj
 0002:00002b4c       ??_7?$_Func_impl_no_alloc@V<lambda_871a06b5f1626861ab912f565d990cd1>@@X$$V@std@@6B@ 100b9b4c     packet_hook.cpp.obj
 0002:00002b68       ??_7?$_Func_impl_no_alloc@V<lambda_079c22eb3c80a0513874cc5549a2b922>@@X$$V@std@@6B@ 100b9b68     packet_hook.cpp.obj
 0002:00002b80       ??_C@_0FC@PLKNIPPM@?$FLinterface_hide_hook?$FN?5hide?5on?$DL?5@ 100b9b80     interface_hide_hook.cpp.obj
 0002:00002bd4       ??_C@_0BE@BBDEABFB@interface_hide_hook@ 100b9bd4     interface_hide_hook.cpp.obj
 0002:00002be8       ??_C@_0P@HKHMEGJG@try_show_panel@ 100b9be8     interface_hide_hook.cpp.obj
 0002:00002bf8       ??_C@_0BA@EFEJDLBK@arm_show_survey@ 100b9bf8     interface_hide_hook.cpp.obj
 0002:00002c08       ??_C@_0CG@EHLBOMEG@?$FLinterface_hide_hook?$FN?5hooks?5ins@ 100b9c08     interface_hide_hook.cpp.obj
 0002:00002c30       ??_C@_0CE@KPPPBFGP@?$FLinterface_hide_hook?$FN?5hooks?5rem@ 100b9c30     interface_hide_hook.cpp.obj
 0002:00002c58       ??_7?$_Func_impl_no_alloc@V<lambda_a280fd544349889b841fe2b307d35585>@@X$$V@std@@6B@ 100b9c58     interface_hide_hook.cpp.obj
 0002:00002c74       ??_7?$_Func_impl_no_alloc@V<lambda_567523d5fd7dcefcd0bcfc084fe47d8c>@@X$$V@std@@6B@ 100b9c74     interface_hide_hook.cpp.obj
 0002:00002c90       ??_7?$_Func_impl_no_alloc@V<lambda_a62fe0be53d700e6aed8d3501e17d169>@@X$$V@std@@6B@ 100b9c90     interface_hide_hook.cpp.obj
 0002:00002ca8       ??_C@_0BA@JFNIOLAK@string?5too?5long@ 100b9ca8     welcome_msg_hook.cpp.obj
 0002:00002cb8       ??_C@_0CM@MAMADB@?$FLwelcome_msg_hook?$FN?5WARNING?3?5msg@ 100b9cb8     welcome_msg_hook.cpp.obj
 0002:00002ce4       ??_C@_0DG@IEBJKJPA@?$FLwelcome_msg_hook?$FN?5Received?5not@ 100b9ce4     welcome_msg_hook.cpp.obj
 0002:00002d20       ??_C@_1FE@DOHCNNIN@?$AAW?$AAe?$AAl?$AAc?$AAo?$AAm?$AAe?$AA?5?$AAb?$AAa?$AAc?$AAk?$AA?0?$AA?5?$AAw@ 100b9d20     welcome_msg_hook.cpp.obj
 0002:00002d74       ??_C@_0DG@GCFKIMCF@?$FLwelcome_msg_hook?$FN?5Blocked?5disp@ 100b9d74     welcome_msg_hook.cpp.obj
 0002:00002db0       ??_C@_0EE@FBNMDIBD@?$FLwelcome_msg_hook?$FN?5Replacing?5we@ 100b9db0     welcome_msg_hook.cpp.obj
 0002:00002df4       ??_C@_0M@DPINJDEI@show_notice@ 100b9df4     welcome_msg_hook.cpp.obj
 0002:00002e00       ??_C@_0BB@DAEPCEN@welcome_msg_hook@ 100b9e00     welcome_msg_hook.cpp.obj
 0002:00002e14       ??_C@_0CP@EMMPCGKP@?$FLwelcome_msg_hook?$FN?5Hook?5install@ 100b9e14     welcome_msg_hook.cpp.obj
 0002:00002e48       ??_7?$_Func_impl_no_alloc@V<lambda_c87f17a2cdfaa0e3acdd13ec8caf5dcf>@@X$$V@std@@6B@ 100b9e48     welcome_msg_hook.cpp.obj
 0002:00002eb4       ??_C@_0BE@LEDMPDDN@set_graphics_option@ 100b9eb4     sight_range_hook.cpp.obj
 0002:00002ec8       ??_C@_0BB@EKCKFLEF@sight_range_hook@ 100b9ec8     sight_range_hook.cpp.obj
 0002:00002edc       ??_C@_0CP@LGJEOKDH@?$FLsight_range_hook?$FN?5Hook?5install@ 100b9edc     sight_range_hook.cpp.obj
 0002:00002f10       ??_7?$_Func_impl_no_alloc@V<lambda_cf0eba39f8e1eaab3d7f90723a1611a1>@@X$$V@std@@6B@ 100b9f10     sight_range_hook.cpp.obj
 0002:00002f28       __real@3fe99999a0000000    100b9f28     sight_range_hook.cpp.obj
 0002:00002f30       __real@4059000000000000    100b9f30     sight_range_hook.cpp.obj
 0002:00002f38       __real@40a0000000000000    100b9f38     sight_range_hook.cpp.obj
 0002:00002f40       __real@40b57c0000000000    100b9f40     sight_range_hook.cpp.obj
 0002:00002f48       ??_C@_0DA@IHAEPJBJ@?$FLintro_hook?$FN?5intro?5render?5pipel@ 100b9f48     intro_hook.cpp.obj
 0002:00002f78       ??_C@_0BC@DMOEMKDH@load_intro_camera@ 100b9f78     intro_hook.cpp.obj
 0002:00002f8c       ??_C@_0L@LMFGLFNP@intro_hook@ 100b9f8c     intro_hook.cpp.obj
 0002:00002f98       ??_C@_0BH@NKPALNEF@?$FLintro_hook?$FN?5installed@ 100b9f98     intro_hook.cpp.obj
 0002:00002fb4       ??_7?$_Func_impl_no_alloc@V<lambda_2361990076fc079cb21c0372f92e4945>@@X$$V@std@@6B@ 100b9fb4     intro_hook.cpp.obj
 0002:00002fd0       ??_C@_0GO@KOGEBGJG@?$FLquest_hook?$FN?5WARNING?3?5Quest?5ID?5@ 100b9fd0     quest_hook.cpp.obj
 0002:00003040       ??_C@_0BF@OHJBDBMN@get_quest_definition@ 100ba040     quest_hook.cpp.obj
 0002:00003058       ??_C@_0L@GFOFHENG@quest_hook@ 100ba058     quest_hook.cpp.obj
 0002:00003064       ??_C@_0CJ@MPHCOIOE@?$FLquest_hook?$FN?5Hook?5installed?5suc@ 100ba064     quest_hook.cpp.obj
 0002:00003094       ??_7?$_Func_impl_no_alloc@V<lambda_00dbecd7ce64df782535c75b83b36d9b>@@X$$V@std@@6B@ 100ba094     quest_hook.cpp.obj
 0002:000030ac       ??_C@_0BC@LMGFPCEE@MsgStreamBuffer?4h@ 100ba0ac     assert_hook.cpp.obj
 0002:000030c0       ??_C@_07OHNGEDJK@nullptr@  100ba0c0     assert_hook.cpp.obj
 0002:000030c8       ??_C@_0EI@IILFHJLD@?$FLassert_hook?$FN?5MsgStreamBuffer?5r@ 100ba0c8     assert_hook.cpp.obj
 0002:00003110       ??_C@_0O@DMHFOPPI@assert_report@ 100ba110     assert_hook.cpp.obj
 0002:00003120       ??_C@_0M@FPJIOKCK@assert_hook@ 100ba120     assert_hook.cpp.obj
 0002:0000312c       ??_C@_0CK@JLKFMKOH@?$FLassert_hook?$FN?5Hook?5installed?5su@ 100ba12c     assert_hook.cpp.obj
 0002:0000315c       ??_7?$_Func_impl_no_alloc@V<lambda_102cef23f42d3c4b8824b1393e54502b>@@X$$V@std@@6B@ 100ba15c     assert_hook.cpp.obj
 0002:00003174       ??_C@_01MCMALHOG@a@        100ba174     net_manager.cpp.obj
 0002:00003178       ??_C@_0BG@PGGOAOG@?$CFs?5?$CFs?50x?$CF04X?5?5len?$DN?$CFzu@ 100ba178     net_manager.cpp.obj
 0002:00003190       ??_C@_0L@PHIOOANN@?5?$FLblocked?$FN@ 100ba190     net_manager.cpp.obj
 0002:0000319c       ??_C@_0M@CMHEGAGF@?5?$FLmodified?$FN@ 100ba19c     net_manager.cpp.obj
 0002:000031a8       ??_C@_02KNHHEEKP@?5?5@     100ba1a8     net_manager.cpp.obj
 0002:000031ac       ??_C@_04JFFKLGJF@?$CF02X@  100ba1ac     net_manager.cpp.obj
 0002:000031b4       ??_C@_0CO@KICDLJPA@?$FLnet_manager?$FN?5auth?5S?9?$DOC?5opcode?$DN@ 100ba1b4     net_manager.cpp.obj
 0002:000031e4       ??_C@_06IFILMILK@0x?$CF04X@ 100ba1e4     net_manager.cpp.obj
 0002:000031ec       ??_C@_04DDPLIBPC@CMsg@     100ba1ec     net_manager.cpp.obj
 0002:000031f4       ??_C@_06DJAMKFID@stream@   100ba1f4     net_manager.cpp.obj
 0002:00003218       ??_C@_02DKCKIIND@?$CFs@    100ba218     packet_inspector.cpp.obj
 0002:0000321c       ??_C@_02NJNOFBBI@?$CFx@    100ba21c     packet_inspector.cpp.obj
 0002:00003220       ??_C@_07EGAJKHF@Capture@   100ba220     packet_inspector.cpp.obj
 0002:00003228       ??_C@_0O@BOJDGBJC@pause?5capture@ 100ba228     packet_inspector.cpp.obj
 0002:00003238       ??_C@_0BA@JKBHGIKE@capture?5enabled@ 100ba238     packet_inspector.cpp.obj
 0002:00003248       ??_C@_08DLJNEKAP@log?5S?9?$DOC@ 100ba248     packet_inspector.cpp.obj
 0002:00003254       ??_C@_08BBLPMPNM@log?5C?9?$DOS@ 100ba254     packet_inspector.cpp.obj
 0002:00003260       ??_C@_0N@BJCIFFPK@layer?5stream@ 100ba260     packet_inspector.cpp.obj
 0002:00003270       ??_C@_0L@ECOFLDNH@layer?5CMsg@ 100ba270     packet_inspector.cpp.obj
 0002:0000327c       ??_C@_0O@NLOGCKKG@follow?5latest@ 100ba27c     packet_inspector.cpp.obj
 0002:0000328c       ??_C@_0BC@OJGKIDCA@write?5packets?4log@ 100ba28c     packet_inspector.cpp.obj
 0002:000032a0       ??_C@_0M@JIOBKECJ@max?5entries@ 100ba2a0     packet_inspector.cpp.obj
 0002:000032ac       ??_C@_08OKMMMLGJ@log?5file@ 100ba2ac     packet_inspector.cpp.obj
 0002:000032b8       ??_C@_09PJIJAKBM@Clear?5log@ 100ba2b8     packet_inspector.cpp.obj
 0002:000032c4       ??_C@_0BC@HKOPBOCG@Block?5?1?5intercept@ 100ba2c4     packet_inspector.cpp.obj
 0002:000032d8       ??_C@_0BD@PHEIDFFE@hook?5edits?5enabled@ 100ba2d8     packet_inspector.cpp.obj
 0002:000032ec       ??_C@_0P@HBPHKAEB@block?5all?5S?9?$DOC@ 100ba2ec     packet_inspector.cpp.obj
 0002:000032fc       ??_C@_0P@FLNFCFJC@block?5all?5C?9?$DOS@ 100ba2fc     packet_inspector.cpp.obj
 0002:0000330c       ??_C@_0BP@MKHBCOOO@off?$AAsingle?5opcode?$AAopcode?5list?$AA@ 100ba30c     packet_inspector.cpp.obj
 0002:0000332c       ??_C@_0N@PEICMLJA@opcode?5block@ 100ba32c     packet_inspector.cpp.obj
 0002:0000333c       ??_C@_04JBNHMKCH@?$CF04X@  100ba33c     packet_inspector.cpp.obj
 0002:00003344       ??_C@_0BF@CPNHINEE@opcode?$CD?$CDblock_single@ 100ba344     packet_inspector.cpp.obj
 0002:0000335c       ??_C@_0BB@JDHLNIAP@6101?0?5A101?0?57007@ 100ba35c     packet_inspector.cpp.obj
 0002:00003370       ??_C@_0BE@GFDFHOHN@opcodes?$CD?$CDblock_list@ 100ba370     packet_inspector.cpp.obj
 0002:00003384       ??_C@_0BA@OKOEBIKF@Clear?5overrides@ 100ba384     packet_inspector.cpp.obj
 0002:00003394       ??_C@_0P@IENOOHMN@Display?5filter@ 100ba394     packet_inspector.cpp.obj
 0002:000033a4       ??_C@_0M@CLCOALFM@show?5stream@ 100ba3a4     packet_inspector.cpp.obj
 0002:000033b0       ??_C@_09MLDOFKDK@show?5CMsg@ 100ba3b0     packet_inspector.cpp.obj
 0002:000033bc       ??_C@_09BJFCMFIO@show?5S?9?$DOC@ 100ba3bc     packet_inspector.cpp.obj
 0002:000033c8       ??_C@_09DDHAEAFN@show?5C?9?$DOS@ 100ba3c8     packet_inspector.cpp.obj
 0002:000033d4       ??_C@_0O@LGBINGMA@hide?5modified@ 100ba3d4     packet_inspector.cpp.obj
 0002:000033e4       ??_C@_0N@BOPAKINF@hide?5blocked@ 100ba3e4     packet_inspector.cpp.obj
 0002:000033f4       ??_C@_0O@MEGFKKK@only?5modified@ 100ba3f4     packet_inspector.cpp.obj
 0002:00003404       ??_C@_0N@JAEKMHCB@only?5blocked@ 100ba404     packet_inspector.cpp.obj
 0002:00003414       ??_C@_07PILANKLN@min?5len@ 100ba414     packet_inspector.cpp.obj
 0002:0000341c       ??_C@_07BONAHFFM@max?5len@ 100ba41c     packet_inspector.cpp.obj
 0002:00003424       ??_C@_0CD@BGCDPHLH@empty?5?$DN?5all?$DL?5e?4g?4?56101?0?5A101?0?50@ 100ba424     packet_inspector.cpp.obj
 0002:00003448       ??_C@_0O@FPINPEHC@opcodes?$CD?$CDview@ 100ba448     packet_inspector.cpp.obj
 0002:00003458       ??_C@_0CC@FLDHBOPJ@substring?5search?5in?5payload?5byt@ 100ba458     packet_inspector.cpp.obj
 0002:0000347c       ??_C@_0BC@MODPJMBM@payload?5hex?$CD?$CDview@ 100ba47c     packet_inspector.cpp.obj
 0002:00003490       ??_C@_0O@NAKIJGGE@Reset?5filters@ 100ba490     packet_inspector.cpp.obj
 0002:000034a0       ??_C@_0CC@MENFLENP@Packets?5?5?$CFzu?5shown?5?1?5?$CFzu?5captur@ 100ba4a0     packet_inspector.cpp.obj
 0002:000034c4       ??_C@_0N@OEDKLPL@packet_table@ 100ba4c4     packet_inspector.cpp.obj
 0002:000034d4       ??_C@_02EGCJHIOB@id@       100ba4d4     packet_inspector.cpp.obj
 0002:000034d8       ??_C@_05NAHLDCCJ@layer@    100ba4d8     packet_inspector.cpp.obj
 0002:000034e0       ??_C@_03DAPAKLGM@dir@      100ba4e0     packet_inspector.cpp.obj
 0002:000034e4       ??_C@_06POMMAHJK@opcode@   100ba4e4     packet_inspector.cpp.obj
 0002:000034ec       ??_C@_03BKCJCHLK@len@      100ba4ec     packet_inspector.cpp.obj
 0002:000034f0       ??_C@_05GECEPKB@flags@     100ba4f0     packet_inspector.cpp.obj
 0002:000034f8       ??_C@_03ECHJBPNK@?$CFzu@   100ba4f8     packet_inspector.cpp.obj
 0002:000034fc       ??_C@_0BC@KLGMICKL@blocked?0?5modified@ 100ba4fc     packet_inspector.cpp.obj
 0002:00003510       ??_C@_07MAJPMGLJ@blocked@  100ba510     packet_inspector.cpp.obj
 0002:00003518       ??_C@_08PCMCJENN@modified@ 100ba518     packet_inspector.cpp.obj
 0002:00003524       ??_C@_09BILIJEFL@Inspector@ 100ba524     packet_inspector.cpp.obj
 0002:00003530       ??_C@_0DG@LCMPABFP@Select?5a?5packet?5row?5to?5inspect?5@ 100ba530     packet_inspector.cpp.obj
 0002:00003568       ??_C@_0CK@GBALNAL@?$CFs?5?$CFs?5?5opcode?5?$CFs?5?5len?5?$CFzu?5?5id?5?$CF@ 100ba568     packet_inspector.cpp.obj
 0002:00003594       ??_C@_08CHPJLAEM@blocked?5@ 100ba594     packet_inspector.cpp.obj
 0002:000035a0       ??_C@_0M@HMPDBPMF@flags?3?5?$CFs?$CFs@ 100ba5a0     packet_inspector.cpp.obj
 0002:000035ac       ??_C@_0M@KAPHJPKJ@payload?5hex@ 100ba5ac     packet_inspector.cpp.obj
 0002:000035b8       ??_C@_0BN@CAGPEJDL@apply?5to?5all?5matching?5opcode@ 100ba5b8     packet_inspector.cpp.obj
 0002:000035d8       ??_C@_0BH@CDKCMGOE@Apply?5payload?5override@ 100ba5d8     packet_inspector.cpp.obj
 0002:000035f0       ??_C@_0O@PBEIILBL@Filter?5opcode@ 100ba5f0     packet_inspector.cpp.obj
 0002:00003600       ??_C@_0N@ECOBDLKN@Block?5opcode@ 100ba600     packet_inspector.cpp.obj
 0002:00003610       ??_C@_0N@HPJPLKJE@Copy?5to?5send@ 100ba610     packet_inspector.cpp.obj
 0002:00003620       ??_C@_0M@GIAPCCAK@Manual?5send@ 100ba620     packet_inspector.cpp.obj
 0002:0000362c       ??_C@_0M@MBKBMJFJ@Send?5packet@ 100ba62c     packet_inspector.cpp.obj
 0002:00003638       __real@3dcccccd            100ba638     packet_inspector.cpp.obj
 0002:0000363c       __real@3df5c28f            100ba63c     packet_inspector.cpp.obj
 0002:00003640       __real@3e19999a            100ba640     packet_inspector.cpp.obj
 0002:00003644       __real@3e3851ec            100ba644     packet_inspector.cpp.obj
 0002:00003648       __real@3e4ccccd            100ba648     packet_inspector.cpp.obj
 0002:0000364c       __real@3e6147ae            100ba64c     packet_inspector.cpp.obj
 0002:00003650       __real@3e800000            100ba650     packet_inspector.cpp.obj
 0002:00003654       __real@3e99999a            100ba654     packet_inspector.cpp.obj
 0002:00003658       __real@3eb33333            100ba658     packet_inspector.cpp.obj
 0002:0000365c       __real@3ecccccd            100ba65c     packet_inspector.cpp.obj
 0002:00003660       __real@3ee66666            100ba660     packet_inspector.cpp.obj
 0002:00003664       __real@42280000            100ba664     packet_inspector.cpp.obj
 0002:00003668       __real@42400000            100ba668     packet_inspector.cpp.obj
 0002:0000366c       __real@42500000            100ba66c     packet_inspector.cpp.obj
 0002:00003670       __real@42800000            100ba670     packet_inspector.cpp.obj
 0002:00003674       __real@42b40000            100ba674     packet_inspector.cpp.obj
 0002:00003678       __real@42f00000            100ba678     packet_inspector.cpp.obj
 0002:0000367c       __real@430c0000            100ba67c     packet_inspector.cpp.obj
 0002:00003680       __real@43480000            100ba680     packet_inspector.cpp.obj
 0002:00003684       __real@bf800000            100ba684     packet_inspector.cpp.obj
 0002:00003688       ??_C@_01NOFIACDB@w@        100ba688     log.cpp.obj
 0002:0000368c       ??_C@_07GPDNMNG@CONOUT$@   100ba68c     log.cpp.obj
 0002:00003694       ??_C@_01KDCPPGHE@r@        100ba694     log.cpp.obj
 0002:00003698       ??_C@_06GDENEHCP@CONIN$@   100ba698     log.cpp.obj
 0002:000036a0       ??_C@_0P@OCJMKMBK@sro_ext_client@ 100ba6a0     log.cpp.obj
 0002:000036b0       ??_C@_0P@PDCLCEEH@ext_client?4log@ 100ba6b0     log.cpp.obj
 0002:000036c0       ??_C@_0O@LJFEHHJJ@console?5ready@ 100ba6c0     log.cpp.obj
 0002:000036d0       ??_C@_01EEMJAFIK@?6@       100ba6d0     log.cpp.obj
 0002:000036d4       ??_C@_0CL@OGFEFGDP@Welcome?5back?0?5we?5hope?5you?5enjoy@ 100ba6d4     client_config.cpp.obj
 0002:00003700       ??_C@_0CM@OPOCDPLN@interface?2outer?2login_window_eu@ 100ba700     client_config.cpp.obj
 0002:0000372c       ??_C@_0BM@NONDABAD@Client?5Data?5Version?5?$CFd?4?$CF03d@ 100ba72c     client_config.cpp.obj
 0002:00003748       ??_C@_0BI@LPBMHKHN@Client?5Exe?5Version?5?$CF?43f@ 100ba748     client_config.cpp.obj
 0002:00003760       ??_C@_0M@LOHANMLN@packets?4log@ 100ba760     client_config.cpp.obj
 0002:00003770       ??_7runtime_error@std@@6B@ 100ba770     client_config.cpp.obj
 0002:0000377c       ??_7_System_error@std@@6B@ 100ba77c     client_config.cpp.obj
 0002:00003784       ??_C@_02LMMGGCAJ@?3?5@     100ba784     client_config.cpp.obj
 0002:0000378c       ??_7system_error@std@@6B@  100ba78c     client_config.cpp.obj
 0002:00003798       ??_7_Iostream_error_category2@std@@6B@ 100ba798     client_config.cpp.obj
 0002:000037b0       ??_C@_08LLGCOLLL@iostream@ 100ba7b0     client_config.cpp.obj
 0002:000037bc       ?_Iostream_error@?4??message@_Iostream_error_category2@std@@UBE?AV?$basic_string@DU?$char_traits@D@std@@V?$allocator@D@2@@3@H@Z@4QBDB 100ba7bc     client_config.cpp.obj
 0002:000037d8       ??_7_Facet_base@std@@6B@   100ba7d8     client_config.cpp.obj
 0002:000037e4       ??_C@_0BA@ELKIONDK@bad?5locale?5name@ 100ba7e4     client_config.cpp.obj
 0002:000037f4       ??_C@_05LAPONLG@false@     100ba7f4     client_config.cpp.obj
 0002:000037fc       ??_C@_04LOAJBDKD@true@     100ba7fc     client_config.cpp.obj
 0002:00003808       ??_7?$ctype@D@std@@6B@     100ba808     client_config.cpp.obj
 0002:00003838       ??_7failure@ios_base@std@@6B@ 100ba838     client_config.cpp.obj
 0002:00003844       ??_7ios_base@std@@6B@      100ba844     client_config.cpp.obj
 0002:00003848       ??_C@_0BF@PHHKMMFD@ios_base?3?3badbit?5set@ 100ba848     client_config.cpp.obj
 0002:00003860       ??_C@_0BG@FMKFHCIL@ios_base?3?3failbit?5set@ 100ba860     client_config.cpp.obj
 0002:00003878       ??_C@_0BF@OOHOMBOF@ios_base?3?3eofbit?5set@ 100ba878     client_config.cpp.obj
 0002:00003890       ??_C@_01HIHLOKLC@1@        100ba890     client_config.cpp.obj
 0002:00003894       ??_C@_01GBGANLPD@0@        100ba894     client_config.cpp.obj
 0002:00003898       ??_C@_0P@FLLEJDMM@ext_client?4ini@ 100ba898     client_config.cpp.obj
 0002:000038a8       ??_C@_05HCCCIHM@promo@     100ba8a8     client_config.cpp.obj
 0002:000038b0       ??_C@_09NFKLEKPH@interface@ 100ba8b0     client_config.cpp.obj
 0002:000038bc       ??_C@_0O@MOAEBKMK@hide_facebook@ 100ba8bc     client_config.cpp.obj
 0002:000038cc       ??_C@_0BA@DFHMJF@hide_magic_lamp@ 100ba8cc     client_config.cpp.obj
 0002:000038dc       ??_C@_0BB@JMONLAOK@hide_daily_login@ 100ba8dc     client_config.cpp.obj
 0002:000038f0       ??_C@_0M@DINLNLAP@hide_survey@ 100ba8f0     client_config.cpp.obj
 0002:000038fc       ??_C@_0BE@KIKIMKKN@hide_web_item_alarm@ 100ba8fc     client_config.cpp.obj
 0002:00003910       ??_C@_0BB@IDNEPJLG@hide_macro_guide@ 100ba910     client_config.cpp.obj
 0002:00003924       ??_C@_0BB@IMDMGHKI@apply_on_startup@ 100ba924     client_config.cpp.obj
 0002:00003938       ??_C@_07MBADLKLA@widgets@  100ba938     client_config.cpp.obj
 0002:00003940       ??_C@_0M@PNOGHBOP@static_only@ 100ba940     client_config.cpp.obj
 0002:0000394c       ??_C@_0N@MBNECGLJ@auto_refresh@ 100ba94c     client_config.cpp.obj
 0002:0000395c       ??_C@_09IOAIKKBL@max_depth@ 100ba95c     client_config.cpp.obj
 0002:00003968       ??_C@_0BB@EAKGKFFB@show_alarm_debug@ 100ba968     client_config.cpp.obj
 0002:0000397c       ??_C@_09HOLMBGHC@deep_scan@ 100ba97c     client_config.cpp.obj
 0002:00003988       ??_C@_0N@DLFAFCIM@probe_max_id@ 100ba988     client_config.cpp.obj
 0002:00003998       ??_C@_07LLDKJBMK@general@  100ba998     client_config.cpp.obj
 0002:000039a0       ??_C@_0P@CDHCBAFF@save_on_change@ 100ba9a0     client_config.cpp.obj
 0002:000039b0       ??_C@_07PGDKGDCB@graphic@  100ba9b0     client_config.cpp.obj
 0002:000039b8       ??_C@_0BD@MCLENPPD@custom_sight_range@ 100ba9b8     client_config.cpp.obj
 0002:000039cc       ??_C@_0BC@DJBKNEEH@sight_range_level@ 100ba9cc     client_config.cpp.obj
 0002:000039e0       ??_C@_0BE@HFFBHAJF@sight_range_percent@ 100ba9e0     client_config.cpp.obj
 0002:000039f4       ??_C@_0BG@NPAPAGEG@d3d_force_hardware_vp@ 100ba9f4     client_config.cpp.obj
 0002:00003a0c       ??_C@_0BG@GFGPJHIJ@d3d_force_pure_device@ 100baa0c     client_config.cpp.obj
 0002:00003a24       ??_C@_0BF@EAJODMCN@d3d_triple_buffering@ 100baa24     client_config.cpp.obj
 0002:00003a3c       ??_C@_0BK@KPIBLHLC@d3d_discard_depth_stencil@ 100baa3c     client_config.cpp.obj
 0002:00003a58       ??_C@_0M@OPNJGPHI@welcome_msg@ 100baa58     client_config.cpp.obj
 0002:00003a64       ??_C@_07MHHIKOPA@enabled@  100baa64     client_config.cpp.obj
 0002:00003a6c       ??_C@_04CIMGMMMG@text@     100baa6c     client_config.cpp.obj
 0002:00003a74       ??_C@_05PHLGJONK@title@    100baa74     client_config.cpp.obj
 0002:00003a7c       ??_C@_0L@IDGKAHDM@log_events@ 100baa7c     client_config.cpp.obj
 0002:00003a88       ??_C@_0P@OHEHKJIP@skip_on_create@ 100baa88     client_config.cpp.obj
 0002:00003a98       ??_C@_0BF@DFIEMHOI@auto_login_on_create@ 100baa98     client_config.cpp.obj
 0002:00003ab0       ??_C@_0BE@DGNJAPEP@block_login_packets@ 100baab0     client_config.cpp.obj
 0002:00003ac4       ??_C@_0BJ@PNIAKGFC@block_process_transition@ 100baac4     client_config.cpp.obj
 0002:00003ae0       ??_C@_0BB@JCFKPJBO@suppress_captcha@ 100baae0     client_config.cpp.obj
 0002:00003af4       ??_C@_0BJ@FCJLOBGJ@hide_channel_list_button@ 100baaf4     client_config.cpp.obj
 0002:00003b10       ??_C@_0BE@NGIIINJC@replace_login_frame@ 100bab10     client_config.cpp.obj
 0002:00003b24       ??_C@_0BB@MMOBFDBK@login_frame_path@ 100bab24     client_config.cpp.obj
 0002:00003b38       ??_C@_0BL@HGOHEPIP@eu_login_id_label_x_adjust@ 100bab38     client_config.cpp.obj
 0002:00003b54       ??_C@_0BL@GBJMFLMM@eu_login_id_label_y_adjust@ 100bab54     client_config.cpp.obj
 0002:00003b70       ??_C@_0BL@NPICJOBB@eu_login_id_input_x_adjust@ 100bab70     client_config.cpp.obj
 0002:00003b8c       ??_C@_0BL@MIPJIKFC@eu_login_id_input_y_adjust@ 100bab8c     client_config.cpp.obj
 0002:00003ba8       ??_C@_0BL@OEIMMJID@eu_login_pw_label_x_adjust@ 100baba8     client_config.cpp.obj
 0002:00003bc4       ??_C@_0BL@PDPHNNMA@eu_login_pw_label_y_adjust@ 100babc4     client_config.cpp.obj
 0002:00003be0       ??_C@_0BL@ENOJBIBN@eu_login_pw_input_x_adjust@ 100babe0     client_config.cpp.obj
 0002:00003bfc       ??_C@_0BL@FKJCAMFO@eu_login_pw_input_y_adjust@ 100babfc     client_config.cpp.obj
 0002:00003c18       ??_C@_0BP@NMCPMJEI@eu_login_server_label_x_adjust@ 100bac18     client_config.cpp.obj
 0002:00003c38       ??_C@_0BP@MLFENNAL@eu_login_server_label_y_adjust@ 100bac38     client_config.cpp.obj
 0002:00003c58       ??_C@_0BP@HCPBPENI@eu_login_server_value_x_adjust@ 100bac58     client_config.cpp.obj
 0002:00003c78       ??_C@_0BP@GFIKOAJL@eu_login_server_value_y_adjust@ 100bac78     client_config.cpp.obj
 0002:00003c98       ??_C@_0CA@MFHPKJOG@eu_login_server_button_x_adjust@ 100bac98     client_config.cpp.obj
 0002:00003cb8       ??_C@_0CA@NCAELNKF@eu_login_server_button_y_adjust@ 100bacb8     client_config.cpp.obj
 0002:00003cd8       ??_C@_0O@GPPENBOC@logo_y_offset@ 100bacd8     client_config.cpp.obj
 0002:00003ce8       ??_C@_0BI@EHKCDPCK@override_version_labels@ 100bace8     client_config.cpp.obj
 0002:00003d00       ??_C@_0BB@OMEMBIGI@data_version_fmt@ 100bad00     client_config.cpp.obj
 0002:00003d14       ??_C@_0BA@EBJNLIDJ@exe_version_fmt@ 100bad14     client_config.cpp.obj
 0002:00003d24       ??_C@_0BN@PEJAJOMM@override_version_label_color@ 100bad24     client_config.cpp.obj
 0002:00003d44       ??_C@_0BE@BJCCPECI@version_label_color@ 100bad44     client_config.cpp.obj
 0002:00003d58       ??_C@_0BE@JBMMJDCH@version_labels_clip@ 100bad58     client_config.cpp.obj
 0002:00003d6c       ??_C@_0BN@FFIMDJO@version_label_ellipsis_width@ 100bad6c     client_config.cpp.obj
 0002:00003d8c       ??_C@_0BH@LHOHPJHM@bypass_gateway_connect@ 100bad8c     client_config.cpp.obj
 0002:00003da4       ??_C@_0BF@MFAOFDKP@force_version_result@ 100bada4     client_config.cpp.obj
 0002:00003dbc       ??_C@_0BG@LNMGCHLE@forced_version_result@ 100badbc     client_config.cpp.obj
 0002:00003dd4       ??_C@_0BD@GDOBEPGF@skip_textdata_load@ 100badd4     client_config.cpp.obj
 0002:00003de8       ??_C@_0BE@OLJMCKPG@skip_loading_splash@ 100bade8     client_config.cpp.obj
 0002:00003dfc       ??_C@_0BD@IKFMPHHF@banner_custom_size@ 100badfc     client_config.cpp.obj
 0002:00003e10       ??_C@_0N@FNONNJI@banner_width@ 100bae10     client_config.cpp.obj
 0002:00003e20       ??_C@_0O@OJOKGJMF@banner_height@ 100bae20     client_config.cpp.obj
 0002:00003e30       ??_C@_0O@EFODCNIL@banner_center@ 100bae30     client_config.cpp.obj
 0002:00003e40       ??_C@_08IOLHLBJN@banner_x@ 100bae40     client_config.cpp.obj
 0002:00003e4c       ??_C@_08JHKMIANM@banner_y@ 100bae4c     client_config.cpp.obj
 0002:00003e58       ??_C@_0N@MHDFLOKL@banner_cycle@ 100bae58     client_config.cpp.obj
 0002:00003e68       ??_C@_0BJ@PMENCHJ@banner_cycle_interval_ms@ 100bae68     client_config.cpp.obj
 0002:00003e84       ??_C@_0N@NLKCDLE@banner_count@ 100bae84     client_config.cpp.obj
 0002:00003e94       ??_C@_0BA@EKDKNFG@banner_path_fmt@ 100bae94     client_config.cpp.obj
 0002:00003ea4       ??_C@_0P@DKELPOG@banner_overlay@ 100baea4     client_config.cpp.obj
 0002:00003eb4       ??_C@_06HKKJOEPD@packet@   100baeb4     client_config.cpp.obj
 0002:00003ebc       ??_C@_0O@EGKCEJN@edit_outgoing@ 100baebc     client_config.cpp.obj
 0002:00003ecc       ??_C@_0BF@FOJLGOBG@edit_outgoing_opcode@ 100baecc     client_config.cpp.obj
 0002:00003ee4       ??_C@_0BI@GNLPIHE@edit_outgoing_apply_all@ 100baee4     client_config.cpp.obj
 0002:00003efc       ??_C@_0O@GCELADCH@edit_incoming@ 100baefc     client_config.cpp.obj
 0002:00003f0c       ??_C@_0BF@CCNLOFBN@edit_incoming_opcode@ 100baf0c     client_config.cpp.obj
 0002:00003f24       ??_C@_0BI@KECFBHPJ@edit_incoming_apply_all@ 100baf24     client_config.cpp.obj
 0002:00003f3c       ??_C@_0M@DDOEAIFA@net_manager@ 100baf3c     client_config.cpp.obj
 0002:00003f48       ??_C@_0N@FAPBCONL@log_outgoing@ 100baf48     client_config.cpp.obj
 0002:00003f58       ??_C@_0N@DGNAAJGB@log_incoming@ 100baf58     client_config.cpp.obj
 0002:00003f68       ??_C@_0N@OKAHJIKG@capture_cmsg@ 100baf68     client_config.cpp.obj
 0002:00003f78       ??_C@_0P@ELKBHAEF@capture_stream@ 100baf78     client_config.cpp.obj
 0002:00003f88       ??_C@_0M@FFKJGFMP@log_to_file@ 100baf88     client_config.cpp.obj
 0002:00003f94       ??_C@_0O@DBIJGNJG@pause_capture@ 100baf94     client_config.cpp.obj
 0002:00003fa4       ??_C@_0P@HGBMDCEA@block_outgoing@ 100bafa4     client_config.cpp.obj
 0002:00003fb4       ??_C@_0P@BADNBFPK@block_incoming@ 100bafb4     client_config.cpp.obj
 0002:00003fc4       ??_C@_0BC@KNFLLAID@block_opcode_mode@ 100bafc4     client_config.cpp.obj
 0002:00003fd8       ??_C@_0N@IEOPPDGE@block_opcode@ 100bafd8     client_config.cpp.obj
 0002:00003fe8       ??_C@_0BC@PPOAFAAK@block_opcode_list@ 100bafe8     client_config.cpp.obj
 0002:00003ffc       ??_C@_0M@LHPLKICN@max_entries@ 100baffc     client_config.cpp.obj
 0002:00004008       ??_C@_09BHMKOJFP@file_path@ 100bb008     client_config.cpp.obj
 0002:00004018       ??_7?$basic_ios@DU?$char_traits@D@std@@@std@@6B@ 100bb018     client_config.cpp.obj
 0002:00004020       ??_7?$basic_istream@DU?$char_traits@D@std@@@std@@6B@ 100bb020     client_config.cpp.obj
 0002:00004028       ??_7?$basic_streambuf@DU?$char_traits@D@std@@@std@@6B@ 100bb028     client_config.cpp.obj
 0002:00004068       ??_7?$basic_filebuf@DU?$char_traits@D@std@@@std@@6B@ 100bb068     client_config.cpp.obj
 0002:000040a8       ??_7?$basic_ifstream@DU?$char_traits@D@std@@@std@@6B@ 100bb0a8     client_config.cpp.obj
 0002:000040ac       ??_8?$basic_ifstream@DU?$char_traits@D@std@@@std@@7B@ 100bb0ac     client_config.cpp.obj
 0002:000040b4       ??_C@_0DB@IILPPEEL@?$FLclient_config?$FN?5no?5config?5at?5?$CFs@ 100bb0b4     client_config.cpp.obj
 0002:000040e8       ??_C@_0CH@JOLAPKMA@?$FLclient_config?$FN?5loaded?5?$CFd?5keys?5@ 100bb0e8     client_config.cpp.obj
 0002:00004114       ??_7?$basic_ostream@DU?$char_traits@D@std@@@std@@6B@ 100bb114     client_config.cpp.obj
 0002:0000411c       ??_7?$basic_ofstream@DU?$char_traits@D@std@@@std@@6B@ 100bb11c     client_config.cpp.obj
 0002:00004120       ??_8?$basic_ofstream@DU?$char_traits@D@std@@@std@@7B@ 100bb120     client_config.cpp.obj
 0002:00004128       ??_C@_0CD@MMFILABI@?$FLclient_config?$FN?5failed?5to?5write@ 100bb128     client_config.cpp.obj
 0002:0000414c       ??_C@_0BI@MKIKPEGJ@?$DL?5ext_client?5settings?6?6@ 100bb14c     client_config.cpp.obj
 0002:00004164       ??_C@_0N@MJJNFHAJ@?$FLinterface?$FN?6@ 100bb164     client_config.cpp.obj
 0002:00004174       ??_C@_0P@BBJHGHAK@hide_facebook?$DN@ 100bb174     client_config.cpp.obj
 0002:00004184       ??_C@_0BB@OKINBKAJ@hide_magic_lamp?$DN@ 100bb184     client_config.cpp.obj
 0002:00004198       ??_C@_0BC@CKKLKOGI@hide_daily_login?$DN@ 100bb198     client_config.cpp.obj
 0002:000041ac       ??_C@_0N@PKGPIOPE@hide_survey?$DN@ 100bb1ac     client_config.cpp.obj
 0002:000041bc       ??_C@_0BF@MCCHDPCB@hide_web_item_alarm?$DN@ 100bb1bc     client_config.cpp.obj
 0002:000041d4       ??_C@_0BC@EIGJIKPO@hide_macro_guide?$DN@ 100bb1d4     client_config.cpp.obj
 0002:000041e8       ??_C@_02PHMGELLB@?6?6@     100bb1e8     client_config.cpp.obj
 0002:000041ec       ??_C@_0BC@LCGJFPAD@apply_on_startup?$DN@ 100bb1ec     client_config.cpp.obj
 0002:00004200       ??_C@_0L@ICGIODLK@?$FLwidgets?$FN?6@ 100bb200     client_config.cpp.obj
 0002:0000420c       ??_C@_0N@FKKAFBCG@static_only?$DN@ 100bb20c     client_config.cpp.obj
 0002:0000421c       ??_C@_0O@NIJEJHLA@auto_refresh?$DN@ 100bb21c     client_config.cpp.obj
 0002:0000422c       ??_C@_0L@OAADIJPI@max_depth?$DN@ 100bb22c     client_config.cpp.obj
 0002:00004238       ??_C@_0BC@HGMEIPHJ@show_alarm_debug?$DN@ 100bb238     client_config.cpp.obj
 0002:0000424c       ??_C@_0L@NEJNOELI@deep_scan?$DN@ 100bb24c     client_config.cpp.obj
 0002:00004258       ??_C@_0O@IONNNHOH@probe_max_id?$DN@ 100bb258     client_config.cpp.obj
 0002:00004268       ??_C@_0L@PLAEPBLP@?$FLgeneral?$FN?6@ 100bb268     client_config.cpp.obj
 0002:00004274       ??_C@_0BA@HBMKJPNF@save_on_change?$DN@ 100bb274     client_config.cpp.obj
 0002:00004284       ??_C@_0L@BFDNAFKI@?$FLgraphic?$FN?6@ 100bb284     client_config.cpp.obj
 0002:00004290       ??_C@_0BE@EOJOFPMH@custom_sight_range?$DN@ 100bb290     client_config.cpp.obj
 0002:000042a4       ??_C@_0BD@ICGJIGFJ@sight_range_level?$DN@ 100bb2a4     client_config.cpp.obj
 0002:000042b8       ??_C@_0BF@OKPIHOAF@sight_range_percent?$DN@ 100bb2b8     client_config.cpp.obj
 0002:000042d0       ??_C@_0BH@PFIIKDBN@d3d_force_hardware_vp?$DN@ 100bb2d0     client_config.cpp.obj
 0002:000042e8       ??_C@_0BH@POOJBMKN@d3d_force_pure_device?$DN@ 100bb2e8     client_config.cpp.obj
 0002:00004300       ??_C@_0BG@CPHHIKPH@d3d_triple_buffering?$DN@ 100bb300     client_config.cpp.obj
 0002:00004318       ??_C@_0BL@EPCIBLKJ@d3d_discard_depth_stencil?$DN@ 100bb318     client_config.cpp.obj
 0002:00004334       ??_C@_0P@PCGFANGL@?$FLwelcome_msg?$FN?6@ 100bb334     client_config.cpp.obj
 0002:00004344       ??_C@_08NHJCMCAM@enabled?$DN@ 100bb344     client_config.cpp.obj
 0002:00004350       ??_C@_05BIMHOJPH@text?$DN@ 100bb350     client_config.cpp.obj
 0002:00004358       ??_C@_08IBMHCFGF@?$FLtitle?$FN?6@ 100bb358     client_config.cpp.obj
 0002:00004364       ??_C@_0M@EFAEFODO@log_events?$DN@ 100bb364     client_config.cpp.obj
 0002:00004370       ??_C@_0BA@BHAIJBKG@skip_on_create?$DN@ 100bb370     client_config.cpp.obj
 0002:00004380       ??_C@_0BG@MEAMKGDD@auto_login_on_create?$DN@ 100bb380     client_config.cpp.obj
 0002:00004398       ??_C@_0BF@IMLNMNLA@block_login_packets?$DN@ 100bb398     client_config.cpp.obj
 0002:000043b0       ??_C@_0BK@OPHAPIMA@block_process_transition?$DN@ 100bb3b0     client_config.cpp.obj
 0002:000043cc       ??_C@_0BC@JAHFCPCE@suppress_captcha?$DN@ 100bb3cc     client_config.cpp.obj
 0002:000043e0       ??_C@_0BK@FONEAKKD@hide_channel_list_button?$DN@ 100bb3e0     client_config.cpp.obj
 0002:000043fc       ??_C@_0BF@HEDPDCFL@replace_login_frame?$DN@ 100bb3fc     client_config.cpp.obj
 0002:00004414       ??_C@_0BC@JHEGFAJH@login_frame_path?$DN@ 100bb414     client_config.cpp.obj
 0002:00004428       ??_C@_0BM@BHJJDBEA@eu_login_id_label_x_adjust?$DN@ 100bb428     client_config.cpp.obj
 0002:00004444       ??_C@_0BM@PIFLFKHO@eu_login_id_label_y_adjust?$DN@ 100bb444     client_config.cpp.obj
 0002:00004460       ??_C@_0BM@IHOKNC@eu_login_id_input_x_adjust?$DN@ 100bb460     client_config.cpp.obj
 0002:0000447c       ??_C@_0BM@OPEFIBOM@eu_login_id_input_y_adjust?$DN@ 100bb47c     client_config.cpp.obj
 0002:00004498       ??_C@_0BM@BOLNBGON@eu_login_pw_label_x_adjust?$DN@ 100bb498     client_config.cpp.obj
 0002:000044b4       ??_C@_0BM@PBHPHNND@eu_login_pw_label_y_adjust?$DN@ 100bb4b4     client_config.cpp.obj
 0002:000044d0       ??_C@_0BM@JKDMNHP@eu_login_pw_input_x_adjust?$DN@ 100bb4d0     client_config.cpp.obj
 0002:000044ec       ??_C@_0BM@OGGBKGEB@eu_login_pw_input_y_adjust?$DN@ 100bb4ec     client_config.cpp.obj
 0002:00004508       ??_C@_0CA@BCDDKONF@eu_login_server_label_x_adjust?$DN@ 100bb508     client_config.cpp.obj
 0002:00004528       ??_C@_0CA@PNPBMFOL@eu_login_server_label_y_adjust?$DN@ 100bb528     client_config.cpp.obj
 0002:00004548       ??_C@_0CA@OCJCODKM@eu_login_server_value_x_adjust?$DN@ 100bb548     client_config.cpp.obj
 0002:00004568       ??_C@_0CA@NFAIIJC@eu_login_server_value_y_adjust?$DN@ 100bb568     client_config.cpp.obj
 0002:00004588       ??_C@_0CB@CDEEHAFK@eu_login_server_button_x_adjust@ 100bb588     client_config.cpp.obj
 0002:000045ac       ??_C@_0CB@MMIGBLGE@eu_login_server_button_y_adjust@ 100bb5ac     client_config.cpp.obj
 0002:000045d0       ??_C@_0P@CEIDDPDL@logo_y_offset?$DN@ 100bb5d0     client_config.cpp.obj
 0002:000045e0       ??_C@_0BJ@LBBECDFH@override_version_labels?$DN@ 100bb5e0     client_config.cpp.obj
 0002:000045fc       ??_C@_0BC@CJGNONMM@data_version_fmt?$DN@ 100bb5fc     client_config.cpp.obj
 0002:00004610       ??_C@_0BB@DFKMFNAO@exe_version_fmt?$DN@ 100bb610     client_config.cpp.obj
 0002:00004624       ??_C@_0BO@PIMOFGLL@override_version_label_color?$DN@ 100bb624     client_config.cpp.obj
 0002:00004644       ??_C@_0BH@FCCCEEAO@version_label_color?$DN0x@ 100bb644     client_config.cpp.obj
 0002:0000465c       ??_C@_0BF@MPHDDBEG@version_labels_clip?$DN@ 100bb65c     client_config.cpp.obj
 0002:00004674       ??_C@_0BO@HNFKKODO@version_label_ellipsis_width?$DN@ 100bb674     client_config.cpp.obj
 0002:00004694       ??_C@_0BB@DONEDNCA@?$FLversion_check?$FN?6@ 100bb694     client_config.cpp.obj
 0002:000046a8       ??_C@_0BI@DDOMJCFA@bypass_gateway_connect?$DN@ 100bb6a8     client_config.cpp.obj
 0002:000046c0       ??_C@_0BG@CMEEPIJE@force_version_result?$DN@ 100bb6c0     client_config.cpp.obj
 0002:000046d8       ??_C@_0BH@KGFJPJAM@forced_version_result?$DN@ 100bb6d8     client_config.cpp.obj
 0002:000046f0       ??_C@_0BE@FHFDDMCG@skip_textdata_load?$DN@ 100bb6f0     client_config.cpp.obj
 0002:00004704       ??_C@_0BF@DONNIDLN@skip_loading_splash?$DN@ 100bb704     client_config.cpp.obj
 0002:0000471c       ??_C@_0BE@EKANJBPK@banner_custom_size?$DN@ 100bb71c     client_config.cpp.obj
 0002:00004730       ??_C@_0O@JEDJINBF@banner_width?$DN@ 100bb730     client_config.cpp.obj
 0002:00004740       ??_C@_0P@IBAPJEOI@banner_height?$DN@ 100bb740     client_config.cpp.obj
 0002:00004750       ??_C@_0P@BAMHPBDL@banner_center?$DN@ 100bb750     client_config.cpp.obj
 0002:00004760       ??_C@_09OENIBAPG@banner_x?$DN@ 100bb760     client_config.cpp.obj
 0002:0000476c       ??_C@_09OFBKHKMB@banner_y?$DN@ 100bb76c     client_config.cpp.obj
 0002:00004778       ??_C@_0O@CLCLAHGA@banner_cycle?$DN@ 100bb778     client_config.cpp.obj
 0002:00004788       ??_C@_0BK@EDDOEFPE@banner_cycle_interval_ms?$DN@ 100bb788     client_config.cpp.obj
 0002:000047a4       ??_C@_0O@KGOJIFAI@banner_count?$DN@ 100bb7a4     client_config.cpp.obj
 0002:000047b4       ??_C@_0BB@OIOEBPNC@banner_path_fmt?$DN@ 100bb7b4     client_config.cpp.obj
 0002:000047c8       ??_C@_0BA@CDICKLEM@banner_overlay?$DN@ 100bb7c8     client_config.cpp.obj
 0002:000047d8       ??_C@_09ECAKLKLI@?$FLpacket?$FN?6@ 100bb7d8     client_config.cpp.obj
 0002:000047e4       ??_C@_0P@OEFCMNGD@edit_outgoing?$DN@ 100bb7e4     client_config.cpp.obj
 0002:000047f4       ??_C@_0BI@EFMEOFGL@edit_outgoing_opcode?$DN0x@ 100bb7f4     client_config.cpp.obj
 0002:0000480c       ??_C@_0BJ@DNIGCGGD@edit_outgoing_apply_all?$DN@ 100bb80c     client_config.cpp.obj
 0002:00004828       ??_C@_0P@MPIALGNG@edit_incoming?$DN@ 100bb828     client_config.cpp.obj
 0002:00004838       ??_C@_0BI@OHDKAKOG@edit_incoming_opcode?$DN0x@ 100bb838     client_config.cpp.obj
 0002:00004850       ??_C@_0BJ@KOCNCHBB@edit_incoming_apply_all?$DN@ 100bb850     client_config.cpp.obj
 0002:0000486c       ??_C@_0P@HMOOILAH@?$FLnet_manager?$FN?6@ 100bb86c     client_config.cpp.obj
 0002:0000487c       ??_C@_0O@HLLJLCMM@log_outgoing?$DN@ 100bb87c     client_config.cpp.obj
 0002:0000488c       ??_C@_0O@FAGLMJHJ@log_incoming?$DN@ 100bb88c     client_config.cpp.obj
 0002:0000489c       ??_C@_0O@FFLHEJPL@capture_cmsg?$DN@ 100bb89c     client_config.cpp.obj
 0002:000048ac       ??_C@_0BA@GMBFFMNB@capture_stream?$DN@ 100bb8ac     client_config.cpp.obj
 0002:000048bc       ??_C@_0N@GBGGDOPK@log_to_file?$DN@ 100bb8bc     client_config.cpp.obj
 0002:000048cc       ??_C@_0P@HDLFPHKC@pause_capture?$DN@ 100bb8cc     client_config.cpp.obj
 0002:000048dc       ??_C@_0BA@BMECBFBM@block_outgoing?$DN@ 100bb8dc     client_config.cpp.obj
 0002:000048ec       ??_C@_0BA@DHJAGOKJ@block_incoming?$DN@ 100bb8ec     client_config.cpp.obj
 0002:000048fc       ??_C@_0BD@BOPEMBJE@block_opcode_mode?$DN@ 100bb8fc     client_config.cpp.obj
 0002:00004910       ??_C@_0BA@IBDGBIPN@block_opcode?$DN0x@ 100bb910     client_config.cpp.obj
 0002:00004920       ??_C@_0BD@IKMCEBPA@block_opcode_list?$DN@ 100bb920     client_config.cpp.obj
 0002:00004934       ??_C@_0N@CPIAOPGD@max_entries?$DN@ 100bb934     client_config.cpp.obj
 0002:00004944       ??_C@_0L@JBCLMODC@file_path?$DN@ 100bb944     client_config.cpp.obj
 0002:00004950       ??_C@_0BJ@DNCOPMDD@?$FLclient_config?$FN?5saved?5?$CFs@ 100bb950     client_config.cpp.obj
 0002:00004970       ??_7?$codecvt@DDU_Mbstatet@@@std@@6B@ 100bb970     client_config.cpp.obj
 0002:0000499c       ??_7?$num_put@DV?$ostreambuf_iterator@DU?$char_traits@D@std@@@std@@@std@@6B@ 100bb99c     client_config.cpp.obj
 0002:000049c8       ??_C@_02BBAHNLBA@?$CFp@    100bb9c8     client_config.cpp.obj
 0002:000049d0       ??_7?$numpunct@D@std@@6B@  100bb9d0     client_config.cpp.obj
 0002:000049f0       ??_C@_02MDKMJEGG@eE@       100bb9f0     client_config.cpp.obj
 0002:000049f4       ??_C@_02OOPEBDOJ@pP@       100bb9f4     client_config.cpp.obj
 0002:000049f8       ??_C@_0BN@OFDOGPDL@invalid?5string_view?5position@ 100bb9f8     client_config.cpp.obj
 0002:00004a18       ??_C@_0BI@CFPLBAOH@invalid?5string?5position@ 100bba18     client_config.cpp.obj
 0002:00004a30       __real@41100000            100bba30     client_config.cpp.obj
 0002:00004a34       __real@41200000            100bba34     client_config.cpp.obj
 0002:00004a38       __real@41600000            100bba38     client_config.cpp.obj
 0002:00004a3c       __real@41700000            100bba3c     client_config.cpp.obj
 0002:00004a40       __real@41a00000            100bba40     client_config.cpp.obj
 0002:00004a48       __real@4202a05f20000000    100bba48     client_config.cpp.obj
 0002:00004a50       __real@42820000            100bba50     client_config.cpp.obj
 0002:00004a54       __real@42a00000            100bba54     client_config.cpp.obj
 0002:00004a58       __real@c1000000            100bba58     client_config.cpp.obj
 0002:00004a5c       __real@c1200000            100bba5c     client_config.cpp.obj
 0002:00004a60       ??_C@_0L@PGBKIEAA@log?5events@ 100bba60     menu.cpp.obj
 0002:00004a6c       ??_C@_0O@OPLCEEPN@skip?5textdata@ 100bba6c     menu.cpp.obj
 0002:00004a7c       ??_C@_0P@GPDCNC@bypass?5gateway@ 100bba7c     menu.cpp.obj
 0002:00004a8c       ??_C@_0M@HCEFAPCK@skip?5splash@ 100bba8c     menu.cpp.obj
 0002:00004a98       ??_C@_0BB@CKGHPGGB@block?5transition@ 100bba98     menu.cpp.obj
 0002:00004aac       ??_C@_0BF@OBPCAELA@force?5version?5result@ 100bbaac     menu.cpp.obj
 0002:00004ac4       ??_C@_0L@NOIJBKDF@result?$CD?$CDvc@ 100bbac4     menu.cpp.obj
 0002:00004ad0       ??_C@_0BA@NJNKJFFC@loading?5overlay@ 100bbad0     menu.cpp.obj
 0002:00004ae0       ??_C@_0CI@GNFPCPBK@instance?5?$CFp?5?5net?5?$CFd?5?5load?5?$CFs?5?5a@ 100bbae0     menu.cpp.obj
 0002:00004b08       ??_C@_0BA@NEBKIBCD@instance?5?$CInone?$CJ@ 100bbb08     menu.cpp.obj
 0002:00004b18       ??_C@_0BB@GEGPAAAJ@error?5?$CFd?5?5tag?5?$CFd@ 100bbb18     menu.cpp.obj
 0002:00004b2c       ??_C@_0BC@DMFLBGKE@log?5events?$CD?$CDtitle@ 100bbb2c     menu.cpp.obj
 0002:00004b40       ??_C@_0P@FFHHLBME@enabled?$CD?$CDtitle@ 100bbb40     menu.cpp.obj
 0002:00004b50       ??_C@_0L@KGAGOE@auto?5login@ 100bbb50     menu.cpp.obj
 0002:00004b5c       ??_C@_0O@DLINPIKF@skip?5OnCreate@ 100bbb5c     menu.cpp.obj
 0002:00004b6c       ??_C@_0BB@LBFEBEI@block?5login?5pkts@ 100bbb6c     menu.cpp.obj
 0002:00004b80       ??_C@_0BB@LNEAPFBK@suppress?5captcha@ 100bbb80     menu.cpp.obj
 0002:00004b94       ??_C@_0BG@FLJNMFHJ@hide?5channel?5list?5btn@ 100bbb94     menu.cpp.obj
 0002:00004bac       ??_C@_0O@BNMGIMML@logo?5y?5offset@ 100bbbac     menu.cpp.obj
 0002:00004bbc       ??_C@_0BD@OIDBCMON@?$CIpx?5up?0?50?$DNdefault?$CJ@ 100bbbbc     menu.cpp.obj
 0002:00004bd0       ??_C@_0BG@LFDOGPJP@override?5version?5text@ 100bbbd0     menu.cpp.obj
 0002:00004be8       ??_C@_0BH@ECKGNLMJ@Version?5label?5settings@ 100bbbe8     menu.cpp.obj
 0002:00004c00       ??_C@_08LGHNAEB@data?5fmt@ 100bbc00     menu.cpp.obj
 0002:00004c0c       ??_C@_07FBLIONLG@exe?5fmt@ 100bbc0c     menu.cpp.obj
 0002:00004c14       ??_C@_0P@JAGPDFGK@override?5color@ 100bbc14     menu.cpp.obj
 0002:00004c24       ??_C@_0O@GLIOKMH@?$CD?$CDlabel_color@ 100bbc24     menu.cpp.obj
 0002:00004c34       ??_C@_0BM@DIFPEAMH@clip?5text?5?$CIhover?5to?5expand?$CJ@ 100bbc34     menu.cpp.obj
 0002:00004c50       ??_C@_0L@MNCFKMBF@clip?5width@ 100bbc50     menu.cpp.obj
 0002:00004c5c       ??_C@_0O@CKEDHMII@captured?5?$CFd?12@ 100bbc5c     menu.cpp.obj
 0002:00004c6c       ??_C@_0N@BDOBAHB@Apply?5labels@ 100bbc6c     menu.cpp.obj
 0002:00004c7c       ??_C@_0N@CFAFFILO@Apply?5layout@ 100bbc7c     menu.cpp.obj
 0002:00004c8c       ??_C@_0CJ@KGEJJNBH@instance?5?$CFp?5?5phase?5?$CFd?5?5captcha?5@ 100bbc8c     menu.cpp.obj
 0002:00004cb8       ??_C@_07DDIFIDDK@DoLogin@  100bbcb8     menu.cpp.obj
 0002:00004cc0       ??_C@_0BE@GBAFLJJI@CPSTitle?5not?5active@ 100bbcc0     menu.cpp.obj
 0002:00004cd4       ??_C@_0BA@JKKDGCNN@ext_client_tabs@ 100bbcd4     menu.cpp.obj
 0002:00004ce4       ??_C@_06LLCHJONG@Config@   100bbce4     menu.cpp.obj
 0002:00004cec       ??_C@_0BA@KBMDOMPB@CPSVersionCheck@ 100bbcec     menu.cpp.obj
 0002:00004cfc       ??_C@_08HNFBBMP@CPSTitle@  100bbcfc     menu.cpp.obj
 0002:00004d08       ??_C@_07DIHFNIOG@Widgets@  100bbd08     menu.cpp.obj
 0002:00004d10       ??_C@_07BGDMAJAE@Network@  100bbd10     menu.cpp.obj
 0002:00004d18       __real@40400000            100bbd18     menu.cpp.obj
 0002:00004d1c       __real@40800000            100bbd1c     menu.cpp.obj
 0002:00004d20       __real@40c00000            100bbd20     menu.cpp.obj
 0002:00004d24       __real@41000000            100bbd24     menu.cpp.obj
 0002:00004d28       __real@43200000            100bbd28     menu.cpp.obj
 0002:00004d2c       __real@43520000            100bbd2c     menu.cpp.obj
 0002:00004d30       __real@440c0000            100bbd30     menu.cpp.obj
 0002:00004d34       __real@44340000            100bbd34     menu.cpp.obj
 0002:00004d38       ??_C@_0BB@BLHJLEID@Interface?5hiding@ 100bbd38     config_panel.cpp.obj
 0002:00004d4c       ??_C@_0BE@LCACHJLP@interface_hide_grid@ 100bbd4c     config_panel.cpp.obj
 0002:00004d60       ??_C@_0BB@IPIBFJAF@Magic?5lamp?5alarm@ 100bbd60     config_panel.cpp.obj
 0002:00004d74       ??_C@_0P@KAFDFEEB@Facebook?5alarm@ 100bbd74     config_panel.cpp.obj
 0002:00004d84       ??_C@_0P@JOBOPINK@Web?5item?5alarm@ 100bbd84     config_panel.cpp.obj
 0002:00004d94       ??_C@_0BC@HFLBPMKC@Daily?5login?5alarm@ 100bbd94     config_panel.cpp.obj
 0002:00004da8       ??_C@_0O@IJJHICJA@Survey?5button@ 100bbda8     config_panel.cpp.obj
 0002:00004db8       ??_C@_0BC@MBEHFNHA@Macro?5guide?5alarm@ 100bbdb8     config_panel.cpp.obj
 0002:00004dcc       ??_C@_0BB@NLFLEHND@Apply?5on?5startup@ 100bbdcc     config_panel.cpp.obj
 0002:00004de0       ??_C@_0BB@GBJKNGDJ@Apply?5now?$CD?$CDiface@ 100bbde0     config_panel.cpp.obj
 0002:00004df4       ??_C@_0DP@FGDKAGJO@survey?5map?$EA0x35?5start?$DN?$CFp?5btn?$CIui@ 100bbdf4     config_panel.cpp.obj
 0002:00004e34       ??_C@_0BP@LKNGDHPO@ingame?5map?5unreadable?5?$EA?50x?$CF08X@ 100bbe34     config_panel.cpp.obj
 0002:00004e54       ??_C@_0DK@OAFBKJJH@hide?5on?5but?5widgets?5not?5resolve@ 100bbe54     config_panel.cpp.obj
 0002:00004e90       ??_C@_0CD@EELCCIOD@map?50x35?5vft?5mismatch?5?$CIgot?50x?$CF0@ 100bbe90     config_panel.cpp.obj
 0002:00004eb4       ??_C@_0M@KECECFFD@not?5in?9game@ 100bbeb4     config_panel.cpp.obj
 0002:00004ec0       ??_C@_02LIELOMNJ@on@       100bbec0     config_panel.cpp.obj
 0002:00004ec4       ??_C@_03MCADLMAF@off@      100bbec4     config_panel.cpp.obj
 0002:00004ec8       ??_C@_0FM@FBONNACK@active?3?5facebook?$DN?$CFs?5magic_lamp?$DN@ 100bbec8     config_panel.cpp.obj
 0002:00004f24       ??_C@_0BB@IOCICKEJ@eu_login_offsets@ 100bbf24     config_panel.cpp.obj
 0002:00004f38       ??_C@_08MELCCILC@ID?5label@ 100bbf38     config_panel.cpp.obj
 0002:00004f44       ??_C@_08DGOFOKFA@PW?5label@ 100bbf44     config_panel.cpp.obj
 0002:00004f50       ??_C@_0N@FDAAAPJJ@Server?5label@ 100bbf50     config_panel.cpp.obj
 0002:00004f60       ??_C@_08HCACIKON@ID?5input@ 100bbf60     config_panel.cpp.obj
 0002:00004f6c       ??_C@_08IAFFEIAP@PW?5input@ 100bbf6c     config_panel.cpp.obj
 0002:00004f78       ??_C@_0N@NMHGEBGO@Server?5value@ 100bbf78     config_panel.cpp.obj
 0002:00004f88       ??_C@_0M@MEKBNPAG@List?5button@ 100bbf88     config_panel.cpp.obj
 0002:00004f94       ??_C@_0CN@LHMKENNN@Reset?5EU?5layout?5defaults?$CD?$CDtitle@ 100bbf94     config_panel.cpp.obj
 0002:00004fc4       ??_C@_0BA@GKMNJNC@Title?5overrides@ 100bbfc4     config_panel.cpp.obj
 0002:00004fd4       ??_C@_0BC@ICJHGKHF@title_toggle_grid@ 100bbfd4     config_panel.cpp.obj
 0002:00004fe8       ??_C@_0BG@DNKBPNFM@Override?5version?5text@ 100bbfe8     config_panel.cpp.obj
 0002:00005000       ??_C@_0BE@ELNANEOK@Replace?5login?5frame@ 100bc000     config_panel.cpp.obj
 0002:00005014       ??_C@_0BH@OEICABIN@Override?5version?5color@ 100bc014     config_panel.cpp.obj
 0002:0000502c       ??_C@_0BE@GLBABNLE@Clip?5version?5labels@ 100bc02c     config_panel.cpp.obj
 0002:00005040       ??_C@_0BA@KPCADMAI@Login?5frame?5DDJ@ 100bc040     config_panel.cpp.obj
 0002:00005050       ??_C@_0BI@MAAMIMLI@EU?5login?5layout?5offsets@ 100bc050     config_panel.cpp.obj
 0002:00005068       ??_C@_0BB@CEOJPEDN@Data?5version?5fmt@ 100bc068     config_panel.cpp.obj
 0002:0000507c       ??_C@_0BA@LAKEBNOL@Exe?5version?5fmt@ 100bc07c     config_panel.cpp.obj
 0002:0000508c       ??_C@_0BD@DMNGGMNH@title_numeric_grid@ 100bc08c     config_panel.cpp.obj
 0002:000050a0       ??_C@_0O@FCFDHGLA@Logo?5Y?5offset@ 100bc0a0     config_panel.cpp.obj
 0002:000050b0       ??_C@_0BD@PIAKJMAK@Version?5clip?5width@ 100bc0b0     config_panel.cpp.obj
 0002:000050c4       ??_C@_0BI@NEKKLMBE@Apply?5now?$CD?$CDtitle_config@ 100bc0c4     config_panel.cpp.obj
 0002:000050dc       ??_C@_0BK@MDEPBOCE@Widget?5inspector?5defaults@ 100bc0dc     config_panel.cpp.obj
 0002:000050f8       ??_C@_0BF@CEDLEKOC@widget_defaults_grid@ 100bc0f8     config_panel.cpp.obj
 0002:00005110       ??_C@_0BC@CBPGBDOP@Auto?5refresh?5list@ 100bc110     config_panel.cpp.obj
 0002:00005124       ??_C@_0BC@NMKJNJPJ@Static?5texts?5only@ 100bc124     config_panel.cpp.obj
 0002:00005138       ??_C@_0BG@FPJDFGGD@Show?5alarm?5slot?5debug@ 100bc138     config_panel.cpp.obj
 0002:00005150       ??_C@_02DPKJAMEF@?$CFd@    100bc150     config_panel.cpp.obj
 0002:00005154       ??_C@_0L@FEOHCKPF@Walk?5depth@ 100bc154     config_panel.cpp.obj
 0002:00005160       ??_C@_0BB@IIEAMOKJ@Graphics?5Options@ 100bc160     config_panel.cpp.obj
 0002:00005174       ??_C@_0BM@PNMKNJOE@Enable?5sight?5range?5override@ 100bc174     config_panel.cpp.obj
 0002:00005190       ??_C@_04FCMNJMCO@?$CFd?$CF?$CF@ 100bc190     config_panel.cpp.obj
 0002:00005198       ??_C@_0BE@ODBLFIEP@Override?5Percentage@ 100bc198     config_panel.cpp.obj
 0002:000051ac       ??_C@_0CH@IAIBHDJJ@apply?5range?5?$CF?41f?5?$HM?5cell?5?$CFd?5?$HM?5fa@ 100bc1ac     config_panel.cpp.obj
 0002:000051d4       ??_C@_0DF@LCEOFPJF@default?3?5dropdown?5setting?55?5aut@ 100bc1d4     config_panel.cpp.obj
 0002:0000520c       ??_C@_0O@FPPGLHIJ@Active?5values@ 100bc20c     config_panel.cpp.obj
 0002:0000521c       ??_C@_0DI@CPLNNOHB@option?5?$CFd?5?$CIindex?5?$CFd?$CJ?5?$HM?5range?5?$CF?4@ 100bc21c     config_panel.cpp.obj
 0002:00005254       ??_C@_0BB@IHEMFIFN@world?5not?5loaded@ 100bc254     config_panel.cpp.obj
 0002:00005268       ??_C@_07ECEMPDJM@General@  100bc268     config_panel.cpp.obj
 0002:00005270       ??_C@_0P@LDBNALMC@Save?5on?5change@ 100bc270     config_panel.cpp.obj
 0002:00005280       ??_C@_0L@IFGPIFCO@config?3?5?$CFs@ 100bc280     config_panel.cpp.obj
 0002:0000528c       ??_C@_0N@MOJMJDJ@Save?$CD?$CDconfig@ 100bc28c     config_panel.cpp.obj
 0002:0000529c       ??_C@_0P@FLBIGJMJ@Reload?$CD?$CDconfig@ 100bc29c     config_panel.cpp.obj
 0002:000052ac       ??_C@_0O@CMLNBHCG@config_scroll@ 100bc2ac     config_panel.cpp.obj
 0002:000052bc       __real@3f400000            100bc2bc     config_panel.cpp.obj
 0002:000052c0       __real@3f4ccccd            100bc2c0     config_panel.cpp.obj
 0002:000052c4       __real@41900000            100bc2c4     config_panel.cpp.obj
 0002:000052c8       __real@41b00000            100bc2c8     config_panel.cpp.obj
 0002:000052cc       __real@435c0000            100bc2cc     config_panel.cpp.obj
 0002:000052d0       __real@43820000            100bc2d0     config_panel.cpp.obj
 0002:000052d4       __real@c1a00000            100bc2d4     config_panel.cpp.obj
 0002:000052d8       ??_C@_09GBJIEFIA@new?5label@ 100bc2d8     widget_inspector.cpp.obj
 0002:000052e4       ??_C@_04CGFJFPFD@none@     100bc2e4     widget_inspector.cpp.obj
 0002:000052ec       ??_C@_0M@JGJOANLK@unavailable@ 100bc2ec     widget_inspector.cpp.obj
 0002:000052f8       ??_C@_0BH@KNMKJOJ@IngameResMap?$EA0x1420408@ 100bc2f8     widget_inspector.cpp.obj
 0002:00005310       ??_C@_0BC@MCEONNCG@CGInterface?$CL0x374@ 100bc310     widget_inspector.cpp.obj
 0002:00005324       ??_C@_07PNAFAKCI@?5?$DM?$CF?4?$CKs?$DO@ 100bc324     widget_inspector.cpp.obj
 0002:0000532c       ??_C@_05KNNOJMJF@?5?$DM?$CFs?$DO@ 100bc32c     widget_inspector.cpp.obj
 0002:00005334       ??_C@_0L@EPCLJGKH@?5?$DMno?5text?$DO@ 100bc334     widget_inspector.cpp.obj
 0002:00005340       ??_C@_05BEAIAIDN@res?$HO?$DN@ 100bc340     widget_inspector.cpp.obj
 0002:00005348       ??_C@_04IKGICCML@res?$DN@  100bc348     widget_inspector.cpp.obj
 0002:00005350       ??_C@_09HMKHAJ@?5?$FLhidden?$FN@ 100bc350     widget_inspector.cpp.obj
 0002:0000535c       ??_C@_0BE@BJBPFOCI@?$CF?$CKs?$FL?$CFs?$FN?5?$CFs?5?$CFs?$CFd?$CFs?$CFs@ 100bc35c     widget_inspector.cpp.obj
 0002:00005370       ??_C@_0BB@NPBHGCAB@?$CF?$CKs?$FL?$CFs?$FN?5?$CFs?$CFd?$CFs?$CFs@ 100bc370     widget_inspector.cpp.obj
 0002:00005384       ??_C@_0M@BLMLBPIO@?$CF?$CKs?$FL?$CFs?$FN?$CFs?$CFs@ 100bc384     widget_inspector.cpp.obj
 0002:00005390       ??_C@_0BL@EJOCDMBH@id?$DN?$CFd?5?5?$CFdx?$CFd?5?$EA?5?$CI?$CFd?0?$CFd?$CJ?5?5?$CFp@ 100bc390     widget_inspector.cpp.obj
 0002:000053ac       ??_C@_0BD@JEOIOFMA@alarm?5mgr?5?$CFp?5id?$DN?$CFd@ 100bc3ac     widget_inspector.cpp.obj
 0002:000053c0       ??_C@_0CE@HBADAFAG@?$CFzu?3?5type?$DN?$CFd?5active?$DN?$CFd?5status?$DN?$CF@ 100bc3c0     widget_inspector.cpp.obj
 0002:000053e4       ??_C@_07PBAMIGHC@?5?5y?3?5?$CFs@ 100bc3e4     widget_inspector.cpp.obj
 0002:000053ec       ??_C@_07JLMLHGLB@?5?5r?3?5?$CFs@ 100bc3ec     widget_inspector.cpp.obj
 0002:000053f4       ??_C@_09EJLIKODF@?5?5ref?3?5?$CFs@ 100bc3f4     widget_inspector.cpp.obj
 0002:00005400       ??_C@_09LGALMEFJ@?5?5tex?3?5?$CFs@ 100bc400     widget_inspector.cpp.obj
 0002:0000540c       ??_C@_08DHHMAPDD@?5?5fx?3?5?$CFp@ 100bc40c     widget_inspector.cpp.obj
 0002:00005418       ??_C@_0BM@NAKPJCEK@?$CFs?5?$CFs?5res?$DN?$CFd?5id?$DN?$CFd?5?$CFp?5?$CFs?5?$CFs@ 100bc418     widget_inspector.cpp.obj
 0002:00005434       ??_C@_0P@LCGODNBK@?$CFs?5?$FL?$CFd?$FN?5?$FL?$CL?$CFzu?$FN@ 100bc434     widget_inspector.cpp.obj
 0002:00005444       ??_C@_06PONKGHP@?$CD?$CDnode@ 100bc444     widget_inspector.cpp.obj
 0002:0000544c       ??_C@_0BE@BLEHKCMD@?$CFdx?$CFd?5?$EA?5?$CI?$CFd?0?$CFd?$CJ?5?5?$CFp@ 100bc44c     widget_inspector.cpp.obj
 0002:00005460       ??_C@_0BN@BAHMDDEH@Res?5map?5empty?5or?5unreadable?4@ 100bc460     widget_inspector.cpp.obj
 0002:00005480       ??_C@_0BE@ODLJPDFA@0x?$CFX?5?$CFs?5?$FL?$CFd?$FN?5?$FL?$CL?$CFzu?$FN@ 100bc480     widget_inspector.cpp.obj
 0002:00005494       ??_C@_0L@GHDONHNM@?$CD?$CDmap_root@ 100bc494     widget_inspector.cpp.obj
 0002:000054a0       ??_C@_04BAJDEDPD@Root@     100bc4a0     widget_inspector.cpp.obj
 0002:000054a8       ??_C@_0DO@DPFMEPMP@Auto?$AAActive?5process?$AACGInterface@ 100bc4a8     widget_inspector.cpp.obj
 0002:000054e8       ??_C@_0M@BKMNKBMA@?$CD?$CDroot_pick@ 100bc4e8     widget_inspector.cpp.obj
 0002:000054f4       ??_C@_05HGMCJBLP@?$CIn?1a?$CJ@ 100bc4f4     widget_inspector.cpp.obj
 0002:000054fc       ??_C@_05DNIIFBMG@?$CFs?5?$CFs@ 100bc4fc     widget_inspector.cpp.obj
 0002:00005504       ??_C@_0BB@EBBJLGGD@outline?5on?5hover@ 100bc504     widget_inspector.cpp.obj
 0002:00005518       ??_C@_0L@JEHNNOMF@depth?$CD?$CDwid@ 100bc518     widget_inspector.cpp.obj
 0002:00005524       ??_C@_0BC@LNAJODIH@visible?5only?$CD?$CDwid@ 100bc524     widget_inspector.cpp.obj
 0002:00005538       ??_C@_0BB@KPIGOGEF@static?5only?$CD?$CDwid@ 100bc538     widget_inspector.cpp.obj
 0002:0000554c       ??_C@_0P@FBGEKKLA@deep?5scan?$CD?$CDwid@ 100bc54c     widget_inspector.cpp.obj
 0002:0000555c       ??_C@_0L@OHFKCHNB@probe?$CD?$CDwid@ 100bc55c     widget_inspector.cpp.obj
 0002:00005568       ??_C@_0DB@PLHEAACD@Search?5?$CIflat?5scan?$CJ?5?b?$IA?$JE?5leave?5em@ 100bc568     widget_inspector.cpp.obj
 0002:0000559c       ??_C@_0BA@PBJLHINJ@?$CD?$CDwidget_search@ 100bc59c     widget_inspector.cpp.obj
 0002:000055ac       ??_C@_0M@PFCMJHLK@res?5id?$CD?$CDwid@ 100bc5ac     widget_inspector.cpp.obj
 0002:000055b8       ??_C@_0O@HJPJMBHC@Clear?$CD?$CDwidres@ 100bc5b8     widget_inspector.cpp.obj
 0002:000055c8       ??_C@_0BC@MEKKPPJG@all?$AAshown?$AAhidden?$AA@ 100bc5c8     widget_inspector.cpp.obj
 0002:000055dc       ??_C@_09HBJCDCHJ@show?$CD?$CDwid@ 100bc5dc     widget_inspector.cpp.obj
 0002:000055e8       ??_C@_0BE@CBKFLGBC@hide?5?$DMno?5text?$DO?$CD?$CDwid@ 100bc5e8     widget_inspector.cpp.obj
 0002:000055fc       ??_C@_09FLFGGEFL@Scan?$CD?$CDwid@ 100bc5fc     widget_inspector.cpp.obj
 0002:00005608       ??_C@_07CCIFFMHC@?$CIstale?$CJ@ 100bc608     widget_inspector.cpp.obj
 0002:00005610       ??_C@_08ONHKDFOD@?$CFzu?5hits@ 100bc610     widget_inspector.cpp.obj
 0002:0000561c       ??_C@_05KLBFNLDO@Hover@    100bc61c     widget_inspector.cpp.obj
 0002:00005624       ??_C@_0CD@MPAAPIDB@Move?5the?5mouse?5over?5a?5game?5widg@ 100bc624     widget_inspector.cpp.obj
 0002:00005648       ??_C@_0M@EIFGEEB@hover_props@ 100bc648     widget_inspector.cpp.obj
 0002:00005654       ??_C@_05EKAMNAII@Class@    100bc654     widget_inspector.cpp.obj
 0002:0000565c       ??_C@_07EODJIPPN@Address@  100bc65c     widget_inspector.cpp.obj
 0002:00005664       ??_C@_08OMJGNOHD@UniqueID@ 100bc664     widget_inspector.cpp.obj
 0002:00005670       ??_C@_0L@FECLNML@Runtime?5id@ 100bc670     widget_inspector.cpp.obj
 0002:0000567c       ??_C@_06OJKCFPBI@Bounds@   100bc67c     widget_inspector.cpp.obj
 0002:00005684       ??_C@_0O@GBBJNMO@?$CFd?0?5?$CFd?5?5?$CFdx?$CFd@ 100bc684     widget_inspector.cpp.obj
 0002:00005694       ??_C@_0BE@FDOBKFGG@Select?5hovered?$CD?$CDwid@ 100bc694     widget_inspector.cpp.obj
 0002:000056a8       ??_C@_0DB@DDOOBFHF@Search?5active?5?b?$IA?$JE?5click?5Scan?5to@ 100bc6a8     widget_inspector.cpp.obj
 0002:000056e0       ??_C@_0FA@DPILOHMK@No?5CProcess?5child?5?b?$IA?$JE?5waits?5for@ 100bc6e0     widget_inspector.cpp.obj
 0002:00005730       ??_C@_0DL@PHHOJABM@Root?5not?5available?5?b?$IA?$JE?5try?5Auto@ 100bc730     widget_inspector.cpp.obj
 0002:0000576c       ??_C@_09HKIBPBNJ@Selection@ 100bc76c     widget_inspector.cpp.obj
 0002:00005778       ??_C@_0DC@OOGKLJID@Click?5a?5widget?5in?5the?5tree?5or?5u@ 100bc778     widget_inspector.cpp.obj
 0002:000057ac       ??_C@_09POLAFKAN@sel_props@ 100bc7ac     widget_inspector.cpp.obj
 0002:000057b8       ??_C@_0BA@MMLCHJPN@?$CFdx?$CFd?5?$EA?5?$CI?$CFd?0?$CFd?$CJ@ 100bc7b8     widget_inspector.cpp.obj
 0002:000057c8       ??_C@_07EEOBFMHC@Res?5key@ 100bc7c8     widget_inspector.cpp.obj
 0002:000057d0       ??_C@_0O@DJGGMOJO@?$CFd?5?$CIinferred?$CJ@ 100bc7d0     widget_inspector.cpp.obj
 0002:000057e0       ??_C@_08PKGIHNCF@Res?5name@ 100bc7e0     widget_inspector.cpp.obj
 0002:000057ec       ??_C@_07GKACAEDJ@Texture@  100bc7ec     widget_inspector.cpp.obj
 0002:000057f4       ??_C@_0M@PJPKPHHM@?$CD?$CDedit_text@ 100bc7f4     widget_inspector.cpp.obj
 0002:00005800       ??_C@_0L@EMEOOACM@color?$CD?$CDsel@ 100bc800     widget_inspector.cpp.obj
 0002:0000580c       ??_C@_0L@GNFHCPGP@Apply?5text@ 100bc80c     widget_inspector.cpp.obj
 0002:00005818       ??_C@_09BFHACKHP@Hide?$CD?$CDsel@ 100bc818     widget_inspector.cpp.obj
 0002:00005824       ??_C@_09HAGONFJC@Show?$CD?$CDsel@ 100bc824     widget_inspector.cpp.obj
 0002:00005830       ??_C@_0N@PCMFIEKK@Destroy?$CD?$CDsel@ 100bc830     widget_inspector.cpp.obj
 0002:00005840       ??_C@_0M@FMMJCKOM@Spawn?5label@ 100bc840     widget_inspector.cpp.obj
 0002:0000584c       ??_C@_0N@NKNOGCPE@?$CD?$CDspawn_text@ 100bc84c     widget_inspector.cpp.obj
 0002:0000585c       ??_C@_05OECCCLAL@x?$CD?$CDsp@ 100bc85c     widget_inspector.cpp.obj
 0002:00005864       ??_C@_05CPHOPIKO@y?$CD?$CDsp@ 100bc864     widget_inspector.cpp.obj
 0002:0000586c       ??_C@_05BFHEJJNO@w?$CD?$CDsp@ 100bc86c     widget_inspector.cpp.obj
 0002:00005874       ??_C@_05OHPECJJA@h?$CD?$CDsp@ 100bc874     widget_inspector.cpp.obj
 0002:0000587c       ??_C@_09FEEBLJEG@color?$CD?$CDsp@ 100bc87c     widget_inspector.cpp.obj
 0002:00005888       ??_C@_05BEKPGMFA@Spawn@    100bc888     widget_inspector.cpp.obj
 0002:00005890       ??_C@_0BD@OOJMKOFD@empty?5?1?5unreadable@ 100bc890     widget_inspector.cpp.obj
 0002:000058a4       ??_C@_07DFLFAFHD@res_map@  100bc8a4     widget_inspector.cpp.obj
 0002:000058ac       ??_C@_03ICHNJLJF@key@      100bc8ac     widget_inspector.cpp.obj
 0002:000058b0       ??_C@_05ENKANFLO@class@    100bc8b0     widget_inspector.cpp.obj
 0002:000058b8       ??_C@_04HLBMEOMD@addr@     100bc8b8     widget_inspector.cpp.obj
 0002:000058c0       ??_C@_03MEMNCOEB@uid@      100bc8c0     widget_inspector.cpp.obj
 0002:000058c4       ??_C@_04HKJDGLEA@0x?$CFX@  100bc8c4     widget_inspector.cpp.obj
 0002:000058cc       ??_C@_06GOJKOLEL@?$CD?$CDpick@ 100bc8cc     widget_inspector.cpp.obj
 0002:000058d4       ??_C@_0BF@DNGMCOKC@Res?5maps?5?$CIread?9only?$CJ@ 100bc8d4     widget_inspector.cpp.obj
 0002:000058ec       ??_C@_0DL@HDBHHPGL@Map?5keys?5are?5not?5UniqueIDs?4?5Saf@ 100bc8ec     widget_inspector.cpp.obj
 0002:00005928       ??_C@_0CE@KFECGLBL@Ingame?5NIF?5?$EA?50x1420408?5?$CIsub_401@ 100bc928     widget_inspector.cpp.obj
 0002:0000594c       ??_C@_0CA@CAGDNONH@CGInterface?5?$CL0x374?5?$CIsub_9CF790?$CJ@ 100bc94c     widget_inspector.cpp.obj
 0002:0000596c       ??_C@_0BC@MNMMGPMB@Alarm?5strip?5debug@ 100bc96c     widget_inspector.cpp.obj
 0002:00005980       ??_C@_0BE@EGDMIPED@alarm?5mgr?5not?5found@ 100bc980     widget_inspector.cpp.obj
 0002:00005994       ??_C@_0O@NBFCCGPI@widget_footer@ 100bc994     widget_inspector.cpp.obj
 0002:000059a4       ??_C@_0BD@PNGKNGF@widget_footer_cols@ 100bc9a4     widget_inspector.cpp.obj
 0002:000059b8       ??_C@_05KMLJNOAI@hover@    100bc9b8     widget_inspector.cpp.obj
 0002:000059c0       ??_C@_09DFNMPCAJ@selection@ 100bc9c0     widget_inspector.cpp.obj
 0002:000059cc       ??_C@_0BB@CCMBMIEC@widget_tree_host@ 100bc9cc     widget_inspector.cpp.obj
 0002:000059e0       ??_C@_05OENKALAF@Tools@    100bc9e0     widget_inspector.cpp.obj
 0002:000059e8       ??_C@_0BL@GOIGLPKN@unordered_map?1set?5too?5long@ 100bc9e8     widget_inspector.cpp.obj
 0002:00005a04       ??_C@_0BK@OGNNAFAB@invalid?5hash?5bucket?5count@ 100bca04     widget_inspector.cpp.obj
 0002:00005a20       __real@3ed70a3d            100bca20     widget_inspector.cpp.obj
 0002:00005a24       __real@3f147ae1            100bca24     widget_inspector.cpp.obj
 0002:00005a28       __real@40000000            100bca28     widget_inspector.cpp.obj
 0002:00005a30       __real@4000000000000000    100bca30     widget_inspector.cpp.obj
 0002:00005a38       __real@406a800000000000    100bca38     widget_inspector.cpp.obj
 0002:00005a40       __real@42900000            100bca40     widget_inspector.cpp.obj
 0002:00005a44       __real@42c80000            100bca44     widget_inspector.cpp.obj
 0002:00005a48       __real@42dc0000            100bca48     widget_inspector.cpp.obj
 0002:00005a4c       __real@433e0000            100bca4c     widget_inspector.cpp.obj
 0002:00005a50       __real@4f800000            100bca50     widget_inspector.cpp.obj
 0002:00005a54       ??_C@_03KKDAPHBH@CPS@      100bca54     cif_manager.cpp.obj
 0002:00005a58       ??_C@_04HCNNGMFF@?4?$DPAV@ 100bca58     cif_manager.cpp.obj
 0002:00005a60       ??_C@_04FJPADPJG@?4?$DPAU@ 100bca60     cif_manager.cpp.obj
 0002:00005a68       ??_C@_02IAFNOECI@?$EA?$EA@ 100bca68     cif_manager.cpp.obj
 0002:00005a6c       ??_C@_09DPGMEIBM@CIFStatic@ 100bca6c     cif_manager.cpp.obj
 0002:00005a78       ??_C@_0BF@JIDFIOMI@CIFFacebookLinkAlram@ 100bca78     cif_manager.cpp.obj
 0002:00005a90       ??_C@_0BC@JDEHGOI@CIFMagicLampAlram@ 100bca90     cif_manager.cpp.obj
 0002:00005aa4       ??_C@_0BD@GNNJEBEA@CIFDailyLoginAlram@ 100bcaa4     cif_manager.cpp.obj
 0002:00005ab8       ??_C@_09CMLKBGMO@CIFButton@ 100bcab8     cif_manager.cpp.obj
 0002:00005ac4       ??_C@_07BNFPMHHD@CIFEdit@  100bcac4     cif_manager.cpp.obj
 0002:00005acc       ??_C@_0BD@OBHAGDH@CIFDecoratedStatic@ 100bcacc     cif_manager.cpp.obj
 0002:00005ae0       ??_C@_06PNJGMGLK@CIFWnd@   100bcae0     cif_manager.cpp.obj
 0002:00005ae8       ??_C@_0BC@KDHOMEGP@CAlramGuideMgrWnd@ 100bcae8     cif_manager.cpp.obj
 0002:00005afc       ??_C@_0M@LKCHIOFC@CGInterface@ 100bcafc     cif_manager.cpp.obj
 0002:00005b08       ??_C@_0BD@GBGPCFBH@CPSCharacterSelect@ 100bcb08     cif_manager.cpp.obj
 0002:00005b1c       ??_C@_05DICANNFF@CGWnd@    100bcb1c     cif_manager.cpp.obj
 0002:00005b24       ??_C@_08EPGCIIGH@IFStatic@ 100bcb24     cif_manager.cpp.obj
 0002:00005b30       ??_C@_11LOCGONAA@@         100bcb30     msvc9_stl.cpp.obj
 0002:00005d20       ??_C@_0BO@MJFCLPIC@resinfo?2pscharacterselect?4txt@ 100bcd20     ui_res_catalog.cpp.obj
 0002:00005d40       ??_C@_0BE@FKCDDIGM@resinfo?2pstitle?4txt@ 100bcd40     ui_res_catalog.cpp.obj
 0002:00005d54       ??_C@_0M@MLCONGPP@?$CFd?0?$CFd?0?$CFd?0?$CFd@ 100bcd54     ui_res_catalog.cpp.obj
 0002:00005d60       ??_C@_02OLOABKKD@ID@       100bcd60     ui_res_catalog.cpp.obj
 0002:00005d64       ??_C@_03LHMIGNBK@DDJ@      100bcd64     ui_res_catalog.cpp.obj
 0002:00005d68       ??_C@_04HGDEFKPD@Rect@     100bcd68     ui_res_catalog.cpp.obj
 0002:00005d70       ??_C@_04HDOCAJNK@?$CFs?$CFs@ 100bcd70     ui_res_catalog.cpp.obj
 0002:00005d78       ??_C@_0L@IGAEGPCP@?$CFsMedia?2?$CFs@ 100bcd78     ui_res_catalog.cpp.obj
 0002:00005d84       ??_C@_04JFGDPIJE@GDR_@     100bcd84     ui_res_catalog.cpp.obj
 0002:00005db0       ??_C@_0P@HMDPHAPE@facebook_1?4ddj@ 100bcdb0     calarm_guide_mgr_wnd.cpp.obj
 0002:00005dc0       ??_C@_0P@PKKLACFK@facebook_2?4ddj@ 100bcdc0     calarm_guide_mgr_wnd.cpp.obj
 0002:00005dd0       ??_C@_0BA@KBMOEJAC@webgacha2_0?4ddj@ 100bcdd0     calarm_guide_mgr_wnd.cpp.obj
 0002:00005de0       ??_C@_0BB@CNKBAOGK@dailylogin_0?4ddj@ 100bcde0     calarm_guide_mgr_wnd.cpp.obj
 0002:00005df4       ??_C@_0BA@KAIMIBBJ@CIFWebItemAlram@ 100bcdf4     calarm_guide_mgr_wnd.cpp.obj
 0002:00005e04       ??_C@_0BE@NKBFGDJJ@CIFMacroSystemGuide@ 100bce04     calarm_guide_mgr_wnd.cpp.obj
 0002:00005e18       ?known@child_ids@cg_interface@offsets@ext_client@@3QBHB 100bce18     cg_interface.cpp.obj
 0002:00005f7c       ??_C@_02CFKBDFGI@?1?2@     100bcf7c     process.cpp.obj
 0002:00005f80       ??_C@_02HHAEMJFE@?2?1@     100bcf80     string.cpp.obj
 0002:00005f84       ??_C@_04HHCDBDLF@?5?7?$AN?6@ 100bcf84     string.cpp.obj
 0002:00005f90       __real@0000000000000000    100bcf90     vectorf.cpp.obj
 0002:00005f98       __real@358637bd            100bcf98     vectorf.cpp.obj
 0002:00005fa0       __real@3fe0000000000000    100bcfa0     vectorf.cpp.obj
 0002:00005fa8       __real@4008000000000000    100bcfa8     vectorf.cpp.obj
 0002:00005fb0       __real@4010000000000000    100bcfb0     vectorf.cpp.obj
 0002:00005fb8       __real@4014000000000000    100bcfb8     vectorf.cpp.obj
 0002:00005fc0       __real@7f7fffff            100bcfc0     vectorf.cpp.obj
 0002:000068c8       ??_C@_09CFHBIIBF@LeftArrow@ 100bd8c8     imgui.cpp.obj
 0002:000068d4       ??_C@_0L@BPKGMHEK@RightArrow@ 100bd8d4     imgui.cpp.obj
 0002:000068e0       ??_C@_07MOKGGMEC@UpArrow@  100bd8e0     imgui.cpp.obj
 0002:000068e8       ??_C@_09NADHLAEK@DownArrow@ 100bd8e8     imgui.cpp.obj
 0002:000068f4       ??_C@_06OAEMCMAI@PageUp@   100bd8f4     imgui.cpp.obj
 0002:000068fc       ??_C@_08FDLMHKA@PageDown@  100bd8fc     imgui.cpp.obj
 0002:00006908       ??_C@_04GKJODLKO@Home@     100bd908     imgui.cpp.obj
 0002:00006910       ??_C@_03DBKJMAGF@End@      100bd910     imgui.cpp.obj
 0002:00006914       ??_C@_06CPFCODOD@Insert@   100bd914     imgui.cpp.obj
 0002:0000691c       ??_C@_06JBKGCNBB@Delete@   100bd91c     imgui.cpp.obj
 0002:00006924       ??_C@_09LPBCIPOJ@Backspace@ 100bd924     imgui.cpp.obj
 0002:00006930       ??_C@_05OMHELODH@Space@    100bd930     imgui.cpp.obj
 0002:00006938       ??_C@_05IAOCCJNL@Enter@    100bd938     imgui.cpp.obj
 0002:00006940       ??_C@_06OIGFGPHJ@Escape@   100bd940     imgui.cpp.obj
 0002:00006948       ??_C@_08KELNAOFC@LeftCtrl@ 100bd948     imgui.cpp.obj
 0002:00006954       ??_C@_09OCNLBMHE@LeftShift@ 100bd954     imgui.cpp.obj
 0002:00006960       ??_C@_07MGKIIPNA@LeftAlt@  100bd960     imgui.cpp.obj
 0002:00006968       ??_C@_09DKGEOIN@LeftSuper@ 100bd968     imgui.cpp.obj
 0002:00006974       ??_C@_09MGKDJPDD@RightCtrl@ 100bd974     imgui.cpp.obj
 0002:00006980       ??_C@_0L@NIAMFDCL@RightShift@ 100bd980     imgui.cpp.obj
 0002:0000698c       ??_C@_08FCEDBIM@RightAlt@  100bd98c     imgui.cpp.obj
 0002:00006998       ??_C@_0L@DJHBABNC@RightSuper@ 100bd998     imgui.cpp.obj
 0002:000069a4       ??_C@_04IFEHPILC@Menu@     100bd9a4     imgui.cpp.obj
 0002:000069ac       ??_C@_01FDFGLJHB@2@        100bd9ac     imgui.cpp.obj
 0002:000069b0       ??_C@_01EKENIIDA@3@        100bd9b0     imgui.cpp.obj
 0002:000069b4       ??_C@_01FAMBOPH@4@         100bd9b4     imgui.cpp.obj
 0002:000069b8       ??_C@_01BMBHCPLG@5@        100bd9b8     imgui.cpp.obj
 0002:000069bc       ??_C@_01DHDKHMHF@6@        100bd9bc     imgui.cpp.obj
 0002:000069c0       ??_C@_01COCBENDE@7@        100bd9c0     imgui.cpp.obj
 0002:000069c4       ??_C@_01KJLJFBPL@8@        100bd9c4     imgui.cpp.obj
 0002:000069c8       ??_C@_01LAKCGALK@9@        100bd9c8     imgui.cpp.obj
 0002:000069cc       ??_C@_01FHEEJDEE@A@        100bd9cc     imgui.cpp.obj
 0002:000069d0       ??_C@_01HMGJMAIH@B@        100bd9d0     imgui.cpp.obj
 0002:000069d4       ??_C@_01GFHCPBMG@C@        100bd9d4     imgui.cpp.obj
 0002:000069d8       ??_C@_01CKDDGHAB@D@        100bd9d8     imgui.cpp.obj
 0002:000069dc       ??_C@_01DDCIFGEA@E@        100bd9dc     imgui.cpp.obj
 0002:000069e0       ??_C@_01BIAFAFID@F@        100bd9e0     imgui.cpp.obj
 0002:000069e4       ??_C@_01BBODEMC@G@         100bd9e4     imgui.cpp.obj
 0002:000069e8       ??_C@_01IGIGCIAN@H@        100bd9e8     imgui.cpp.obj
 0002:000069ec       ??_C@_01JPJNBJEM@I@        100bd9ec     imgui.cpp.obj
 0002:000069f0       ??_C@_01LELAEKIP@J@        100bd9f0     imgui.cpp.obj
 0002:000069f4       ??_C@_01KNKLHLMO@K@        100bd9f4     imgui.cpp.obj
 0002:000069f8       ??_C@_01OCOKONAJ@L@        100bd9f8     imgui.cpp.obj
 0002:000069fc       ??_C@_01PLPBNMEI@M@        100bd9fc     imgui.cpp.obj
 0002:00006a00       ??_C@_01NANMIPIL@N@        100bda00     imgui.cpp.obj
 0002:00006a04       ??_C@_01MJMHLOMK@O@        100bda04     imgui.cpp.obj
 0002:00006a08       ??_C@_01EJNLAFE@P@         100bda08     imgui.cpp.obj
 0002:00006a0c       ??_C@_01BNIGIBBF@Q@        100bda0c     imgui.cpp.obj
 0002:00006a10       ??_C@_01DGKLNCNG@R@        100bda10     imgui.cpp.obj
 0002:00006a14       ??_C@_01CPLAODJH@S@        100bda14     imgui.cpp.obj
 0002:00006a18       ??_C@_01GAPBHFFA@T@        100bda18     imgui.cpp.obj
 0002:00006a1c       ??_C@_01HJOKEEBB@U@        100bda1c     imgui.cpp.obj
 0002:00006a20       ??_C@_01FCMHBHNC@V@        100bda20     imgui.cpp.obj
 0002:00006a24       ??_C@_01ELNMCGJD@W@        100bda24     imgui.cpp.obj
 0002:00006a28       ??_C@_01MMEEDKFM@X@        100bda28     imgui.cpp.obj
 0002:00006a2c       ??_C@_01NFFPALBN@Y@        100bda2c     imgui.cpp.obj
 0002:00006a30       ??_C@_01POHCFINO@Z@        100bda30     imgui.cpp.obj
 0002:00006a34       ??_C@_02LCPENACN@F1@       100bda34     imgui.cpp.obj
 0002:00006a38       ??_C@_02JJNJIDOO@F2@       100bda38     imgui.cpp.obj
 0002:00006a3c       ??_C@_02IAMCLCKP@F3@       100bda3c     imgui.cpp.obj
 0002:00006a40       ??_C@_02MPIDCEGI@F4@       100bda40     imgui.cpp.obj
 0002:00006a44       ??_C@_02NGJIBFCJ@F5@       100bda44     imgui.cpp.obj
 0002:00006a48       ??_C@_02PNLFEGOK@F6@       100bda48     imgui.cpp.obj
 0002:00006a4c       ??_C@_02OEKOHHKL@F7@       100bda4c     imgui.cpp.obj
 0002:00006a50       ??_C@_02GDDGGLGE@F8@       100bda50     imgui.cpp.obj
 0002:00006a54       ??_C@_02HKCNFKCF@F9@       100bda54     imgui.cpp.obj
 0002:00006a58       ??_C@_03JKCLJOFG@F10@      100bda58     imgui.cpp.obj
 0002:00006a5c       ??_C@_03IDDAKPBH@F11@      100bda5c     imgui.cpp.obj
 0002:00006a60       ??_C@_03KIBNPMNE@F12@      100bda60     imgui.cpp.obj
 0002:00006a64       ??_C@_03LBAGMNJF@F13@      100bda64     imgui.cpp.obj
 0002:00006a68       ??_C@_03POEHFLFC@F14@      100bda68     imgui.cpp.obj
 0002:00006a6c       ??_C@_03OHFMGKBD@F15@      100bda6c     imgui.cpp.obj
 0002:00006a70       ??_C@_03MMHBDJNA@F16@      100bda70     imgui.cpp.obj
 0002:00006a74       ??_C@_03NFGKAIJB@F17@      100bda74     imgui.cpp.obj
 0002:00006a78       ??_C@_03FCPCBEFO@F18@      100bda78     imgui.cpp.obj
 0002:00006a7c       ??_C@_03ELOJCFBP@F19@      100bda7c     imgui.cpp.obj
 0002:00006a80       ??_C@_03JIGNCAAP@F20@      100bda80     imgui.cpp.obj
 0002:00006a84       ??_C@_03IBHGBBEO@F21@      100bda84     imgui.cpp.obj
 0002:00006a88       ??_C@_03KKFLECIN@F22@      100bda88     imgui.cpp.obj
 0002:00006a8c       ??_C@_03LDEAHDMM@F23@      100bda8c     imgui.cpp.obj
 0002:00006a90       ??_C@_03PMABOFAL@F24@      100bda90     imgui.cpp.obj
 0002:00006a94       ??_C@_0L@KECMMICK@Apostrophe@ 100bda94     imgui.cpp.obj
 0002:00006aa0       ??_C@_05CJDGOLEJ@Comma@    100bdaa0     imgui.cpp.obj
 0002:00006aa8       ??_C@_05OEAIFCGM@Minus@    100bdaa8     imgui.cpp.obj
 0002:00006ab0       ??_C@_06JOFJHOEH@Period@   100bdab0     imgui.cpp.obj
 0002:00006ab8       ??_C@_05OAOMBJIJ@Slash@    100bdab8     imgui.cpp.obj
 0002:00006ac0       ??_C@_09FBGFMNJC@Semicolon@ 100bdac0     imgui.cpp.obj
 0002:00006acc       ??_C@_05JKGNJOO@Equal@     100bdacc     imgui.cpp.obj
 0002:00006ad4       ??_C@_0M@FGLAPLO@LeftBracket@ 100bdad4     imgui.cpp.obj
 0002:00006ae0       ??_C@_09LDIKCIFH@Backslash@ 100bdae0     imgui.cpp.obj
 0002:00006aec       ??_C@_0N@NOCLCIPD@RightBracket@ 100bdaec     imgui.cpp.obj
 0002:00006afc       ??_C@_0M@PEGEKEFO@GraveAccent@ 100bdafc     imgui.cpp.obj
 0002:00006b08       ??_C@_08LBKIEOPK@CapsLock@ 100bdb08     imgui.cpp.obj
 0002:00006b14       ??_C@_0L@JJJEGPLJ@ScrollLock@ 100bdb14     imgui.cpp.obj
 0002:00006b20       ??_C@_07JOCOIGEJ@NumLock@  100bdb20     imgui.cpp.obj
 0002:00006b28       ??_C@_0M@CJIDBHOK@PrintScreen@ 100bdb28     imgui.cpp.obj
 0002:00006b34       ??_C@_05PEDNBBBD@Pause@    100bdb34     imgui.cpp.obj
 0002:00006b3c       ??_C@_07PBFJOEMA@Keypad0@  100bdb3c     imgui.cpp.obj
 0002:00006b44       ??_C@_07OIECNFIB@Keypad1@  100bdb44     imgui.cpp.obj
 0002:00006b4c       ??_C@_07MDGPIGEC@Keypad2@  100bdb4c     imgui.cpp.obj
 0002:00006b54       ??_C@_07NKHELHAD@Keypad3@  100bdb54     imgui.cpp.obj
 0002:00006b5c       ??_C@_07JFDFCBME@Keypad4@  100bdb5c     imgui.cpp.obj
 0002:00006b64       ??_C@_07IMCOBAIF@Keypad5@  100bdb64     imgui.cpp.obj
 0002:00006b6c       ??_C@_07KHADEDEG@Keypad6@  100bdb6c     imgui.cpp.obj
 0002:00006b74       ??_C@_07LOBIHCAH@Keypad7@  100bdb74     imgui.cpp.obj
 0002:00006b7c       ??_C@_07DJIAGOMI@Keypad8@  100bdb7c     imgui.cpp.obj
 0002:00006b84       ??_C@_07CAJLFPIJ@Keypad9@  100bdb84     imgui.cpp.obj
 0002:00006b8c       ??_C@_0O@GMHIBIOG@KeypadDecimal@ 100bdb8c     imgui.cpp.obj
 0002:00006b9c       ??_C@_0N@IOPGAACF@KeypadDivide@ 100bdb9c     imgui.cpp.obj
 0002:00006bac       ??_C@_0P@DDMFINAM@KeypadMultiply@ 100bdbac     imgui.cpp.obj
 0002:00006bbc       ??_C@_0P@EGJPMAKL@KeypadSubtract@ 100bdbbc     imgui.cpp.obj
 0002:00006bcc       ??_C@_09PBFBAKNA@KeypadAdd@ 100bdbcc     imgui.cpp.obj
 0002:00006bd8       ??_C@_0M@LDMAMCMH@KeypadEnter@ 100bdbd8     imgui.cpp.obj
 0002:00006be4       ??_C@_0M@DKIEDCPC@KeypadEqual@ 100bdbe4     imgui.cpp.obj
 0002:00006bf0       ??_C@_07PFJBGDFF@AppBack@  100bdbf0     imgui.cpp.obj
 0002:00006bf8       ??_C@_0L@MPDOCLPJ@AppForward@ 100bdbf8     imgui.cpp.obj
 0002:00006c04       ??_C@_0N@KFODLNBI@GamepadStart@ 100bdc04     imgui.cpp.obj
 0002:00006c14       ??_C@_0M@BMKDKCOL@GamepadBack@ 100bdc14     imgui.cpp.obj
 0002:00006c20       ??_C@_0BA@LLLNHFDH@GamepadFaceLeft@ 100bdc20     imgui.cpp.obj
 0002:00006c30       ??_C@_0BB@KCPJBHBD@GamepadFaceRight@ 100bdc30     imgui.cpp.obj
 0002:00006c44       ??_C@_0O@NEIKDCMN@GamepadFaceUp@ 100bdc44     imgui.cpp.obj
 0002:00006c54       ??_C@_0BA@EJLJONAO@GamepadFaceDown@ 100bdc54     imgui.cpp.obj
 0002:00006c64       ??_C@_0BA@HJJJKOII@GamepadDpadLeft@ 100bdc64     imgui.cpp.obj
 0002:00006c74       ??_C@_0BB@PJOFJNNF@GamepadDpadRight@ 100bdc74     imgui.cpp.obj
 0002:00006c88       ??_C@_0O@EJODMGNP@GamepadDpadUp@ 100bdc88     imgui.cpp.obj
 0002:00006c98       ??_C@_0BA@ILJNDGLB@GamepadDpadDown@ 100bdc98     imgui.cpp.obj
 0002:00006ca8       ??_C@_09BNICIIOB@GamepadL1@ 100bdca8     imgui.cpp.obj
 0002:00006cb4       ??_C@_09LDKAGJL@GamepadR1@ 100bdcb4     imgui.cpp.obj
 0002:00006cc0       ??_C@_09DGKPNLCC@GamepadL2@ 100bdcc0     imgui.cpp.obj
 0002:00006ccc       ??_C@_09CABHFFFI@GamepadR2@ 100bdccc     imgui.cpp.obj
 0002:00006cd8       ??_C@_09CPLEOKGD@GamepadL3@ 100bdcd8     imgui.cpp.obj
 0002:00006ce4       ??_C@_09DJAMGEBJ@GamepadR3@ 100bdce4     imgui.cpp.obj
 0002:00006cf0       ??_C@_0BC@MGONIKHG@GamepadLStickLeft@ 100bdcf0     imgui.cpp.obj
 0002:00006d04       ??_C@_0BD@KDFPDGOK@GamepadLStickRight@ 100bdd04     imgui.cpp.obj
 0002:00006d18       ??_C@_0BA@NNMPJILJ@GamepadLStickUp@ 100bdd18     imgui.cpp.obj
 0002:00006d28       ??_C@_0BC@DEOJBCEP@GamepadLStickDown@ 100bdd28     imgui.cpp.obj
 0002:00006d3c       ??_C@_0BC@DKGNGFLL@GamepadRStickLeft@ 100bdd3c     imgui.cpp.obj
 0002:00006d50       ??_C@_0BD@EGHGAIAI@GamepadRStickRight@ 100bdd50     imgui.cpp.obj
 0002:00006d64       ??_C@_0BA@LJMNABFK@GamepadRStickUp@ 100bdd64     imgui.cpp.obj
 0002:00006d74       ??_C@_0BC@MIGJPNIC@GamepadRStickDown@ 100bdd74     imgui.cpp.obj
 0002:00006d88       ??_C@_09DBACHFO@MouseLeft@ 100bdd88     imgui.cpp.obj
 0002:00006d94       ??_C@_0L@JGCPGDLN@MouseRight@ 100bdd94     imgui.cpp.obj
 0002:00006da0       ??_C@_0M@CDBJKEDH@MouseMiddle@ 100bdda0     imgui.cpp.obj
 0002:00006dac       ??_C@_07BICMLCEA@MouseX1@  100bddac     imgui.cpp.obj
 0002:00006db4       ??_C@_07DDABOBID@MouseX2@  100bddb4     imgui.cpp.obj
 0002:00006dbc       ??_C@_0M@MENPLCHJ@MouseWheelX@ 100bddbc     imgui.cpp.obj
 0002:00006dc8       ??_C@_0M@NNMEIDDI@MouseWheelY@ 100bddc8     imgui.cpp.obj
 0002:00006dd4       ??_C@_07KDONALCN@ModCtrl@  100bddd4     imgui.cpp.obj
 0002:00006ddc       ??_C@_08CCGGCANM@ModShift@ 100bdddc     imgui.cpp.obj
 0002:00006de8       ??_C@_06PLGJOJNE@ModAlt@   100bdde8     imgui.cpp.obj
 0002:00006df0       ??_C@_08MDBLHCCF@ModSuper@ 100bddf0     imgui.cpp.obj
 0002:00006dfc       ??_C@_03IEAKBACE@Tab@      100bddfc     imgui.cpp.obj
 0002:00006e00       ??_C@_0BK@EHABPKJJ@Dear?5ImGui?51?490?49?5?$CI19090?$CJ@ 100bde00     imgui.cpp.obj
 0002:00006e1c       ??_C@_0BN@CNPDCOK@Size?5column?5to?5fit?$CD?$CD?$CDSizeOne@ 100bde1c     imgui.cpp.obj
 0002:00006e3c       ??_C@_0CC@MJIBPDCL@Size?5all?5columns?5to?5fit?$CD?$CD?$CDSizeA@ 100bde3c     imgui.cpp.obj
 0002:00006e60       ??_C@_0CG@CFICKNDA@Size?5all?5columns?5to?5default?$CD?$CD?$CDS@ 100bde60     imgui.cpp.obj
 0002:00006e88       ??_C@_0BJ@BBKAOKNK@Reset?5order?$CD?$CD?$CDResetOrder@ 100bde88     imgui.cpp.obj
 0002:00006ea4       ??_C@_0BA@KDPNEDEH@?$CIMain?5menu?5bar?$CJ@ 100bdea4     imgui.cpp.obj
 0002:00006eb4       ??_C@_07NPLNEKJH@?$CIPopup?$CJ@ 100bdeb4     imgui.cpp.obj
 0002:00006ebc       ??_C@_0L@JOJOIPFK@?$CIUntitled?$CJ@ 100bdebc     imgui.cpp.obj
 0002:00006ec8       ??_C@_0P@HEMCFMMD@?$CKMissing?5Text?$CK@ 100bdec8     imgui.cpp.obj
 0002:00006ed8       ??_C@_09BJIHMJFE@imgui?4ini@ 100bded8     imgui.cpp.obj
 0002:00006ee4       ??_C@_0O@HCOAADPE@imgui_log?4txt@ 100bdee4     imgui.cpp.obj
 0002:00006ef4       ??_C@_0DA@JJPCHNLN@?$FLio?$FN?5Super?$CLLeft?5Click?5aliased?5i@ 100bdef4     imgui.cpp.obj
 0002:00006f24       ??_C@_06OJHGLDPL@?$CInull?$CJ@ 100bdf24     imgui.cpp.obj
 0002:00006f9c       ??_C@_0CB@GNIOCDHI@Clipper?3?5Begin?$CI?$CFd?0?$CF?42f?$CJ?5in?5?8?$CFs?8@ 100bdf9c     imgui.cpp.obj
 0002:00006fc0       ??_C@_0BI@CAOKIKBG@Clipper?3?5End?$CI?$CJ?5in?5?8?$CFs?8?6@ 100bdfc0     imgui.cpp.obj
 0002:00006fd8       ??_C@_0CL@INMALPKG@Clipper?3?5Step?$CI?$CJ?3?5inside?5frozen?5@ 100bdfd8     imgui.cpp.obj
 0002:00007004       ??_C@_0CO@DPDPBJBN@Clipper?3?5Step?$CI?$CJ?3?5computed?5Items@ 100be004     imgui.cpp.obj
 0002:00007034       ??_C@_0CE@JEMCBOCJ@Clipper?3?5Step?$CI?$CJ?3?5display?5?$CFd?5to?5@ 100be034     imgui.cpp.obj
 0002:00007058       ??_C@_0BH@MKOKNAKC@Clipper?3?5Step?$CI?$CJ?3?5End?4?6@ 100be058     imgui.cpp.obj
 0002:00007070       ??_C@_07NBCGADJA@Unknown@  100be070     imgui.cpp.obj
 0002:00007078       ??_C@_06BKKJGDHO@Window@   100be078     imgui.cpp.obj
 0002:00007080       ??_C@_05EJCOBEBF@?$CDMOVE@ 100be080     imgui.cpp.obj
 0002:00007088       ??_C@_0CD@PNHNJJBD@SetActiveID?$CI?$CJ?5cancel?5MovingWind@ 100be088     imgui.cpp.obj
 0002:000070b0       ??_C@_0EE@BGNDHHFI@SetActiveID?$CI?$CJ?5old?30x?$CF08X?5?$CIwindo@ 100be0b0     imgui.cpp.obj
 0002:000070f4       ??_C@_06DBGMCOCH@1?490?49@ 100be0f4     imgui.cpp.obj
 0002:000070fc       ??_C@_0N@MFFOHPLI@?$CD?$CDBackground@ 100be0fc     imgui.cpp.obj
 0002:0000710c       ??_C@_0N@MFHPHIIJ@?$CD?$CDForeground@ 100be10c     imgui.cpp.obj
 0002:00007120       ??_C@_0EE@CAHEIKBO@NewFrame?$CI?$CJ?3?5ClearActiveID?$CI?$CJ?5bec@ 100be120     imgui.cpp.obj
 0002:00007168       ??_C@_0ED@GDNFFPHD@?$CIDebug?5Log?3?5Auto?9disabled?5some?5@ 100be168     imgui.cpp.obj
 0002:000071ac       ??_C@_0P@IMLDNMEK@Debug?$CD?$CDDefault@ 100be1ac     imgui.cpp.obj
 0002:000071c0       ??_C@_0EP@CMIOMJGE@?$FLio?$FN?5Calling?5io?4SetPlatformImeD@ 100be1c0     imgui.cpp.obj
 0002:00007210       ??_C@_03KHICJKCI@?4?4?4@   100be210     imgui.cpp.obj
 0002:00007214       ??_C@_0L@BDFLDJGI@?$CFs?1?$CFs_?$CF08X@ 100be214     imgui.cpp.obj
 0002:00007220       ??_C@_07KBCBAKFA@?$CFs?1?$CF08X@ 100be220     imgui.cpp.obj
 0002:00007228       ??_C@_07DFINAGAC@?$CD?$CDChild@ 100be228     imgui.cpp.obj
 0002:00007230       ??_C@_07HDHBJEOI@?$CDRESIZE@ 100be230     imgui.cpp.obj
 0002:00007238       ??_C@_09BJOGEADB@?$CDCOLLAPSE@ 100be238     imgui.cpp.obj
 0002:00007244       ??_C@_06KIIKKNMI@?$CDCLOSE@ 100be244     imgui.cpp.obj
 0002:0000724c       ??_C@_06CBHGEMFM@?$DMNULL?$DO@ 100be24c     imgui.cpp.obj
 0002:00007258       ??_C@_0EB@KDILIEDM@?$FLfocus?$FN?5FocusWindow?$CI?$CC?$CFs?$CC?0?5Unles@ 100be258     imgui.cpp.obj
 0002:0000729c       ??_C@_04OHJIHAFH@None@     100be29c     imgui.cpp.obj
 0002:000072a4       ??_C@_03HPADHAHE@N?1A@     100be2a4     imgui.cpp.obj
 0002:000072a8       ??_C@_06PPGOOJHA@Super?$CL@ 100be2a8     imgui.cpp.obj
 0002:000072b0       ??_C@_04IDGAMEF@Alt?$CL@   100be2b0     imgui.cpp.obj
 0002:000072b8       ??_C@_06DLOONOJK@Shift?$CL@ 100be2b8     imgui.cpp.obj
 0002:000072c0       ??_C@_05DNCIMHKL@Ctrl?$CL@ 100be2c0     imgui.cpp.obj
 0002:000072c8       ??_C@_0L@MOHIGKOO@?$CFs?$CFs?$CFs?$CFs?$CFs@ 100be2c8     imgui.cpp.obj
 0002:000072d8       ??_C@_0EM@FHOJENCA@SetShortcutRouting?$CI?$CFs?0?5flags?$DN?$CF0@ 100be2d8     imgui.cpp.obj
 0002:00007328       ??_C@_0FJ@JHBPHBJP@SetShortcutRouting?$CI?$CFs?0?5flags?$DN?$CF0@ 100be328     imgui.cpp.obj
 0002:00007388       ??_C@_0EB@MBBKFMAH@SetShortcutRouting?$CI?$CFs?0?5flags?$DN?$CF0@ 100be388     imgui.cpp.obj
 0002:000073cc       ??_C@_0BM@NCIGIPBK@?9?9?$DO?5granting?5current?5route?6@ 100be3cc     imgui.cpp.obj
 0002:000073e8       ??_C@_04HIBGFPH@NULL@      100be3e8     imgui.cpp.obj
 0002:000073f0       ??_C@_0CA@IDIONDFE@?$FLio?$FN?5LockWheelingWindow?$CI?$CJ?5?$CC?$CFs?$CC?6@ 100be3f0     imgui.cpp.obj
 0002:00007410       ??_C@_05PEEFLODH@Mouse@    100be410     imgui.cpp.obj
 0002:00007418       ??_C@_0M@KICOAHAM@TouchScreen@ 100be418     imgui.cpp.obj
 0002:00007424       ??_C@_03KANEGAKD@Pen@      100be424     imgui.cpp.obj
 0002:00007428       ??_C@_0CI@NLCAGBEH@?$FLio?$FN?5?$CFs?3?5MousePos?5?$CI?9FLT_MAX?0?5?9F@ 100be428     imgui.cpp.obj
 0002:00007450       ??_C@_0CF@BKHCFEMJ@?$FLio?$FN?5?$CFs?3?5MousePos?5?$CI?$CF?41f?0?5?$CF?41f?$CJ?5@ 100be450     imgui.cpp.obj
 0002:00007478       ??_C@_04FNCLCJMC@Down@     100be478     imgui.cpp.obj
 0002:00007480       ??_C@_02EFPGLDEA@Up@       100be480     imgui.cpp.obj
 0002:00007484       ??_C@_0CB@MABBEIGA@?$FLio?$FN?5?$CFs?3?5MouseButton?5?$CFd?5?$CFs?5?$CI?$CFs?$CJ@ 100be484     imgui.cpp.obj
 0002:000074a8       ??_C@_0CH@OGJIDLOF@?$FLio?$FN?5?$CFs?3?5MouseWheel?5?$CI?$CF?43f?0?5?$CF?43f@ 100be4a8     imgui.cpp.obj
 0002:000074d0       ??_C@_0BG@BAABPACK@?$FLio?$FN?5?$CFs?3?5Key?5?$CC?$CFs?$CC?5?$CFs?6@ 100be4d0     imgui.cpp.obj
 0002:000074e8       ??_C@_0BM@HGMGDMMC@?$FLio?$FN?5?$CFs?3?5Text?3?5?$CFc?5?$CIU?$CL?$CF08X?$CJ?6@ 100be4e8     imgui.cpp.obj
 0002:00007504       ??_C@_0BI@JDDIGJON@?$FLio?$FN?5?$CFs?3?5AppFocused?5?$CFd?6@ 100be504     imgui.cpp.obj
 0002:0000751c       ??_C@_09BIONLCBB@Processed@ 100be51c     imgui.cpp.obj
 0002:00007528       ??_C@_09PGGNMDFB@Remaining@ 100be528     imgui.cpp.obj
 0002:00007534       ??_C@_0P@DHLMFJKK@?$CD?$CDTooltip_?$CF02d@ 100be534     imgui.cpp.obj
 0002:00007544       ??_C@_0CD@LOACMKE@?$FLpopup?$FN?5OpenPopup?$CI?$CC?$CFs?$CC?5?9?$DO?50x?$CF08@ 100be544     imgui.cpp.obj
 0002:00007568       ??_C@_0BN@MEGOLGEO@?$FLpopup?$FN?5OpenPopupEx?$CI0x?$CF08X?$CJ?6@ 100be568     imgui.cpp.obj
 0002:00007588       ??_C@_0CF@KJFMKFLJ@?$FLpopup?$FN?5ClosePopupsOverWindow?$CI?$CC@ 100be588     imgui.cpp.obj
 0002:000075b0       ??_C@_0DB@MJNKEABH@?$FLpopup?$FN?5ClosePopupToLevel?$CI?$CFd?$CJ?0?5@ 100be5b0     imgui.cpp.obj
 0002:000075e4       ??_C@_0CE@FCCNCIKM@?$FLpopup?$FN?5CloseCurrentPopup?5?$CFd?5?9?$DO@ 100be5e4     imgui.cpp.obj
 0002:00007608       ??_C@_0M@NANGKBBK@?$CD?$CDMenu_?$CF02d@ 100be608     imgui.cpp.obj
 0002:00007614       ??_C@_0N@PIPFDMLM@?$CD?$CDPopup_?$CF08x@ 100be614     imgui.cpp.obj
 0002:00007624       ??_C@_0BM@CFDBCOKD@?$FLfocus?$FN?5SetNavWindow?$CI?$CC?$CFs?$CC?$CJ?6@ 100be624     imgui.cpp.obj
 0002:00007640       ??_C@_0DK@NLPDJHKG@?$FLfocus?$FN?5NavRestoreLayer?3?5from?5?$CC@ 100be640     imgui.cpp.obj
 0002:00007680       ??_C@_0FE@LKAOFKOF@?$FLnav?$FN?5NavInitRequest?3?5from?5NavI@ 100be680     imgui.cpp.obj
 0002:000076d8       ??_C@_0EJ@EKHMMIGJ@?$FLnav?$FN?5NavInitRequest?3?5ApplyResu@ 100be6d8     imgui.cpp.obj
 0002:00007724       ??_C@_0CA@BNPHEIIJ@?$FLnav?$FN?5NavMoveRequestForward?5?$CFd?6@ 100be724     imgui.cpp.obj
 0002:00007744       ??_C@_0DI@DAIPCILO@?$FLnav?$FN?5NavInitRequest?3?5from?5move@ 100be744     imgui.cpp.obj
 0002:0000777c       ??_C@_0DJ@MAGJKKCG@?$FLnav?$FN?5NavMoveRequest?3?5clamp?5Nav@ 100be77c     imgui.cpp.obj
 0002:000077b8       ??_C@_0DB@EPMLAAL@?$FLnav?$FN?5NavMoveSubmitted?5but?5not?5@ 100be7b8     imgui.cpp.obj
 0002:000077ec       ??_C@_0CM@KMMAIAOD@?$FLfocus?$FN?5NavMoveRequest?3?5SetNavW@ 100be7ec     imgui.cpp.obj
 0002:00007818       ??_C@_0ED@JMNIALPC@?$FLnav?$FN?5NavMoveRequest?3?5result?5Na@ 100be818     imgui.cpp.obj
 0002:0000785c       ??_C@_0CA@JJLLCANH@?$FLnav?$FN?5NavUpdateCancelRequest?$CI?$CJ?6@ 100be85c     imgui.cpp.obj
 0002:0000787c       ??_C@_0BG@NEECCIPG@?$CD?$CD?$CDNavUpdateWindowing@ 100be87c     imgui.cpp.obj
 0002:00007894       ??_C@_0O@BKOLOJFE@?$CD?$CDMainMenuBar@ 100be894     imgui.cpp.obj
 0002:000078a4       ??_C@_0BE@EBHFKNCA@?$CD?$CD?$CDNavWindowingList@ 100be8a4     imgui.cpp.obj
 0002:000078b8       ??_C@_0BM@BLFBIJHB@?$FLdragdrop?$FN?5ClearDragDrop?$CI?$CJ?6@ 100be8b8     imgui.cpp.obj
 0002:000078d4       ??_C@_0BB@IFIOILBM@?$CD?$CDTooltip_Hidden@ 100be8d4     imgui.cpp.obj
 0002:000078e8       ??_C@_0O@KMAIKFAM@?$CDSourceExtern@ 100be8e8     imgui.cpp.obj
 0002:000078f8       ??_C@_09EDAMLKGL@?5?$CIEXTERN?$CJ@ 100be8f8     imgui.cpp.obj
 0002:00007908       ??_C@_0EO@KOLGJMFF@?$FLdragdrop?$FN?5BeginDragDropSource?$CI@ 100be908     imgui.cpp.obj
 0002:00007958       ??_C@_0DO@KIJDIPAA@?$FLdragdrop?$FN?5AcceptDragDropPayloa@ 100be958     imgui.cpp.obj
 0002:00007998       ??_C@_02PCIJFNDE@?$AN?6@   100be998     imgui.cpp.obj
 0002:0000799c       ??_C@_07LFDEMEGD@?$CF?$CKs?$CF?4?$CKs@ 100be99c     imgui.cpp.obj
 0002:000079a4       ??_C@_02BOGAIONP@ab@       100be9a4     imgui.cpp.obj
 0002:000079a8       ??_C@_02JDPG@rb@           100be9a8     imgui.cpp.obj
 0002:000079ac       ??_C@_02BKFDOEMK@wt@       100be9ac     imgui.cpp.obj
 0002:000079b0       ??_C@_03OIJOKPOL@?$CD?$CD?$CD@ 100be9b0     imgui.cpp.obj
 0002:000079b4       ??_C@_09GOMOMIIP@Pos?$DN?$CFi?0?$CFi@ 100be9b4     imgui.cpp.obj
 0002:000079c0       ??_C@_0L@MPPKDMFA@Size?$DN?$CFi?0?$CFi@ 100be9c0     imgui.cpp.obj
 0002:000079cc       ??_C@_0N@IAKNMBB@Collapsed?$DN?$CFd@ 100be9cc     imgui.cpp.obj
 0002:000079dc       ??_C@_0L@PAOOMOGA@IsChild?$DN?$CFd@ 100be9dc     imgui.cpp.obj
 0002:000079e8       ??_C@_09HNFDDBIF@?$FL?$CFs?$FN?$FL?$CFs?$FN?6@ 100be9e8     imgui.cpp.obj
 0002:000079f4       ??_C@_0L@BALPIDOF@IsChild?$DN1?6@ 100be9f4     imgui.cpp.obj
 0002:00007a00       ??_C@_0M@CFANMDMP@Size?$DN?$CFd?0?$CFd?6@ 100bea00     imgui.cpp.obj
 0002:00007a0c       ??_C@_0L@DDMADIHO@Pos?$DN?$CFd?0?$CFd?6@ 100bea0c     imgui.cpp.obj
 0002:00007a18       ??_C@_0N@OIFLJBJE@Collapsed?$DN1?6@ 100bea18     imgui.cpp.obj
 0002:00007a28       ??_C@_01MNNFJEPP@?$DM@     100bea28     imgui.cpp.obj
 0002:00007a2c       ??_C@_01PPODPGHN@?$DO@     100bea2c     imgui.cpp.obj
 0002:00007a30       ??_C@_0N@IKFHBGAL@?$FL?$CFs?$FN?5?$FL?$CF05d?$FN?5@ 100bea30     imgui.cpp.obj
 0002:00007a40       ??_C@_07CHALBAHD@?$FL?$CF05d?$FN?5@ 100bea40     imgui.cpp.obj
 0002:00007a48       ??_C@_04OPMHGHMB@Copy@     100bea48     imgui.cpp.obj
 0002:00007a50       ??_C@_0BC@JHPKFIGH@HoveredId?3?50x?$CF08X@ 100bea50     imgui.cpp.obj
 0002:00007a64       ??_C@_0BM@IIPBLKLJ@Press?5ESC?5to?5abort?5picking?4@ 100bea64     imgui.cpp.obj
 0002:00007a80       ??_C@_04KPCPLBPL@Left@     100bea80     imgui.cpp.obj
 0002:00007a88       ??_C@_05DADPALEM@Right@    100bea88     imgui.cpp.obj
 0002:00007a90       ??_C@_06OJAFHGNF@Middle@   100bea90     imgui.cpp.obj
 0002:00007a98       ??_C@_0EA@BFCGJGEN@Remap?5w?1?5Ctrl?$CLShift?3?5click?5anyw@ 100bea98     imgui.cpp.obj
 0002:00007ad8       ??_C@_0DM@LGIJPHCL@Click?5?$CFs?5Button?5to?5break?5in?5deb@ 100bead8     imgui.cpp.obj
 0002:00007b14       ??_C@_04EBNJJJJI@?$CF?4?$CKs@ 100beb14     imgui.cpp.obj
 0002:00007b1c       ??_C@_0M@FNHADFEB@?$CIvoid?$CK?$CJ0x?$CFp@ 100beb1c     imgui.cpp.obj
 0002:00007b28       ??_C@_0BC@CHOABEME@0x?$CF08X?5?$FLoverride?$FN@ 100beb28     imgui.cpp.obj
 0002:00007b3c       __real@3727c5ac            100beb3c     imgui.cpp.obj
 0002:00007b40       __real@3bc79ca100000000    100beb40     imgui.cpp.obj
 0002:00007b48       __real@3c23d70a            100beb48     imgui.cpp.obj
 0002:00007b4c       __real@3c888889            100beb4c     imgui.cpp.obj
 0002:00007b50       __real@3d23d70a            100beb50     imgui.cpp.obj
 0002:00007b54       __real@3d4ccccd            100beb54     imgui.cpp.obj
 0002:00007b58       __real@3e8ccccd            100beb58     imgui.cpp.obj
 0002:00007b60       __real@3ee4f8b580000000    100beb60     imgui.cpp.obj
 0002:00007b68       __real@3f19999a            100beb68     imgui.cpp.obj
 0002:00007b6c       __real@3f1c61aa            100beb6c     imgui.cpp.obj
 0002:00007b70       __real@3f333333            100beb70     imgui.cpp.obj
 0002:00007b78       __real@3f70101020000000    100beb78     imgui.cpp.obj
 0002:00007b80       __real@3fa00000            100beb80     imgui.cpp.obj
 0002:00007b88       __real@3fa99999a0000000    100beb88     imgui.cpp.obj
 0002:00007b90       __real@3fb99999a0000000    100beb90     imgui.cpp.obj
 0002:00007b98       __real@3fc5555560000000    100beb98     imgui.cpp.obj
 0002:00007ba0       __real@3fc99999a0000000    100beba0     imgui.cpp.obj
 0002:00007ba8       __real@3fd0000000000000    100beba8     imgui.cpp.obj
 0002:00007bb0       __real@3fd3333340000000    100bebb0     imgui.cpp.obj
 0002:00007bb8       __real@3fd99999a0000000    100bebb8     imgui.cpp.obj
 0002:00007bc0       __real@3fe3333340000000    100bebc0     imgui.cpp.obj
 0002:00007bc8       __real@3fe4ccccc0000000    100bebc8     imgui.cpp.obj
 0002:00007bd0       __real@3fe570a3e0000000    100bebd0     imgui.cpp.obj
 0002:00007bd8       __real@3fe6666660000000    100bebd8     imgui.cpp.obj
 0002:00007be0       __real@3fe70a3d80000000    100bebe0     imgui.cpp.obj
 0002:00007be8       __real@3fe8000000000000    100bebe8     imgui.cpp.obj
 0002:00007bf0       __real@3fe921fb60000000    100bebf0     imgui.cpp.obj
 0002:00007bf8       __real@3fefffeb00000000    100bebf8     imgui.cpp.obj
 0002:00007c00       __real@3feffffde0000000    100bec00     imgui.cpp.obj
 0002:00007c08       __real@3ff19999a0000000    100bec08     imgui.cpp.obj
 0002:00007c10       __real@3ff59999a0000000    100bec10     imgui.cpp.obj
 0002:00007c18       __real@400c000000000000    100bec18     imgui.cpp.obj
 0002:00007c20       __real@4018000000000000    100bec20     imgui.cpp.obj
 0002:00007c28       __real@40200000            100bec28     imgui.cpp.obj
 0002:00007c30       __real@4020000000000000    100bec30     imgui.cpp.obj
 0002:00007c38       __real@4024000000000000    100bec38     imgui.cpp.obj
 0002:00007c40       __real@4028000000000000    100bec40     imgui.cpp.obj
 0002:00007c48       __real@402a000000000000    100bec48     imgui.cpp.obj
 0002:00007c50       __real@4030000000000000    100bec50     imgui.cpp.obj
 0002:00007c58       __real@4034000000000000    100bec58     imgui.cpp.obj
 0002:00007c60       __real@4038000000000000    100bec60     imgui.cpp.obj
 0002:00007c68       __real@403e000000000000    100bec68     imgui.cpp.obj
 0002:00007c70       __real@404e000000000000    100bec70     imgui.cpp.obj
 0002:00007c78       __real@406fe00000000000    100bec78     imgui.cpp.obj
 0002:00007c80       __real@4082c00000000000    100bec80     imgui.cpp.obj
 0002:00007c88       __real@4089000000000000    100bec88     imgui.cpp.obj
 0002:00007c90       __real@408f400000000000    100bec90     imgui.cpp.obj
 0002:00007c98       __real@40a00000            100bec98     imgui.cpp.obj
 0002:00007c9c       __real@41400000            100bec9c     imgui.cpp.obj
 0002:00007ca0       __real@41980000            100beca0     imgui.cpp.obj
 0002:00007ca4       __real@41a80000            100beca4     imgui.cpp.obj
 0002:00007ca8       __real@42000000            100beca8     imgui.cpp.obj
 0002:00007cac       __real@42700000            100becac     imgui.cpp.obj
 0002:00007cb0       __real@43c80000            100becb0     imgui.cpp.obj
 0002:00007cb8       __real@47efffffe0000000    100becb8     imgui.cpp.obj
 0002:00007cc0       __real@4b800000            100becc0     imgui.cpp.obj
 0002:00007cc8       __real@bfd5555560000000    100becc8     imgui.cpp.obj
 0002:00007cd0       __real@bff0000000000000    100becd0     imgui.cpp.obj
 0002:00007cd8       __real@c87a0000            100becd8     imgui.cpp.obj
 0002:00007cdc       __real@cb800000            100becdc     imgui.cpp.obj
 0002:00007ce0       __real@ff7fffff            100bece0     imgui.cpp.obj
 0002:0000b970       ??_C@_04EICJPCEA@cmap@     100c2970     imgui_draw.cpp.obj
 0002:0000b978       ??_C@_04DACNFKGE@loca@     100c2978     imgui_draw.cpp.obj
 0002:0000b980       ??_C@_04NEODDMOL@head@     100c2980     imgui_draw.cpp.obj
 0002:0000b988       ??_C@_04LLIHEPK@glyf@      100c2988     imgui_draw.cpp.obj
 0002:0000b990       ??_C@_04FMPHLIKP@hhea@     100c2990     imgui_draw.cpp.obj
 0002:0000b998       ??_C@_04ONMNCIMC@hmtx@     100c2998     imgui_draw.cpp.obj
 0002:0000b9a0       ??_C@_04HHMMLDJI@kern@     100c29a0     imgui_draw.cpp.obj
 0002:0000b9a8       ??_C@_04PCFDEHHD@GPOS@     100c29a8     imgui_draw.cpp.obj
 0002:0000b9b0       ??_C@_04HJGCPIEK@CFF?5@    100c29b0     imgui_draw.cpp.obj
 0002:0000b9b8       ??_C@_04KODIGLGG@maxp@     100c29b8     imgui_draw.cpp.obj
 0002:0000b9c0       ??_C@_0BG@CONABPA@ProggyClean?4ttf?0?5?$CFdpx@ 100c29c0     imgui_draw.cpp.obj
 0002:0000b9e0       __real@3ca3d70a            100c29e0     imgui_draw.cpp.obj
 0002:0000b9e4       __real@3d75c28f            100c29e4     imgui_draw.cpp.obj
 0002:0000b9e8       __real@3da3d70a            100c29e8     imgui_draw.cpp.obj
 0002:0000b9ec       __real@3e0f5c29            100c29ec     imgui_draw.cpp.obj
 0002:0000b9f0       __real@3e23d70a            100c29f0     imgui_draw.cpp.obj
 0002:0000b9f4       __real@3e428f5c            100c29f4     imgui_draw.cpp.obj
 0002:0000b9f8       __real@3e6b851f            100c29f8     imgui_draw.cpp.obj
 0002:0000b9fc       __real@3e75c28f            100c29fc     imgui_draw.cpp.obj
 0002:0000ba00       __real@3e851eb8            100c2a00     imgui_draw.cpp.obj
 0002:0000ba04       __real@3e947ae1            100c2a04     imgui_draw.cpp.obj
 0002:0000ba08       __real@3e9eb852            100c2a08     imgui_draw.cpp.obj
 0002:0000ba0c       __real@3ed1eb85            100c2a0c     imgui_draw.cpp.obj
 0002:0000ba10       __real@3edc28f6            100c2a10     imgui_draw.cpp.obj
 0002:0000ba18       __real@3ef0000000000000    100c2a18     imgui_draw.cpp.obj
 0002:0000ba20       __real@3ef5c28f            100c2a20     imgui_draw.cpp.obj
 0002:0000ba24       __real@3f028f5c            100c2a24     imgui_draw.cpp.obj
 0002:0000ba28       __real@3f051eb8            100c2a28     imgui_draw.cpp.obj
 0002:0000ba2c       __real@3f07ae14            100c2a2c     imgui_draw.cpp.obj
 0002:0000ba30       __real@3f0a3d71            100c2a30     imgui_draw.cpp.obj
 0002:0000ba38       __real@3f10000000000000    100c2a38     imgui_draw.cpp.obj
 0002:0000ba40       __real@3f170a3d            100c2a40     imgui_draw.cpp.obj
 0002:0000ba44       __real@3f1c28f6            100c2a44     imgui_draw.cpp.obj
 0002:0000ba48       __real@3f2b851f            100c2a48     imgui_draw.cpp.obj
 0002:0000ba4c       __real@3f47ae14            100c2a4c     imgui_draw.cpp.obj
 0002:0000ba50       __real@3f6147ae            100c2a50     imgui_draw.cpp.obj
 0002:0000ba54       __real@3f666666            100c2a54     imgui_draw.cpp.obj
 0002:0000ba58       __real@3f70a3d7            100c2a58     imgui_draw.cpp.obj
 0002:0000ba5c       __real@3f733333            100c2a5c     imgui_draw.cpp.obj
 0002:0000ba60       __real@3f7ae148            100c2a60     imgui_draw.cpp.obj
 0002:0000ba68       __real@3fb0c15240000000    100c2a68     imgui_draw.cpp.obj
 0002:0000ba70       __real@3fdf5c2900000000    100c2a70     imgui_draw.cpp.obj
 0002:0000ba78       __real@3febb645a0000000    100c2a78     imgui_draw.cpp.obj
 0002:0000ba80       __real@3fefae1480000000    100c2a80     imgui_draw.cpp.obj
 0002:0000ba88       __real@400921fb60000000    100c2a88     imgui_draw.cpp.obj
 0002:0000ba90       __real@401921fb60000000    100c2a90     imgui_draw.cpp.obj
 0002:0000ba98       __real@4048000000000000    100c2a98     imgui_draw.cpp.obj
 0002:0000baa0       __real@405ec00000000000    100c2aa0     imgui_draw.cpp.obj
 0002:0000baa8       __real@40afede0            100c2aa8     imgui_draw.cpp.obj
 0002:0000baac       __real@41500000            100c2aac     imgui_draw.cpp.obj
 0002:0000bab0       __real@44333333            100c2ab0     imgui_draw.cpp.obj
 0002:0000bab4       __real@44b33333            100c2ab4     imgui_draw.cpp.obj
 0002:0000bab8       __real@45333333            100c2ab8     imgui_draw.cpp.obj
 0002:0000bac0       __real@bfe8000000000000    100c2ac0     imgui_draw.cpp.obj
 0002:0000bac8       __real@bfebb645a0000000    100c2ac8     imgui_draw.cpp.obj
 0002:0000bad0       ??_C@_0M@LODKKDJJ@?$CD?$CDInstances@ 100c2ad0     imgui_tables.cpp.obj
 0002:0000badc       ??_C@_01DNKMNLPK@?$HM@     100c2adc     imgui_tables.cpp.obj
 0002:0000bae0       ??_C@_0O@BMOANCPA@?$CD?$CDContextMenu@ 100c2ae0     imgui_tables.cpp.obj
 0002:0000baf0       ??_C@_09MGFHLAFE@?$DMUnknown?$DO@ 100c2af0     imgui_tables.cpp.obj
 0002:0000bafc       ??_C@_09BDLBIGPI@0x?$CF08X?0?$CFd@ 100c2afc     imgui_tables.cpp.obj
 0002:0000bb08       ??_C@_0M@LAOOHBLO@RefScale?$DN?$CFf@ 100c2b08     imgui_tables.cpp.obj
 0002:0000bb14       ??_C@_0M@JOECNJOM@Column?5?$CFd?$CFn@ 100c2b14     imgui_tables.cpp.obj
 0002:0000bb20       ??_C@_0BA@KAIOJKEL@UserID?$DN0x?$CF08X?$CFn@ 100c2b20     imgui_tables.cpp.obj
 0002:0000bb30       ??_C@_0L@LJLKPCDP@Width?$DN?$CFd?$CFn@ 100c2b30     imgui_tables.cpp.obj
 0002:0000bb3c       ??_C@_0M@IJODOCHC@Weight?$DN?$CFf?$CFn@ 100c2b3c     imgui_tables.cpp.obj
 0002:0000bb48       ??_C@_0N@EKALHFOF@Visible?$DN?$CFd?$CFn@ 100c2b48     imgui_tables.cpp.obj
 0002:0000bb58       ??_C@_0L@BHOFPJL@Order?$DN?$CFd?$CFn@ 100c2b58     imgui_tables.cpp.obj
 0002:0000bb64       ??_C@_0M@KGHCDDIO@Sort?$DN?$CFd?$CFc?$CFn@ 100c2b64     imgui_tables.cpp.obj
 0002:0000bb70       ??_C@_0BB@PGHPBJD@?$FL?$CFs?$FN?$FL0x?$CF08X?0?$CFd?$FN?6@ 100c2b70     imgui_tables.cpp.obj
 0002:0000bb84       ??_C@_0N@NHEEPCEH@RefScale?$DN?$CFg?6@ 100c2b84     imgui_tables.cpp.obj
 0002:0000bb94       ??_C@_0M@JLNIJDCE@Column?5?$CF?92d@ 100c2b94     imgui_tables.cpp.obj
 0002:0000bba0       ??_C@_0N@PGBEGIHP@?5UserID?$DN?$CF08X@ 100c2ba0     imgui_tables.cpp.obj
 0002:0000bbb0       ??_C@_0N@MFKBBKPH@?5Weight?$DN?$CF?44f@ 100c2bb0     imgui_tables.cpp.obj
 0002:0000bbc0       ??_C@_09PBOBBCAP@?5Width?$DN?$CFd@ 100c2bc0     imgui_tables.cpp.obj
 0002:0000bbcc       ??_C@_0M@CIPDPODB@?5Visible?$DN?$CFd@ 100c2bcc     imgui_tables.cpp.obj
 0002:0000bbd8       ??_C@_09CFPCIBAG@?5Order?$DN?$CFd@ 100c2bd8     imgui_tables.cpp.obj
 0002:0000bbe4       ??_C@_0L@EAJILIBD@?5Sort?$DN?$CFd?$CFc@ 100c2be4     imgui_tables.cpp.obj
 0002:0000bbf0       ??_C@_05LFBINIGO@Table@    100c2bf0     imgui_tables.cpp.obj
 0002:0000bbf8       ??_C@_03JMFMNIFM@?9?9?9@   100c2bf8     imgui_tables.cpp.obj
 0002:0000bbfc       __real@00800000            100c2bfc     imgui_tables.cpp.obj
 0002:0000bc00       __real@3f266666            100c2c00     imgui_tables.cpp.obj
 0002:0000bc08       __real@3f847ae140000000    100c2c08     imgui_tables.cpp.obj
 0002:0000bcb0       ??_C@_02HJNLAKPP@S8@       100c2cb0     imgui_widgets.cpp.obj
 0002:0000bcb4       ??_C@_02HNFGHGEN@U8@       100c2cb4     imgui_widgets.cpp.obj
 0002:0000bcb8       ??_C@_02GMHACPFF@?$CFu@    100c2cb8     imgui_widgets.cpp.obj
 0002:0000bcbc       ??_C@_03KLLGJOHN@S16@      100c2cbc     imgui_widgets.cpp.obj
 0002:0000bcc0       ??_C@_03IONNMBKB@U16@      100c2cc0     imgui_widgets.cpp.obj
 0002:0000bcc4       ??_C@_03MMFOIPBH@S32@      100c2cc4     imgui_widgets.cpp.obj
 0002:0000bcc8       ??_C@_03OJDFNAML@U32@      100c2cc8     imgui_widgets.cpp.obj
 0002:0000bccc       ??_C@_03JMMPOKHK@S64@      100c2ccc     imgui_widgets.cpp.obj
 0002:0000bcd0       ??_C@_05LLAMLEHD@?$CFI64d@ 100c2cd0     imgui_widgets.cpp.obj
 0002:0000bcd8       ??_C@_03LJKELFKG@U64@      100c2cd8     imgui_widgets.cpp.obj
 0002:0000bcdc       ??_C@_05OINFJHGD@?$CFI64u@ 100c2cdc     imgui_widgets.cpp.obj
 0002:0000bce4       ??_C@_05KNFBNCOH@float@    100c2ce4     imgui_widgets.cpp.obj
 0002:0000bcec       ??_C@_04GFJLOHHD@?$CF?43f@ 100c2cec     imgui_widgets.cpp.obj
 0002:0000bcf4       ??_C@_02NJPGOMH@?$CFf@     100c2cf4     imgui_widgets.cpp.obj
 0002:0000bcf8       ??_C@_06BNJCAIGJ@double@   100c2cf8     imgui_widgets.cpp.obj
 0002:0000bd00       ??_C@_03DLDNIBIK@?$CFlf@   100c2d00     imgui_widgets.cpp.obj
 0002:0000bd04       ??_C@_01LBDDMOBJ@?$FN@     100c2d04     imgui_widgets.cpp.obj
 0002:0000bd08       ??_C@_01OHGJGJJP@?$FL@     100c2d08     imgui_widgets.cpp.obj
 0002:0000bd0c       ??_C@_08ENAFOMOP@?$CDSCROLLX@ 100c2d0c     imgui_widgets.cpp.obj
 0002:0000bd18       ??_C@_08FEBONNKO@?$CDSCROLLY@ 100c2d18     imgui_widgets.cpp.obj
 0002:0000bd24       ??_C@_03JDMNMOAD@?$FL?$HO?$FN@ 100c2d24     imgui_widgets.cpp.obj
 0002:0000bd28       ??_C@_03JHEALCLB@?$FLx?$FN@ 100c2d28     imgui_widgets.cpp.obj
 0002:0000bd2c       ??_C@_03PFOPMNLJ@?$FL?5?$FN@ 100c2d2c     imgui_widgets.cpp.obj
 0002:0000bd30       ??_C@_03KFJJABDB@?$CIx?$CJ@ 100c2d30     imgui_widgets.cpp.obj
 0002:0000bd34       ??_C@_03MHDGHODJ@?$CI?5?$CJ@ 100c2d34     imgui_widgets.cpp.obj
 0002:0000bd38       ??_C@_02LLHJFGPH@?5?$HM@   100c2d38     imgui_widgets.cpp.obj
 0002:0000bd3c       ??_C@_0CC@IODDEFBI@?9?9?9?9?9?9?9?9?9?9?9?9?9?9?9?9?9?9?9?9?9?9?9?9?9?9?9?9?9?9?9@ 100c2d3c     imgui_widgets.cpp.obj
 0002:0000bd60       ??_C@_0N@LNBMNBNO@?$CD?$CDComboPopup@ 100c2d60     imgui_widgets.cpp.obj
 0002:0000bd70       ??_C@_01CELHOKLL@?$HN@     100c2d70     imgui_widgets.cpp.obj
 0002:0000bd74       ??_C@_01HCONENDN@?$HL@     100c2d74     imgui_widgets.cpp.obj
 0002:0000bd78       ??_C@_0N@JOGGDHMO@?$CD?$CDCombo_?$CF02d@ 100c2d78     imgui_widgets.cpp.obj
 0002:0000bd88       ??_C@_0P@HFPOEILF@?$CKUnknown?5item?$CK@ 100c2d88     imgui_widgets.cpp.obj
 0002:0000bdc0       ??_C@_01JOAMLHOP@?9@       100c2dc0     imgui_widgets.cpp.obj
 0002:0000bdc4       ??_C@_01MIFGBAGJ@?$CL@     100c2dc4     imgui_widgets.cpp.obj
 0002:0000bdc8       ??_C@_04JIMNDDED@?$CF08X@  100c2dc8     imgui_widgets.cpp.obj
 0002:0000bdd0       ??_C@_03CEFFAPNG@?$CD?$CDX@ 100c2dd0     imgui_widgets.cpp.obj
 0002:0000bdd4       ??_C@_03DNEODOJH@?$CD?$CDY@ 100c2dd4     imgui_widgets.cpp.obj
 0002:0000bdd8       ??_C@_03BGGDGNFE@?$CD?$CDZ@ 100c2dd8     imgui_widgets.cpp.obj
 0002:0000bddc       ??_C@_03KDMNBDBJ@?$CD?$CDW@ 100c2ddc     imgui_widgets.cpp.obj
 0002:0000bde0       ??_C@_03GOOLIKIF@?$CF3d@   100c2de0     imgui_widgets.cpp.obj
 0002:0000bde4       ??_C@_05FELKPNOB@R?3?$CF3d@ 100c2de4     imgui_widgets.cpp.obj
 0002:0000bdec       ??_C@_05HKBGOMJ@G?3?$CF3d@ 100c2dec     imgui_widgets.cpp.obj
 0002:0000bdf4       ??_C@_05FHGMPPHK@B?3?$CF3d@ 100c2df4     imgui_widgets.cpp.obj
 0002:0000bdfc       ??_C@_05NBPIINNE@A?3?$CF3d@ 100c2dfc     imgui_widgets.cpp.obj
 0002:0000be04       ??_C@_05PGPHNMBM@H?3?$CF3d@ 100c2e04     imgui_widgets.cpp.obj
 0002:0000be0c       ??_C@_05JPOGCOEE@S?3?$CF3d@ 100c2e0c     imgui_widgets.cpp.obj
 0002:0000be14       ??_C@_05MPCLLPPH@V?3?$CF3d@ 100c2e14     imgui_widgets.cpp.obj
 0002:0000be1c       ??_C@_05ONBKDNLK@?$CF0?43f@ 100c2e1c     imgui_widgets.cpp.obj
 0002:0000be24       ??_C@_07CCOKENNH@R?3?$CF0?43f@ 100c2e24     imgui_widgets.cpp.obj
 0002:0000be2c       ??_C@_07BGLBHCJI@G?3?$CF0?43f@ 100c2e2c     imgui_widgets.cpp.obj
 0002:0000be34       ??_C@_07FOFBHMPM@B?3?$CF0?43f@ 100c2e34     imgui_widgets.cpp.obj
 0002:0000be3c       ??_C@_07NANOHLBP@A?3?$CF0?43f@ 100c2e3c     imgui_widgets.cpp.obj
 0002:0000be44       ??_C@_07MPJBGADE@H?3?$CF0?43f@ 100c2e44     imgui_widgets.cpp.obj
 0002:0000be4c       ??_C@_07OOEAENEJ@S?3?$CF0?43f@ 100c2e4c     imgui_widgets.cpp.obj
 0002:0000be54       ??_C@_07KGKAEDCN@V?3?$CF0?43f@ 100c2e54     imgui_widgets.cpp.obj
 0002:0000be5c       ??_C@_07FFNLLALM@M?30?4000@ 100c2e5c     imgui_widgets.cpp.obj
 0002:0000be64       ??_C@_05BNGMMMAL@M?3000@   100c2e64     imgui_widgets.cpp.obj
 0002:0000be6c       ??_C@_07JKKCBBMM@context@  100c2e6c     imgui_widgets.cpp.obj
 0002:0000be74       ??_C@_0BC@CKPCOFBK@?$CD?$CF02X?$CF02X?$CF02X?$CF02X@ 100c2e74     imgui_widgets.cpp.obj
 0002:0000be88       ??_C@_0O@MBPBDFLP@?$CD?$CF02X?$CF02X?$CF02X@ 100c2e88     imgui_widgets.cpp.obj
 0002:0000be98       ??_C@_06MNCEJPDI@?$CD?$CDText@ 100c2e98     imgui_widgets.cpp.obj
 0002:0000bea0       ??_C@_0BB@DDMGLOLI@?$CF02X?$CF02X?$CF02X?$CF02X@ 100c2ea0     imgui_widgets.cpp.obj
 0002:0000beb4       ??_C@_0N@KODLFHPJ@?$CF02X?$CF02X?$CF02X@ 100c2eb4     imgui_widgets.cpp.obj
 0002:0000bec4       ??_C@_0O@GLNBIEEK@?$CD?$CDColorButton@ 100c2ec4     imgui_widgets.cpp.obj
 0002:0000bed4       ??_C@_06MAKAMBBI@picker@   100c2ed4     imgui_widgets.cpp.obj
 0002:0000bedc       ??_C@_08HHEANBBL@?$CD?$CDpicker@ 100c2edc     imgui_widgets.cpp.obj
 0002:0000bee8       ??_C@_06LFKNFKEK@_COL3F@   100c2ee8     imgui_widgets.cpp.obj
 0002:0000bef0       ??_C@_06LAOCEMMP@_COL4F@   100c2ef0     imgui_widgets.cpp.obj
 0002:0000bef8       ??_C@_03PPLPHHG@hsv@       100c2ef8     imgui_widgets.cpp.obj
 0002:0000befc       ??_C@_02CPGMCOJE@sv@       100c2efc     imgui_widgets.cpp.obj
 0002:0000bf00       ??_C@_03GKJJMKFG@hue@      100c2f00     imgui_widgets.cpp.obj
 0002:0000bf04       ??_C@_05IAEKHIAN@alpha@    100c2f04     imgui_widgets.cpp.obj
 0002:0000bf0c       ??_C@_07EDIFFIJI@Current@  100c2f0c     imgui_widgets.cpp.obj
 0002:0000bf14       ??_C@_09CDENILGE@?$CD?$CDcurrent@ 100c2f14     imgui_widgets.cpp.obj
 0002:0000bf20       ??_C@_08DCPBJHAO@Original@ 100c2f20     imgui_widgets.cpp.obj
 0002:0000bf2c       ??_C@_0L@IGJKOBOK@?$CD?$CDoriginal@ 100c2f2c     imgui_widgets.cpp.obj
 0002:0000bf38       ??_C@_05JCABMAIH@?$CD?$CDrgb@ 100c2f38     imgui_widgets.cpp.obj
 0002:0000bf40       ??_C@_05JICEKLIF@?$CD?$CDhsv@ 100c2f40     imgui_widgets.cpp.obj
 0002:0000bf48       ??_C@_05BOAMFJMJ@?$CD?$CDhex@ 100c2f48     imgui_widgets.cpp.obj
 0002:0000bf50       ??_C@_05PDOBBJNA@Color@    100c2f50     imgui_widgets.cpp.obj
 0002:0000bf58       ??_C@_09JCCDBEFL@?$CD?$CDpreview@ 100c2f58     imgui_widgets.cpp.obj
 0002:0000bf64       ??_C@_0DF@FAPNKOHO@?$CD?$CF02X?$CF02X?$CF02X?6R?3?5?$CFd?0?5G?3?5?$CFd?0?5B?3?5@ 100c2f64     imgui_widgets.cpp.obj
 0002:0000bfa0       ??_C@_0EC@EBPMGCGK@?$CD?$CF02X?$CF02X?$CF02X?$CF02X?6R?3?$CFd?0?5G?3?$CFd?0?5B@ 100c2fa0     imgui_widgets.cpp.obj
 0002:0000bfe4       ??_C@_0BK@HKNBICJE@H?3?5?$CF?43f?0?5S?3?5?$CF?43f?0?5V?3?5?$CF?43f@ 100c2fe4     imgui_widgets.cpp.obj
 0002:0000c000       ??_C@_0CD@EEDEAEPG@H?3?5?$CF?43f?0?5S?3?5?$CF?43f?0?5V?3?5?$CF?43f?0?5A?3?5?$CF@ 100c3000     imgui_widgets.cpp.obj
 0002:0000c024       ??_C@_03ICFFBAI@RGB@       100c3024     imgui_widgets.cpp.obj
 0002:0000c028       ??_C@_03CAADKAK@HSV@       100c3028     imgui_widgets.cpp.obj
 0002:0000c02c       ??_C@_03CJOBKKAE@Hex@      100c302c     imgui_widgets.cpp.obj
 0002:0000c030       ??_C@_06FDBEKFBH@0?4?4255@ 100c3030     imgui_widgets.cpp.obj
 0002:0000c038       ??_C@_0L@MDNPBJBM@0?400?4?41?400@ 100c3038     imgui_widgets.cpp.obj
 0002:0000c044       ??_C@_09NMCCFHEI@Copy?5as?4?4@ 100c3044     imgui_widgets.cpp.obj
 0002:0000c050       ??_C@_0BN@GKCJMPCH@?$CI?$CF?43ff?0?5?$CF?43ff?0?5?$CF?43ff?0?5?$CF?43ff?$CJ@ 100c3050     imgui_widgets.cpp.obj
 0002:0000c070       ??_C@_0O@EJHNAHBL@?$CI?$CFd?0?$CFd?0?$CFd?0?$CFd?$CJ@ 100c3070     imgui_widgets.cpp.obj
 0002:0000c080       ??_C@_0N@KFBFGFJL@?$CD?$CDselectable@ 100c3080     imgui_widgets.cpp.obj
 0002:0000c090       ??_C@_0BE@ENPGBMIC@?$CD?$CDpreviewing_picker@ 100c3090     imgui_widgets.cpp.obj
 0002:0000c0a4       ??_C@_09KEDLMDJL@Alpha?5Bar@ 100c30a4     imgui_widgets.cpp.obj
 0002:0000c0b0       ??_C@_03CFMEKBHF@?$CD?$CD?$DM@ 100c30b0     imgui_widgets.cpp.obj
 0002:0000c0b4       ??_C@_03BHPCMDPH@?$CD?$CD?$DO@ 100c30b4     imgui_widgets.cpp.obj
 0002:0000c0b8       ??_C@_03CPFCAGPK@?$CD?$CDv@ 100c30b8     imgui_widgets.cpp.obj
 0002:0000c0bc       __real@38d1b717            100c30bc     imgui_widgets.cpp.obj
 0002:0000c0c0       __real@3b808081            100c30c0     imgui_widgets.cpp.obj
 0002:0000c0c8       __real@3eb0c6f7a0000000    100c30c8     imgui_widgets.cpp.obj
 0002:0000c0d0       __real@3f9ba5e360000000    100c30d0     imgui_widgets.cpp.obj
 0002:0000c0d8       __real@3fb47ae140000000    100c30d8     imgui_widgets.cpp.obj
 0002:0000c0e0       __real@3fc00000            100c30e0     imgui_widgets.cpp.obj
 0002:0000c0e8       __real@3fc126e980000000    100c30e8     imgui_widgets.cpp.obj
 0002:0000c0f0       __real@3fc3333340000000    100c30f0     imgui_widgets.cpp.obj
 0002:0000c0f8       __real@3fe19999a0000000    100c30f8     imgui_widgets.cpp.obj
 0002:0000c100       __real@3fe6a09020000000    100c3100     imgui_widgets.cpp.obj
 0002:0000c108       __real@3febb67a00000000    100c3108     imgui_widgets.cpp.obj
 0002:0000c110       __real@3ff3333340000000    100c3110     imgui_widgets.cpp.obj
 0002:0000c118       __real@3ff8000000000000    100c3118     imgui_widgets.cpp.obj
 0002:0000c120       __real@4007eb8520000000    100c3120     imgui_widgets.cpp.obj
 0002:0000c128       __real@400cccccc0000000    100c3128     imgui_widgets.cpp.obj
 0002:0000c130       __real@4051800000000000    100c3130     imgui_widgets.cpp.obj
 0002:0000c138       __real@7fefffffffffffff    100c3138     imgui_widgets.cpp.obj
 0002:0000c140       __real@be99999a            100c3140     imgui_widgets.cpp.obj
 0002:0000c144       __real@bf000000            100c3144     imgui_widgets.cpp.obj
 0002:0000c148       __real@bf400000            100c3148     imgui_widgets.cpp.obj
 0002:0000c150       __real@bfd0000000000000    100c3150     imgui_widgets.cpp.obj
 0002:0000c158       __real@bfe0000000000000    100c3158     imgui_widgets.cpp.obj
 0002:0000c160       __real@bfebb67a00000000    100c3160     imgui_widgets.cpp.obj
 0002:0000c168       __real@c2c80000            100c3168     imgui_widgets.cpp.obj
 0002:0000c170       __real@ffefffffffffffff    100c3170     imgui_widgets.cpp.obj
 0002:0000c178       ??_C@_0P@PJLJBPPP@imgui_impl_dx9@ 100c3178     imgui_impl_dx9.cpp.obj
 0002:0000c188       ??_C@_0BB@FLGJPPJK@imgui_impl_win32@ 100c3188     imgui_impl_win32.cpp.obj
 0002:0000c19c       ??_C@_0O@LNFLKCMF@xinput1_4?4dll@ 100c319c     imgui_impl_win32.cpp.obj
 0002:0000c1ac       ??_C@_0O@KAFOJCHN@xinput1_3?4dll@ 100c31ac     imgui_impl_win32.cpp.obj
 0002:0000c1bc       ??_C@_0BA@GHGALGFD@xinput9_1_0?4dll@ 100c31bc     imgui_impl_win32.cpp.obj
 0002:0000c1cc       ??_C@_0O@GLACEBNI@xinput1_2?4dll@ 100c31cc     imgui_impl_win32.cpp.obj
 0002:0000c1dc       ??_C@_0O@ONJGDDHG@xinput1_1?4dll@ 100c31dc     imgui_impl_win32.cpp.obj
 0002:0000c1ec       ??_C@_0BG@ELBNFOBA@XInputGetCapabilities@ 100c31ec     imgui_impl_win32.cpp.obj
 0002:0000c204       ??_C@_0P@FCCEJHCC@XInputGetState@ 100c3204     imgui_impl_win32.cpp.obj
 0002:0000c218       __real@405e000000000000    100c3218     imgui_impl_win32.cpp.obj
 0002:0000c220       __real@406c200000000000    100c3220     imgui_impl_win32.cpp.obj
 0002:0000c228       __real@40d8558000000000    100c3228     imgui_impl_win32.cpp.obj
 0002:0000c230       __real@c0d855c000000000    100c3230     imgui_impl_win32.cpp.obj
 0002:0000c238       ??_C@_0P@GHFPNOJB@bad?5allocation@ 100c3238     libcpmt:xthrow.obj
 0002:0000c24c       ??_7bad_function_call@std@@6B@ 100c324c     libcpmt:xthrow.obj
 0002:0000c254       ??_C@_0BC@DPJNKNAF@bad?5function?5call@ 100c3254     libcpmt:xthrow.obj
 0002:0000c26c       ??_7logic_error@std@@6B@   100c326c     libcpmt:xthrow.obj
 0002:0000c278       ??_7length_error@std@@6B@  100c3278     libcpmt:xthrow.obj
 0002:0000c284       ??_7out_of_range@std@@6B@  100c3284     libcpmt:xthrow.obj
 0002:0000c2c4       ??_C@_0BI@NGCEHDD@device?5or?5resource?5busy@ 100c32c4     libcpmt:thread0.obj
 0002:0000c2dc       ??_C@_0BB@FCMFBGOM@invalid?5argument@ 100c32dc     libcpmt:thread0.obj
 0002:0000c2f0       ??_C@_0BA@ENLPPKBN@no?5such?5process@ 100c32f0     libcpmt:thread0.obj
 0002:0000c300       ??_C@_0BC@ENOOLCNF@not?5enough?5memory@ 100c3300     libcpmt:thread0.obj
 0002:0000c314       ??_C@_0BI@OHIEJAAB@operation?5not?5permitted@ 100c3314     libcpmt:thread0.obj
 0002:0000c32c       ??_C@_0BO@BJBOMOEJ@resource?5deadlock?5would?5occur@ 100c332c     libcpmt:thread0.obj
 0002:0000c34c       ??_C@_0BP@LKNGHENJ@resource?5unavailable?5try?5again@ 100c334c     libcpmt:thread0.obj
 0002:0000c370       ??_7_Generic_error_category@std@@6B@ 100c3370     libcpmt:thread0.obj
 0002:0000c388       ??_C@_07DCLBNMLN@generic@  100c3388     libcpmt:thread0.obj
 0002:0000e8c0       __ymm@0000001f0000001f0000001f0000001f0000001f0000001f0000001f0000001f 100c58c0     libcpmt:vector_algorithms.obj
 0002:0000e8e0       ?nothrow@std@@3Unothrow_t@1@B 100c58e0     libcpmt:nothrow.obj
 0002:0000ee00       ??_C@_07IPNMCAN@success@   100c5e00     libcpmt:syserror.obj
 0002:0000ee08       ??_C@_0BN@LKKBCCDB@address?5family?5not?5supported@ 100c5e08     libcpmt:syserror.obj
 0002:0000ee28       ??_C@_0P@LDMLAFHI@address?5in?5use@ 100c5e28     libcpmt:syserror.obj
 0002:0000ee38       ??_C@_0BG@DHPCNBJB@address?5not?5available@ 100c5e38     libcpmt:syserror.obj
 0002:0000ee50       ??_C@_0BC@DFIBIBIL@already?5connected@ 100c5e50     libcpmt:syserror.obj
 0002:0000ee64       ??_C@_0BH@CAKOHOMI@argument?5list?5too?5long@ 100c5e64     libcpmt:syserror.obj
 0002:0000ee7c       ??_C@_0BH@CGIMPKIM@argument?5out?5of?5domain@ 100c5e7c     libcpmt:syserror.obj
 0002:0000ee94       ??_C@_0M@KGHGGJGL@bad?5address@ 100c5e94     libcpmt:syserror.obj
 0002:0000eea0       ??_C@_0BE@MPJPGCEO@bad?5file?5descriptor@ 100c5ea0     libcpmt:syserror.obj
 0002:0000eeb4       ??_C@_0M@PMMIEFCP@bad?5message@ 100c5eb4     libcpmt:syserror.obj
 0002:0000eec0       ??_C@_0M@KPHOFDBE@broken?5pipe@ 100c5ec0     libcpmt:syserror.obj
 0002:0000eecc       ??_C@_0BD@MGNDDEGM@connection?5aborted@ 100c5ecc     libcpmt:syserror.obj
 0002:0000eee0       ??_C@_0BP@KAIHPOGN@connection?5already?5in?5progress@ 100c5ee0     libcpmt:syserror.obj
 0002:0000ef00       ??_C@_0BD@PJLIIJEL@connection?5refused@ 100c5f00     libcpmt:syserror.obj
 0002:0000ef14       ??_C@_0BB@IECNJNOI@connection?5reset@ 100c5f14     libcpmt:syserror.obj
 0002:0000ef28       ??_C@_0BC@PPHBOELF@cross?5device?5link@ 100c5f28     libcpmt:syserror.obj
 0002:0000ef3c       ??_C@_0BN@KDMIFEIP@destination?5address?5required@ 100c5f3c     libcpmt:syserror.obj
 0002:0000ef5c       ??_C@_0BE@JIDOCPHM@directory?5not?5empty@ 100c5f5c     libcpmt:syserror.obj
 0002:0000ef70       ??_C@_0BI@BNCLIGPB@executable?5format?5error@ 100c5f70     libcpmt:syserror.obj
 0002:0000ef88       ??_C@_0M@MIDIAGJP@file?5exists@ 100c5f88     libcpmt:syserror.obj
 0002:0000ef94       ??_C@_0P@DNAJLBJK@file?5too?5large@ 100c5f94     libcpmt:syserror.obj
 0002:0000efa4       ??_C@_0BC@EJHOMAAK@filename?5too?5long@ 100c5fa4     libcpmt:syserror.obj
 0002:0000efb8       ??_C@_0BH@KEFGLDAF@function?5not?5supported@ 100c5fb8     libcpmt:syserror.obj
 0002:0000efd0       ??_C@_0BB@DHFDFGDM@host?5unreachable@ 100c5fd0     libcpmt:syserror.obj
 0002:0000efe4       ??_C@_0BD@JPHBMONG@identifier?5removed@ 100c5fe4     libcpmt:syserror.obj
 0002:0000eff8       ??_C@_0BG@CDNPAGJK@illegal?5byte?5sequence@ 100c5ff8     libcpmt:syserror.obj
 0002:0000f010       ??_C@_0CD@BNPLBMNA@inappropriate?5io?5control?5operat@ 100c6010     libcpmt:syserror.obj
 0002:0000f034       ??_C@_0M@EGEKIIMP@interrupted@ 100c6034     libcpmt:syserror.obj
 0002:0000f040       ??_C@_0N@OHAFKDEK@invalid?5seek@ 100c6040     libcpmt:syserror.obj
 0002:0000f050       ??_C@_08GLNPIFBN@io?5error@ 100c6050     libcpmt:syserror.obj
 0002:0000f05c       ??_C@_0P@FLLDBIDK@is?5a?5directory@ 100c605c     libcpmt:syserror.obj
 0002:0000f06c       ??_C@_0N@IFLPBIOP@message?5size@ 100c606c     libcpmt:syserror.obj
 0002:0000f07c       ??_C@_0N@KIIEAAIO@network?5down@ 100c607c     libcpmt:syserror.obj
 0002:0000f08c       ??_C@_0O@FNPDBHEE@network?5reset@ 100c608c     libcpmt:syserror.obj
 0002:0000f09c       ??_C@_0BE@IFNCKGE@network?5unreachable@ 100c609c     libcpmt:syserror.obj
 0002:0000f0b0       ??_C@_0BA@PFFCAOFK@no?5buffer?5space@ 100c60b0     libcpmt:syserror.obj
 0002:0000f0c0       ??_C@_0BB@IEPBLJHK@no?5child?5process@ 100c60c0     libcpmt:syserror.obj
 0002:0000f0d4       ??_C@_07PLECNNKG@no?5link@ 100c60d4     libcpmt:syserror.obj
 0002:0000f0dc       ??_C@_0BC@NJECKMKE@no?5lock?5available@ 100c60dc     libcpmt:syserror.obj
 0002:0000f0f0       ??_C@_0BF@PBGGPKKE@no?5message?5available@ 100c60f0     libcpmt:syserror.obj
 0002:0000f108       ??_C@_0L@EDOLMPAK@no?5message@ 100c6108     libcpmt:syserror.obj
 0002:0000f114       ??_C@_0BD@EAMBFIDF@no?5protocol?5option@ 100c6114     libcpmt:syserror.obj
 0002:0000f128       ??_C@_0BD@IJDJKDEA@no?5space?5on?5device@ 100c6128     libcpmt:syserror.obj
 0002:0000f13c       ??_C@_0BE@MKFDAFMP@no?5stream?5resources@ 100c613c     libcpmt:syserror.obj
 0002:0000f150       ??_C@_0BK@IMCPHCBI@no?5such?5device?5or?5address@ 100c6150     libcpmt:syserror.obj
 0002:0000f16c       ??_C@_0P@FDINDDOK@no?5such?5device@ 100c616c     libcpmt:syserror.obj
 0002:0000f17c       ??_C@_0BK@NDOCBPGE@no?5such?5file?5or?5directory@ 100c617c     libcpmt:syserror.obj
 0002:0000f198       ??_C@_0BA@DOCPFFJG@not?5a?5directory@ 100c6198     libcpmt:syserror.obj
 0002:0000f1a8       ??_C@_0N@POEIPGGF@not?5a?5socket@ 100c61a8     libcpmt:syserror.obj
 0002:0000f1b8       ??_C@_0N@LGAPMMPI@not?5a?5stream@ 100c61b8     libcpmt:syserror.obj
 0002:0000f1c8       ??_C@_0O@GLMIBBEG@not?5connected@ 100c61c8     libcpmt:syserror.obj
 0002:0000f1d8       ??_C@_0O@NHEDABJP@not?5supported@ 100c61d8     libcpmt:syserror.obj
 0002:0000f1e8       ??_C@_0BD@MOLBPMEA@operation?5canceled@ 100c61e8     libcpmt:syserror.obj
 0002:0000f1fc       ??_C@_0BG@KDKHOPCO@operation?5in?5progress@ 100c61fc     libcpmt:syserror.obj
 0002:0000f214       ??_C@_0BI@LNEGIFLN@operation?5not?5supported@ 100c6214     libcpmt:syserror.obj
 0002:0000f22c       ??_C@_0BG@OEMDKMEE@operation?5would?5block@ 100c622c     libcpmt:syserror.obj
 0002:0000f244       ??_C@_0L@BLPOFLNJ@owner?5dead@ 100c6244     libcpmt:syserror.obj
 0002:0000f250       ??_C@_0BC@CIJDGCDI@permission?5denied@ 100c6250     libcpmt:syserror.obj
 0002:0000f264       ??_C@_0P@FNPOCJBE@protocol?5error@ 100c6264     libcpmt:syserror.obj
 0002:0000f274       ??_C@_0BH@JPPPLHJB@protocol?5not?5supported@ 100c6274     libcpmt:syserror.obj
 0002:0000f28c       ??_C@_0BG@EICBIHDP@read?5only?5file?5system@ 100c628c     libcpmt:syserror.obj
 0002:0000f2a4       ??_C@_0BE@GOIPJJHG@result?5out?5of?5range@ 100c62a4     libcpmt:syserror.obj
 0002:0000f2b8       ??_C@_0BG@MPLKFPAE@state?5not?5recoverable@ 100c62b8     libcpmt:syserror.obj
 0002:0000f2d0       ??_C@_0P@DIIFGFCG@stream?5timeout@ 100c62d0     libcpmt:syserror.obj
 0002:0000f2e0       ??_C@_0P@IPFDMIFL@text?5file?5busy@ 100c62e0     libcpmt:syserror.obj
 0002:0000f2f0       ??_C@_09KJPPMAOI@timed?5out@ 100c62f0     libcpmt:syserror.obj
 0002:0000f2fc       ??_C@_0BO@HACHBEKI@too?5many?5files?5open?5in?5system@ 100c62fc     libcpmt:syserror.obj
 0002:0000f31c       ??_C@_0BE@GHAFMPAH@too?5many?5files?5open@ 100c631c     libcpmt:syserror.obj
 0002:0000f330       ??_C@_0P@HCOMKFCC@too?5many?5links@ 100c6330     libcpmt:syserror.obj
 0002:0000f340       ??_C@_0BO@EFGOJEF@too?5many?5symbolic?5link?5levels@ 100c6340     libcpmt:syserror.obj
 0002:0000f360       ??_C@_0BA@KGKGOOJA@value?5too?5large@ 100c6360     libcpmt:syserror.obj
 0002:0000f370       ??_C@_0BE@MIEJDDNH@wrong?5protocol?5type@ 100c6370     libcpmt:syserror.obj
 0002:0000f384       ??_C@_0O@BFJCFAAK@unknown?5error@ 100c6384     libcpmt:syserror.obj
 0002:0000f398       ??_7_Locimp@locale@std@@6B@ 100c6398     libcpmt:locale0.obj
 0002:0000f3a4       ??_C@_01NBENCBCI@?$CK@     100c63a4     libcpmt:locale0.obj
 0002:0000f3a8       ?_BADOFF@std@@3_JB         100c63a8     libcpmt:ios.obj
 0002:0000f404       ??_C@_02GMLFBBN@wb@        100c6404     libcpmt:fiopen.obj
 0002:0000f408       ??_C@_02CBLLGHLK@r?$CL@    100c6408     libcpmt:fiopen.obj
 0002:0000f40c       ??_C@_02CHHAKFFB@w?$CL@    100c640c     libcpmt:fiopen.obj
 0002:0000f410       ??_C@_02DPNLHKJD@a?$CL@    100c6410     libcpmt:fiopen.obj
 0002:0000f414       ??_C@_03HMFOOINA@r?$CLb@   100c6414     libcpmt:fiopen.obj
 0002:0000f418       ??_C@_03ELIABIOC@w?$CLb@   100c6418     libcpmt:fiopen.obj
 0002:0000f41c       ??_C@_03DOPCBAKB@a?$CLb@   100c641c     libcpmt:fiopen.obj
 0002:0000f420       ??_C@_02LGOGKLMG@wx@       100c6420     libcpmt:fiopen.obj
 0002:0000f424       ??_C@_03PLKNOCDJ@w?$CLx@   100c6424     libcpmt:fiopen.obj
 0002:0000f428       ??_C@_03IEOGFEHG@wbx@      100c6428     libcpmt:fiopen.obj
 0002:0000f42c       ??_C@_04KJKJPALC@w?$CLbx@  100c642c     libcpmt:fiopen.obj
 0002:0000f434       ??_C@_1BK@MGMFAEKH@?$AAk?$AAe?$AAr?$AAn?$AAe?$AAl?$AA3?$AA2?$AA?4?$AAd?$AAl?$AAl@ 100c6434     libcpmt:winapisupp.obj
 0002:0000f450       ??_C@_0BP@FPNJPEJC@GetSystemTimePreciseAsFileTime@ 100c6450     libcpmt:winapisupp.obj
 0002:0000f470       ??_C@_0O@NNMIPI@GetTempPath2W@ 100c6470     libcpmt:winapisupp.obj
 0002:0000f580       __xmm@7fffffffffffffff7fffffffffffffff 100c6580     libcpmt:locale.obj
 0002:0000f590       ??_C@_13IMODFHAA@?$AA?9@   100c6590     libcpmt:wlocale.obj
 0002:0000f5a0       __xmm@80000000000000008000000000000000 100c65a0     libcpmt:wlocale.obj
 0002:0000f654       ??_7type_info@@6B@         100c6654     LIBCMT:std_type_info_static.obj
 0002:0000f66c       ___dyn_tls_init_callback   100c666c     LIBCMT:tlsdyn.obj
 0002:0000f678       __pDefaultRawDllMain       100c6678     LIBCMT:dll_dllmain.obj
 0002:0000f678       __pRawDllMain              100c6678     LIBCMT:dll_dllmain.obj
 0002:0000f67c       __pDestructExceptionObject 100c667c     libvcruntime:ehhelpers.obj
 0002:0000f680       __xmm@00000000000000000000000000000000 100c6680     libvcruntime:wcsstr.obj
 0002:0000f694       ??_7bad_exception@std@@6B@ 100c6694     libvcruntime:frame.obj
 0002:0000f69c       ??_C@_0O@DPKOEFFH@bad?5exception@ 100c669c     libvcruntime:frame.obj
 0002:0000fa38       ??_C@_08EHJDFFNH@__based?$CI@ 100c6a38     libvcruntime:undname.obj
 0002:0000fa44       ??_C@_07KOLFKCDI@__cdecl@  100c6a44     libvcruntime:undname.obj
 0002:0000fa4c       ??_C@_09IFJBGAPI@__stdcall@ 100c6a4c     libvcruntime:undname.obj
 0002:0000fa58       ??_C@_0L@NPHFGOKO@__thiscall@ 100c6a58     libvcruntime:undname.obj
 0002:0000fa64       ??_C@_0L@JMKHOMEK@__fastcall@ 100c6a64     libvcruntime:undname.obj
 0002:0000fa70       ??_C@_0N@BCKKPABJ@__vectorcall@ 100c6a70     libvcruntime:undname.obj
 0002:0000fa80       ??_C@_0BA@NAGGFLJK@__preserve_none@ 100c6a80     libvcruntime:undname.obj
 0002:0000fa90       ??_C@_09HIJEGCPM@__clrcall@ 100c6a90     libvcruntime:undname.obj
 0002:0000fa9c       ??_C@_06GHPCKEAG@__eabi@   100c6a9c     libvcruntime:undname.obj
 0002:0000faa4       ??_C@_09IOPIDJLG@__swift_1@ 100c6aa4     libvcruntime:undname.obj
 0002:0000fab0       ??_C@_09KFNFGKHF@__swift_2@ 100c6ab0     libvcruntime:undname.obj
 0002:0000fabc       ??_C@_09LMMOFLDE@__swift_3@ 100c6abc     libvcruntime:undname.obj
 0002:0000fac8       ??_C@_07JOMMBBKO@__ptr64@  100c6ac8     libvcruntime:undname.obj
 0002:0000fad0       ??_C@_0L@PILCLIHE@__restrict@ 100c6ad0     libvcruntime:undname.obj
 0002:0000fadc       ??_C@_0M@GFIIJFMG@__unaligned@ 100c6adc     libvcruntime:undname.obj
 0002:0000fae8       ??_C@_09DHDLOLLB@restrict?$CI@ 100c6ae8     libvcruntime:undname.obj
 0002:0000faf4       ??_C@_04NIHEBCM@?5new@     100c6af4     libvcruntime:undname.obj
 0002:0000fafc       ??_C@_07FPCDHGMM@?5delete@ 100c6afc     libvcruntime:undname.obj
 0002:0000fb04       ??_C@_01NEMOKFLO@?$DN@     100c6b04     libvcruntime:undname.obj
 0002:0000fb08       ??_C@_02GPIOPFAK@?$DO?$DO@ 100c6b08     libvcruntime:undname.obj
 0002:0000fb0c       ??_C@_02FODMEDOG@?$DM?$DM@ 100c6b0c     libvcruntime:undname.obj
 0002:0000fb10       ??_C@_01DCLJPIOD@?$CB@     100c6b10     libvcruntime:undname.obj
 0002:0000fb14       ??_C@_02EGOFBIJA@?$DN?$DN@ 100c6b14     libvcruntime:undname.obj
 0002:0000fb18       ??_C@_02FDNJECIE@?$CB?$DN@ 100c6b18     libvcruntime:undname.obj
 0002:0000fb1c       ??_C@_02GPECMEKF@?$FL?$FN@ 100c6b1c     libvcruntime:undname.obj
 0002:0000fb20       ??_C@_08LHJFAFGD@operator@ 100c6b20     libvcruntime:undname.obj
 0002:0000fb2c       ??_C@_02HBOOOICD@?9?$DO@   100c6b2c     libvcruntime:undname.obj
 0002:0000fb30       ??_C@_02ECNGHCIF@?$CL?$CL@ 100c6b30     libvcruntime:undname.obj
 0002:0000fb34       ??_C@_02BAABKJLB@?9?9@     100c6b34     libvcruntime:undname.obj
 0002:0000fb38       ??_C@_01HNPIGOCE@?$CG@     100c6b38     libvcruntime:undname.obj
 0002:0000fb3c       ??_C@_03MNHNFDLC@?9?$DO?$CK@ 100c6b3c     libvcruntime:undname.obj
 0002:0000fb40       ??_C@_01KMDKNFGN@?1@       100c6b40     libvcruntime:undname.obj
 0002:0000fb44       ??_C@_01FGNFDNOH@?$CF@     100c6b44     libvcruntime:undname.obj
 0002:0000fb48       ??_C@_02EHCHHCKH@?$DM?$DN@ 100c6b48     libvcruntime:undname.obj
 0002:0000fb4c       ??_C@_02EEKDKGMJ@?$DO?$DN@ 100c6b4c     libvcruntime:undname.obj
 0002:0000fb50       ??_C@_01IHBHIGKO@?0@       100c6b50     libvcruntime:undname.obj
 0002:0000fb54       ??_C@_02HCKGKOFO@?$CI?$CJ@ 100c6b54     libvcruntime:undname.obj
 0002:0000fb58       ??_C@_01PJKLJHI@?$HO@      100c6b58     libvcruntime:undname.obj
 0002:0000fb5c       ??_C@_01JKBOJNNK@?$FO@     100c6b5c     libvcruntime:undname.obj
 0002:0000fb60       ??_C@_02PPKAJPJL@?$CG?$CG@ 100c6b60     libvcruntime:undname.obj
 0002:0000fb64       ??_C@_02NONPIBCD@?$HM?$HM@ 100c6b64     libvcruntime:undname.obj
 0002:0000fb68       ??_C@_02FPIMKNGF@?$CK?$DN@ 100c6b68     libvcruntime:undname.obj
 0002:0000fb6c       ??_C@_02FOEOMHFC@?$CL?$DN@ 100c6b6c     libvcruntime:undname.obj
 0002:0000fb70       ??_C@_02FKMDLLOA@?9?$DN@   100c6b70     libvcruntime:undname.obj
 0002:0000fb74       ??_C@_02FJEHGPIO@?1?$DN@   100c6b74     libvcruntime:undname.obj
 0002:0000fb78       ??_C@_02FENAOKFI@?$CF?$DN@ 100c6b78     libvcruntime:undname.obj
 0002:0000fb7c       ??_C@_03IKFCCPFF@?$DO?$DO?$DN@ 100c6b7c     libvcruntime:undname.obj
 0002:0000fb80       ??_C@_03CDNPDDLA@?$DM?$DM?$DN@ 100c6b80     libvcruntime:undname.obj
 0002:0000fb84       ??_C@_02FGJGFEAB@?$CG?$DN@ 100c6b84     libvcruntime:undname.obj
 0002:0000fb88       ??_C@_02DHLNPPGH@?$HM?$DN@ 100c6b88     libvcruntime:undname.obj
 0002:0000fb8c       ??_C@_02MHEGNOJ@?$FO?$DN@  100c6b8c     libvcruntime:undname.obj
 0002:0000fb90       ??_C@_09IFPLHPGF@?$GAvftable?8@ 100c6b90     libvcruntime:undname.obj
 0002:0000fb9c       ??_C@_09BLBHBJP@?$GAvbtable?8@ 100c6b9c     libvcruntime:undname.obj
 0002:0000fba8       ??_C@_07FEEIOKP@?$GAvcall?8@ 100c6ba8     libvcruntime:undname.obj
 0002:0000fbb0       ??_C@_08LLFFHHDJ@?$GAtypeof?8@ 100c6bb0     libvcruntime:undname.obj
 0002:0000fbbc       ??_C@_0BF@KDPPACIK@?$GAlocal?5static?5guard?8@ 100c6bbc     libvcruntime:undname.obj
 0002:0000fbd4       ??_C@_08OBABFOLI@?$GAstring?8@ 100c6bd4     libvcruntime:undname.obj
 0002:0000fbe0       ??_C@_0BD@JDLKDPAB@?$GAvbase?5destructor?8@ 100c6be0     libvcruntime:undname.obj
 0002:0000fbf4       ??_C@_0BN@DEGPLNFK@?$GAvector?5deleting?5destructor?8@ 100c6bf4     libvcruntime:undname.obj
 0002:0000fc14       ??_C@_0BO@OBMKPJIG@?$GAdefault?5constructor?5closure?8@ 100c6c14     libvcruntime:undname.obj
 0002:0000fc34       ??_C@_0BN@IMDCHIKM@?$GAscalar?5deleting?5destructor?8@ 100c6c34     libvcruntime:undname.obj
 0002:0000fc54       ??_C@_0BO@PFGOCPJJ@?$GAvector?5constructor?5iterator?8@ 100c6c54     libvcruntime:undname.obj
 0002:0000fc74       ??_C@_0BN@LFPFMEDL@?$GAvector?5destructor?5iterator?8@ 100c6c74     libvcruntime:undname.obj
 0002:0000fc94       ??_C@_0CE@IKBNEHA@?$GAvector?5vbase?5constructor?5itera@ 100c6c94     libvcruntime:undname.obj
 0002:0000fcb8       ??_C@_0BL@NILFHHPC@?$GAvirtual?5displacement?5map?8@ 100c6cb8     libvcruntime:undname.obj
 0002:0000fcd4       ??_C@_0CB@JONCMFFK@?$GAeh?5vector?5constructor?5iterator@ 100c6cd4     libvcruntime:undname.obj
 0002:0000fcf8       ??_C@_0CA@GCEOPDGL@?$GAeh?5vector?5destructor?5iterator?8@ 100c6cf8     libvcruntime:undname.obj
 0002:0000fd18       ??_C@_0CH@OOJPLCPH@?$GAeh?5vector?5vbase?5constructor?5it@ 100c6d18     libvcruntime:undname.obj
 0002:0000fd40       ??_C@_0BL@LLKPOHJI@?$GAcopy?5constructor?5closure?8@ 100c6d40     libvcruntime:undname.obj
 0002:0000fd5c       ??_C@_0BA@KBCDOMBN@?$GAudt?5returning?8@ 100c6d5c     libvcruntime:undname.obj
 0002:0000fd6c       ??_C@_03KLGMFNMG@?$GAEH@   100c6d6c     libvcruntime:undname.obj
 0002:0000fd70       ??_C@_05KHLCHHI@?$GARTTI@  100c6d70     libvcruntime:undname.obj
 0002:0000fd78       ??_C@_0BA@KKLDJDLB@?$GAlocal?5vftable?8@ 100c6d78     libvcruntime:undname.obj
 0002:0000fd88       ??_C@_0CE@IIHCMGGL@?$GAlocal?5vftable?5constructor?5clos@ 100c6d88     libvcruntime:undname.obj
 0002:0000fdac       ??_C@_06FHBGPFGH@?5new?$FL?$FN@ 100c6dac     libvcruntime:undname.obj
 0002:0000fdb4       ??_C@_09LBNFPBCA@?5delete?$FL?$FN@ 100c6db4     libvcruntime:undname.obj
 0002:0000fdc0       ??_C@_0P@HJKNJFNN@?$GAomni?5callsig?8@ 100c6dc0     libvcruntime:undname.obj
 0002:0000fdd0       ??_C@_0BL@CNOONJFP@?$GAplacement?5delete?5closure?8@ 100c6dd0     libvcruntime:undname.obj
 0002:0000fdec       ??_C@_0BN@CKNJLHMB@?$GAplacement?5delete?$FL?$FN?5closure?8@ 100c6dec     libvcruntime:undname.obj
 0002:0000fe0c       ??_C@_0CG@CFDHKGGD@?$GAmanaged?5vector?5constructor?5ite@ 100c6e0c     libvcruntime:undname.obj
 0002:0000fe34       ??_C@_0CF@IMGKMJNO@?$GAmanaged?5vector?5destructor?5iter@ 100c6e34     libvcruntime:undname.obj
 0002:0000fe5c       ??_C@_0CG@HLDDJMAG@?$GAeh?5vector?5copy?5constructor?5ite@ 100c6e5c     libvcruntime:undname.obj
 0002:0000fe84       ??_C@_0CM@FCBBDIGB@?$GAeh?5vector?5vbase?5copy?5construct@ 100c6e84     libvcruntime:undname.obj
 0002:0000feb0       ??_C@_0BL@CLIPGLGB@?$GAdynamic?5initializer?5for?5?8@ 100c6eb0     libvcruntime:undname.obj
 0002:0000fecc       ??_C@_0CB@PDBIFEP@?$GAdynamic?5atexit?5destructor?5for?5@ 100c6ecc     libvcruntime:undname.obj
 0002:0000fef0       ??_C@_0CD@CGAJBKEJ@?$GAvector?5copy?5constructor?5iterat@ 100c6ef0     libvcruntime:undname.obj
 0002:0000ff14       ??_C@_0CJ@GJELGAMM@?$GAvector?5vbase?5copy?5constructor?5@ 100c6f14     libvcruntime:undname.obj
 0002:0000ff40       ??_C@_0CL@FGIJHLCE@?$GAmanaged?5vector?5copy?5constructo@ 100c6f40     libvcruntime:undname.obj
 0002:0000ff6c       ??_C@_0BM@PMGGMLDN@?$GAlocal?5static?5thread?5guard?8@ 100c6f6c     libvcruntime:undname.obj
 0002:0000ff88       ??_C@_0N@BDNMDMOL@operator?5?$CC?$CC?5@ 100c6f88     libvcruntime:undname.obj
 0002:0000ff98       ??_C@_0BC@GGEBGALA@operator?5co_await@ 100c6f98     libvcruntime:undname.obj
 0002:0000ffac       ??_C@_0M@GAAIMMOH@operator?$DM?$DN?$DO@ 100c6fac     libvcruntime:undname.obj
 0002:0000ffb8       ??_C@_0BC@DAFEJGAK@?5Type?5Descriptor?8@ 100c6fb8     libvcruntime:undname.obj
 0002:0000ffcc       ??_C@_0BM@LDKODKLH@?5Base?5Class?5Descriptor?5at?5?$CI@ 100c6fcc     libvcruntime:undname.obj
 0002:0000ffe8       ??_C@_0BD@LGICGFMM@?5Base?5Class?5Array?8@ 100c6fe8     libvcruntime:undname.obj
 0002:0000fffc       ??_C@_0BN@MECKDCOJ@?5Class?5Hierarchy?5Descriptor?8@ 100c6ffc     libvcruntime:undname.obj
 0002:0001001c       ??_C@_0BK@CFCOFLF@?5Complete?5Object?5Locator?8@ 100c701c     libvcruntime:undname.obj
 0002:00010038       ??_C@_0BG@JNJLAMPM@?$GAanonymous?5namespace?8@ 100c7038     libvcruntime:undname.obj
 0002:0001005c       ??_C@_1DM@KHCHBNEB@?$AAa?$AAp?$AAi?$AA?9?$AAm?$AAs?$AA?9?$AAw?$AAi?$AAn?$AA?9?$AAc?$AAo?$AAr?$AAe@ 100c705c     libvcruntime:winapi_downlevel.obj
 0002:00010098       ??_C@_1DK@LPPGFMPP@?$AAa?$AAp?$AAi?$AA?9?$AAm?$AAs?$AA?9?$AAw?$AAi?$AAn?$AA?9?$AAc?$AAo?$AAr?$AAe@ 100c7098     libvcruntime:winapi_downlevel.obj
 0002:000100d4       ??_C@_1BC@GDMECMAK@?$AAk?$AAe?$AAr?$AAn?$AAe?$AAl?$AA3?$AA2@ 100c70d4     libvcruntime:winapi_downlevel.obj
 0002:000100e8       ??_C@_1BA@PFFKHIOG@?$AAa?$AAp?$AAi?$AA?9?$AAm?$AAs?$AA?9@ 100c70e8     libvcruntime:winapi_downlevel.obj
 0002:00010100       ??_C@_08KNHFBNJ@FlsAlloc@  100c7100     libvcruntime:winapi_downlevel.obj
 0002:00010114       ??_C@_07PEJMOBNF@FlsFree@  100c7114     libvcruntime:winapi_downlevel.obj
 0002:00010124       ??_C@_0M@GDNOONDI@FlsGetValue@ 100c7124     libvcruntime:winapi_downlevel.obj
 0002:00010138       ??_C@_0M@JCPCPOEF@FlsSetValue@ 100c7138     libvcruntime:winapi_downlevel.obj
 0002:0001014c       ??_C@_0BM@HCFOFFN@InitializeCriticalSectionEx@ 100c714c     libvcruntime:winapi_downlevel.obj
 0002:00010168       ?standard_lookup_table_spectre@__crt_stdio_output@@3V?$spectre_mitigated_lookup_table@Ustate_transition_pair@__crt_stdio_output@@$0IA@@1@B 100c7168     libucrt:output.obj
 0002:00010268       ?format_validation_lookup_table_spectre@__crt_stdio_output@@3V?$spectre_mitigated_lookup_table@Ustate_transition_pair@__crt_stdio_output@@$0IA@@1@B 100c7268     libucrt:output.obj
 0002:00010368       ??_C@_1O@CEDCILHN@?$AA?$CI?$AAn?$AAu?$AAl?$AAl?$AA?$CJ@ 100c7368     libucrt:output.obj
 0002:00010378       ?large_power_data@?1??multiply_by_power_of_ten@__crt_strtox@@YA_NAAUbig_integer@2@I@Z@4QBIB 100c7378     libucrt:input.obj
 0002:00010c80       ?large_power_indices@?1??multiply_by_power_of_ten@__crt_strtox@@YA_NAAUbig_integer@2@I@Z@4QBUunpack_index@?1??12@YA_N0I@Z@B 100c7c80     libucrt:input.obj
 0002:00010d18       ?small_powers_of_ten@?1??multiply_by_power_of_ten@__crt_strtox@@YA_NAAUbig_integer@2@I@Z@4QBIB 100c7d18     libucrt:input.obj
 0002:00010d40       ??_C@_1GE@DPGDJKLM@?$AAm?$AAi?$AAn?$AAk?$AAe?$AAr?$AAn?$AAe?$AAl?$AA?2?$AAc?$AAr?$AAt?$AAs?$AA?2@ 100c7d40     libucrt:input.obj
 0002:00010da8       ??_C@_1FM@FELNCOBF@?$AA_?$AA_?$AAc?$AAr?$AAt?$AA_?$AAs?$AAt?$AAr?$AAt?$AAo?$AAx?$AA?3?$AA?3?$AAf@ 100c7da8     libucrt:input.obj
 0002:00010e04       ??_C@_1BG@GEMHBGAF@?$AA_?$AAi?$AAs?$AA_?$AAd?$AAo?$AAu?$AAb?$AAl?$AAe@ 100c7e04     libucrt:input.obj
 0002:00010e20       ??_C@_1FK@JOJELFFO@?$AA_?$AA_?$AAc?$AAr?$AAt?$AA_?$AAs?$AAt?$AAr?$AAt?$AAo?$AAx?$AA?3?$AA?3?$AAf@ 100c7e20     libucrt:input.obj
 0002:00010e7c       ??_C@_1BI@BANMPGJI@?$AA?$CB?$AA_?$AAi?$AAs?$AA_?$AAd?$AAo?$AAu?$AAb?$AAl?$AAe@ 100c7e7c     libucrt:input.obj
 0002:00010e98       ?constraints@?1??is_length_valid@__crt_stdio_input@@YA_NW4conversion_mode@2@W4length_modifier@2@@Z@4QAY0M@$$CBEA 100c7e98     libucrt:input.obj
 0002:00010f10       ?inf_uppercase@?1???$parse_floating_point_possible_infinity@_WV?$input_adapter_character_source@V?$string_input_adapter@_W@__crt_stdio_input@@@__crt_strtox@@_K@__crt_strtox@@YA?AW4floating_point_parse_result@1@AA_WAAV?$input_adapter_character_source@V?$string_input_adapter@_W@__crt_stdio_input@@@1@_K@Z@4QB_WB 100c7f10     libucrt:input.obj
 0002:00010f18       ?inf_lowercase@?1???$parse_floating_point_possible_infinity@_WV?$input_adapter_character_source@V?$string_input_adapter@_W@__crt_stdio_input@@@__crt_strtox@@_K@__crt_strtox@@YA?AW4floating_point_parse_result@1@AA_WAAV?$input_adapter_character_source@V?$string_input_adapter@_W@__crt_stdio_input@@@1@_K@Z@4QB_WB 100c7f18     libucrt:input.obj
 0002:00010f20       ?inity_uppercase@?1???$parse_floating_point_possible_infinity@_WV?$input_adapter_character_source@V?$string_input_adapter@_W@__crt_stdio_input@@@__crt_strtox@@_K@__crt_strtox@@YA?AW4floating_point_parse_result@1@AA_WAAV?$input_adapter_character_source@V?$string_input_adapter@_W@__crt_stdio_input@@@1@_K@Z@4QB_WB 100c7f20     libucrt:input.obj
 0002:00010f2c       ?inity_lowercase@?1???$parse_floating_point_possible_infinity@_WV?$input_adapter_character_source@V?$string_input_adapter@_W@__crt_stdio_input@@@__crt_strtox@@_K@__crt_strtox@@YA?AW4floating_point_parse_result@1@AA_WAAV?$input_adapter_character_source@V?$string_input_adapter@_W@__crt_stdio_input@@@1@_K@Z@4QB_WB 100c7f2c     libucrt:input.obj
 0002:00010f38       ?uppercase@?1???$parse_floating_point_possible_nan@_WV?$input_adapter_character_source@V?$string_input_adapter@_W@__crt_stdio_input@@@__crt_strtox@@_K@__crt_strtox@@YA?AW4floating_point_parse_result@1@AA_WAAV?$input_adapter_character_source@V?$string_input_adapter@_W@__crt_stdio_input@@@1@_K@Z@4QB_WB 100c7f38     libucrt:input.obj
 0002:00010f40       ?lowercase@?1???$parse_floating_point_possible_nan@_WV?$input_adapter_character_source@V?$string_input_adapter@_W@__crt_stdio_input@@@__crt_strtox@@_K@__crt_strtox@@YA?AW4floating_point_parse_result@1@AA_WAAV?$input_adapter_character_source@V?$string_input_adapter@_W@__crt_stdio_input@@@1@_K@Z@4QB_WB 100c7f40     libucrt:input.obj
 0002:00010f48       ?inf_uppercase@?1???$parse_floating_point_possible_infinity@DV?$input_adapter_character_source@V?$string_input_adapter@D@__crt_stdio_input@@@__crt_strtox@@_K@__crt_strtox@@YA?AW4floating_point_parse_result@1@AADAAV?$input_adapter_character_source@V?$string_input_adapter@D@__crt_stdio_input@@@1@_K@Z@4QBDB 100c7f48     libucrt:input.obj
 0002:00010f4c       ?inf_lowercase@?1???$parse_floating_point_possible_infinity@DV?$input_adapter_character_source@V?$string_input_adapter@D@__crt_stdio_input@@@__crt_strtox@@_K@__crt_strtox@@YA?AW4floating_point_parse_result@1@AADAAV?$input_adapter_character_source@V?$string_input_adapter@D@__crt_stdio_input@@@1@_K@Z@4QBDB 100c7f4c     libucrt:input.obj
 0002:00010f50       ?inity_uppercase@?1???$parse_floating_point_possible_infinity@DV?$input_adapter_character_source@V?$string_input_adapter@D@__crt_stdio_input@@@__crt_strtox@@_K@__crt_strtox@@YA?AW4floating_point_parse_result@1@AADAAV?$input_adapter_character_source@V?$string_input_adapter@D@__crt_stdio_input@@@1@_K@Z@4QBDB 100c7f50     libucrt:input.obj
 0002:00010f58       ?inity_lowercase@?1???$parse_floating_point_possible_infinity@DV?$input_adapter_character_source@V?$string_input_adapter@D@__crt_stdio_input@@@__crt_strtox@@_K@__crt_strtox@@YA?AW4floating_point_parse_result@1@AADAAV?$input_adapter_character_source@V?$string_input_adapter@D@__crt_stdio_input@@@1@_K@Z@4QBDB 100c7f58     libucrt:input.obj
 0002:00010f60       ?uppercase@?1???$parse_floating_point_possible_nan@DV?$input_adapter_character_source@V?$string_input_adapter@D@__crt_stdio_input@@@__crt_strtox@@_K@__crt_strtox@@YA?AW4floating_point_parse_result@1@AADAAV?$input_adapter_character_source@V?$string_input_adapter@D@__crt_stdio_input@@@1@_K@Z@4QBDB 100c7f60     libucrt:input.obj
 0002:00010f64       ?lowercase@?1???$parse_floating_point_possible_nan@DV?$input_adapter_character_source@V?$string_input_adapter@D@__crt_stdio_input@@@__crt_strtox@@_K@__crt_strtox@@YA?AW4floating_point_parse_result@1@AADAAV?$input_adapter_character_source@V?$string_input_adapter@D@__crt_stdio_input@@@1@_K@Z@4QBDB 100c7f64     libucrt:input.obj
 0002:00010f68       ?uppercase@?1???$parse_floating_point_possible_nan_is_snan@_WV?$input_adapter_character_source@V?$string_input_adapter@_W@__crt_stdio_input@@@__crt_strtox@@@__crt_strtox@@YA_NAA_WAAV?$input_adapter_character_source@V?$string_input_adapter@_W@__crt_stdio_input@@@1@@Z@4QB_WB 100c7f68     libucrt:input.obj
 0002:00010f74       ?lowercase@?1???$parse_floating_point_possible_nan_is_snan@_WV?$input_adapter_character_source@V?$string_input_adapter@_W@__crt_stdio_input@@@__crt_strtox@@@__crt_strtox@@YA_NAA_WAAV?$input_adapter_character_source@V?$string_input_adapter@_W@__crt_stdio_input@@@1@@Z@4QB_WB 100c7f74     libucrt:input.obj
 0002:00010f80       ?uppercase@?1???$parse_floating_point_possible_nan_is_ind@_WV?$input_adapter_character_source@V?$string_input_adapter@_W@__crt_stdio_input@@@__crt_strtox@@@__crt_strtox@@YA_NAA_WAAV?$input_adapter_character_source@V?$string_input_adapter@_W@__crt_stdio_input@@@1@@Z@4QB_WB 100c7f80     libucrt:input.obj
 0002:00010f88       ?lowercase@?1???$parse_floating_point_possible_nan_is_ind@_WV?$input_adapter_character_source@V?$string_input_adapter@_W@__crt_stdio_input@@@__crt_strtox@@@__crt_strtox@@YA_NAA_WAAV?$input_adapter_character_source@V?$string_input_adapter@_W@__crt_stdio_input@@@1@@Z@4QB_WB 100c7f88     libucrt:input.obj
 0002:00010f90       ?uppercase@?1???$parse_floating_point_possible_nan_is_snan@DV?$input_adapter_character_source@V?$string_input_adapter@D@__crt_stdio_input@@@__crt_strtox@@@__crt_strtox@@YA_NAADAAV?$input_adapter_character_source@V?$string_input_adapter@D@__crt_stdio_input@@@1@@Z@4QBDB 100c7f90     libucrt:input.obj
 0002:00010f98       ?lowercase@?1???$parse_floating_point_possible_nan_is_snan@DV?$input_adapter_character_source@V?$string_input_adapter@D@__crt_stdio_input@@@__crt_strtox@@@__crt_strtox@@YA_NAADAAV?$input_adapter_character_source@V?$string_input_adapter@D@__crt_stdio_input@@@1@@Z@4QBDB 100c7f98     libucrt:input.obj
 0002:00010fa0       ?uppercase@?1???$parse_floating_point_possible_nan_is_ind@DV?$input_adapter_character_source@V?$string_input_adapter@D@__crt_stdio_input@@@__crt_strtox@@@__crt_strtox@@YA_NAADAAV?$input_adapter_character_source@V?$string_input_adapter@D@__crt_stdio_input@@@1@@Z@4QBDB 100c7fa0     libucrt:input.obj
 0002:00010fa4       ?lowercase@?1???$parse_floating_point_possible_nan_is_ind@DV?$input_adapter_character_source@V?$string_input_adapter@D@__crt_stdio_input@@@__crt_strtox@@@__crt_strtox@@YA_NAADAAV?$input_adapter_character_source@V?$string_input_adapter@D@__crt_stdio_input@@@1@@Z@4QBDB 100c7fa4     libucrt:input.obj
 0002:00010fa8       __d_inf                    100c7fa8     libucrt:frexp.obj
 0002:00010fb0       __d_max                    100c7fb0     libucrt:frexp.obj
 0002:00010fb8       __d_mzero                  100c7fb8     libucrt:frexp.obj
 0002:00011030       __OP_FMODjmptab            100c8030     libucrt:87fmod_impl.obj
 0002:00011098       ?inf_uppercase@?1???$parse_floating_point_possible_infinity@DV?$c_string_character_source@D@__crt_strtox@@PBD@__crt_strtox@@YA?AW4floating_point_parse_result@1@AADAAV?$c_string_character_source@D@1@PBD@Z@4QBDB 100c8098     libucrt:atof.obj
 0002:0001109c       ?inf_lowercase@?1???$parse_floating_point_possible_infinity@DV?$c_string_character_source@D@__crt_strtox@@PBD@__crt_strtox@@YA?AW4floating_point_parse_result@1@AADAAV?$c_string_character_source@D@1@PBD@Z@4QBDB 100c809c     libucrt:atof.obj
 0002:000110a0       ?inity_uppercase@?1???$parse_floating_point_possible_infinity@DV?$c_string_character_source@D@__crt_strtox@@PBD@__crt_strtox@@YA?AW4floating_point_parse_result@1@AADAAV?$c_string_character_source@D@1@PBD@Z@4QBDB 100c80a0     libucrt:atof.obj
 0002:000110a8       ?inity_lowercase@?1???$parse_floating_point_possible_infinity@DV?$c_string_character_source@D@__crt_strtox@@PBD@__crt_strtox@@YA?AW4floating_point_parse_result@1@AADAAV?$c_string_character_source@D@1@PBD@Z@4QBDB 100c80a8     libucrt:atof.obj
 0002:000110b0       ?uppercase@?1???$parse_floating_point_possible_nan@DV?$c_string_character_source@D@__crt_strtox@@PBD@__crt_strtox@@YA?AW4floating_point_parse_result@1@AADAAV?$c_string_character_source@D@1@PBD@Z@4QBDB 100c80b0     libucrt:atof.obj
 0002:000110b4       ?lowercase@?1???$parse_floating_point_possible_nan@DV?$c_string_character_source@D@__crt_strtox@@PBD@__crt_strtox@@YA?AW4floating_point_parse_result@1@AADAAV?$c_string_character_source@D@1@PBD@Z@4QBDB 100c80b4     libucrt:atof.obj
 0002:000110b8       ?uppercase@?1???$parse_floating_point_possible_nan_is_snan@DV?$c_string_character_source@D@__crt_strtox@@@__crt_strtox@@YA_NAADAAV?$c_string_character_source@D@1@@Z@4QBDB 100c80b8     libucrt:atof.obj
 0002:000110c0       ?lowercase@?1???$parse_floating_point_possible_nan_is_snan@DV?$c_string_character_source@D@__crt_strtox@@@__crt_strtox@@YA_NAADAAV?$c_string_character_source@D@1@@Z@4QBDB 100c80c0     libucrt:atof.obj
 0002:000110c8       ?uppercase@?1???$parse_floating_point_possible_nan_is_ind@DV?$c_string_character_source@D@__crt_strtox@@@__crt_strtox@@YA_NAADAAV?$c_string_character_source@D@1@@Z@4QBDB 100c80c8     libucrt:atof.obj
 0002:000110cc       ?lowercase@?1???$parse_floating_point_possible_nan_is_ind@DV?$c_string_character_source@D@__crt_strtox@@@__crt_strtox@@YA_NAADAAV?$c_string_character_source@D@1@@Z@4QBDB 100c80cc     libucrt:atof.obj
 0002:000110e4       __half                     100c80e4     libucrt:pow_impl.obj
 0002:000110f0       ___newctype                100c80f0     libucrt:ctype.obj
 0002:000113f0       ___newclmap                100c83f0     libucrt:ctype.obj
 0002:00011570       ___newcumap                100c8570     libucrt:ctype.obj
 0002:000116f0       __wctype                   100c86f0     libucrt:ctype.obj
 0002:00011a60       ___acrt_exception_action_table 100c8a60     libucrt:exception_filter.obj
 0002:00011af0       ___acrt_signal_action_table_count 100c8af0     libucrt:exception_filter.obj
 0002:00011af4       ___acrt_signal_action_first_fpe_index 100c8af4     libucrt:exception_filter.obj
 0002:00011af8       ___acrt_signal_action_fpe_count 100c8af8     libucrt:exception_filter.obj
 0002:00011afc       ??_C@_1BI@BGOHAHKC@?$AAm?$AAs?$AAc?$AAo?$AAr?$AAe?$AAe?$AA?4?$AAd?$AAl?$AAl@ 100c8afc     libucrt:exit.obj
 0002:00011b14       ??_C@_0P@MIGLKIOC@CorExitProcess@ 100c8b14     libucrt:exit.obj
 0002:00011c28       ___lc_category             100c8c28     libucrt:wsetlocale.obj
 0002:00011c70       ??_C@_1O@GIFLHMA@?$AAL?$AAC?$AA_?$AAA?$AAL?$AAL@ 100c8c70     libucrt:wsetlocale.obj
 0002:00011c80       ??_C@_1BG@PPOMIBNJ@?$AAL?$AAC?$AA_?$AAC?$AAO?$AAL?$AAL?$AAA?$AAT?$AAE@ 100c8c80     libucrt:wsetlocale.obj
 0002:00011c98       ??_C@_1BC@FFJGAPJM@?$AAL?$AAC?$AA_?$AAC?$AAT?$AAY?$AAP?$AAE@ 100c8c98     libucrt:wsetlocale.obj
 0002:00011cac       ??_C@_1BI@PCKFNJFB@?$AAL?$AAC?$AA_?$AAM?$AAO?$AAN?$AAE?$AAT?$AAA?$AAR?$AAY@ 100c8cac     libucrt:wsetlocale.obj
 0002:00011cc4       ??_C@_1BG@ENIEDKID@?$AAL?$AAC?$AA_?$AAN?$AAU?$AAM?$AAE?$AAR?$AAI?$AAC@ 100c8cc4     libucrt:wsetlocale.obj
 0002:00011cdc       ??_C@_1BA@HAAOMIIG@?$AAL?$AAC?$AA_?$AAT?$AAI?$AAM?$AAE@ 100c8cdc     libucrt:wsetlocale.obj
 0002:00011cec       ??_C@_15NBPDDFIP@?$AA?$DN?$AA?$DL@ 100c8cec     libucrt:wsetlocale.obj
 0002:00011cf4       ??_C@_13PJJBFPED@?$AA?$DL@ 100c8cf4     libucrt:wsetlocale.obj
 0002:00011cf8       ??_C@_13NMPKAAJP@?$AA?$DN@ 100c8cf8     libucrt:wsetlocale.obj
 0002:00011cfc       ??_C@_17EFJLDFDO@?$AA?9?$AA_?$AA?4@ 100c8cfc     libucrt:wsetlocale.obj
 0002:00011d04       ??_C@_13FHBKNHDA@?$AAC@    100c8d04     libucrt:wsetlocale.obj
 0002:00011d08       ??_C@_17MBJJLFDM@?$AA_?$AA?4?$AA?0@ 100c8d08     libucrt:wsetlocale.obj
 0002:00011d10       ??_C@_13ENNFDPBH@?$AA_@    100c8d10     libucrt:wsetlocale.obj
 0002:00011d14       ??_C@_13JOFGPIOO@?$AA?4@   100c8d14     libucrt:wsetlocale.obj
 0002:00011d18       ___lc_time_c               100c8d18     libucrt:nlsdata.obj
 0002:00011e7c       ??_C@_03KOEHGMDN@Sun@      100c8e7c     libucrt:nlsdata.obj
 0002:00011e80       ??_C@_03PDAGKDH@Mon@       100c8e80     libucrt:nlsdata.obj
 0002:00011e84       ??_C@_03NAGEINEP@Tue@      100c8e84     libucrt:nlsdata.obj
 0002:00011e88       ??_C@_03MHOMLAJA@Wed@      100c8e88     libucrt:nlsdata.obj
 0002:00011e8c       ??_C@_03IOFIKPDN@Thu@      100c8e8c     libucrt:nlsdata.obj
 0002:00011e90       ??_C@_03IDIOELNC@Fri@      100c8e90     libucrt:nlsdata.obj
 0002:00011e94       ??_C@_03FEFJNEK@Sat@       100c8e94     libucrt:nlsdata.obj
 0002:00011e98       ??_C@_06OOPIFAJ@Sunday@    100c8e98     libucrt:nlsdata.obj
 0002:00011ea0       ??_C@_06JLEDEDGH@Monday@   100c8ea0     libucrt:nlsdata.obj
 0002:00011ea8       ??_C@_07BAAGCFCM@Tuesday@  100c8ea8     libucrt:nlsdata.obj
 0002:00011eb0       ??_C@_09DLIGFAKA@Wednesday@ 100c8eb0     libucrt:nlsdata.obj
 0002:00011ebc       ??_C@_08HACCIKIA@Thursday@ 100c8ebc     libucrt:nlsdata.obj
 0002:00011ec8       ??_C@_06JECMNKMI@Friday@   100c8ec8     libucrt:nlsdata.obj
 0002:00011ed0       ??_C@_08INBOOONO@Saturday@ 100c8ed0     libucrt:nlsdata.obj
 0002:00011edc       ??_C@_03JIHJHPIE@Jan@      100c8edc     libucrt:nlsdata.obj
 0002:00011ee0       ??_C@_03HJBDCHOM@Feb@      100c8ee0     libucrt:nlsdata.obj
 0002:00011ee4       ??_C@_03ODNJBKGA@Mar@      100c8ee4     libucrt:nlsdata.obj
 0002:00011ee8       ??_C@_03LEOLGMJP@Apr@      100c8ee8     libucrt:nlsdata.obj
 0002:00011eec       ??_C@_03CNMDKL@May@        100c8eec     libucrt:nlsdata.obj
 0002:00011ef0       ??_C@_03IDFGHECI@Jun@      100c8ef0     libucrt:nlsdata.obj
 0002:00011ef4       ??_C@_03LBGABGKK@Jul@      100c8ef4     libucrt:nlsdata.obj
 0002:00011ef8       ??_C@_03IFJFEIGA@Aug@      100c8ef8     libucrt:nlsdata.obj
 0002:00011efc       ??_C@_03GGCAPAJC@Sep@      100c8efc     libucrt:nlsdata.obj
 0002:00011f00       ??_C@_03BMAOKBAD@Oct@      100c8f00     libucrt:nlsdata.obj
 0002:00011f04       ??_C@_03JPJOFNIA@Nov@      100c8f04     libucrt:nlsdata.obj
 0002:00011f08       ??_C@_03MKABNOCG@Dec@      100c8f08     libucrt:nlsdata.obj
 0002:00011f0c       ??_C@_07CGJPFGJA@January@  100c8f0c     libucrt:nlsdata.obj
 0002:00011f14       ??_C@_08GNJGEPFN@February@ 100c8f14     libucrt:nlsdata.obj
 0002:00011f20       ??_C@_05HPCKOFNC@March@    100c8f20     libucrt:nlsdata.obj
 0002:00011f28       ??_C@_05DMJDNLEJ@April@    100c8f28     libucrt:nlsdata.obj
 0002:00011f30       ??_C@_04CNLMGBGM@June@     100c8f30     libucrt:nlsdata.obj
 0002:00011f38       ??_C@_04MIEPOIFP@July@     100c8f38     libucrt:nlsdata.obj
 0002:00011f40       ??_C@_06LBBHFDDG@August@   100c8f40     libucrt:nlsdata.obj
 0002:00011f48       ??_C@_09BHHEALKD@September@ 100c8f48     libucrt:nlsdata.obj
 0002:00011f54       ??_C@_07JJNFCEND@October@  100c8f54     libucrt:nlsdata.obj
 0002:00011f5c       ??_C@_08HCHEGEOA@November@ 100c8f5c     libucrt:nlsdata.obj
 0002:00011f68       ??_C@_08EDHMEBNP@December@ 100c8f68     libucrt:nlsdata.obj
 0002:00011f74       ??_C@_02DEDBPAFC@AM@       100c8f74     libucrt:nlsdata.obj
 0002:00011f78       ??_C@_02CJNFDJBF@PM@       100c8f78     libucrt:nlsdata.obj
 0002:00011f7c       ??_C@_08BPBNCDIB@MM?1dd?1yy@ 100c8f7c     libucrt:nlsdata.obj
 0002:00011f88       ??_C@_0BE@CKGJFCPC@dddd?0?5MMMM?5dd?0?5yyyy@ 100c8f88     libucrt:nlsdata.obj
 0002:00011f9c       ??_C@_08JCCMCCIL@HH?3mm?3ss@ 100c8f9c     libucrt:nlsdata.obj
 0002:00011fa8       ??_C@_17MBGCMIPB@?$AAS?$AAu?$AAn@ 100c8fa8     libucrt:nlsdata.obj
 0002:00011fb0       ??_C@_17KBOMKBF@?$AAM?$AAo?$AAn@ 100c8fb0     libucrt:nlsdata.obj
 0002:00011fb8       ??_C@_17BMKGEGOJ@?$AAT?$AAu?$AAe@ 100c8fb8     libucrt:nlsdata.obj
 0002:00011fc0       ??_C@_17CJEDCEPE@?$AAW?$AAe?$AAd@ 100c8fc0     libucrt:nlsdata.obj
 0002:00011fc8       ??_C@_17PDPHAADD@?$AAT?$AAh?$AAu@ 100c8fc8     libucrt:nlsdata.obj
 0002:00011fd0       ??_C@_17HFOLPPLP@?$AAF?$AAr?$AAi@ 100c8fd0     libucrt:nlsdata.obj
 0002:00011fd8       ??_C@_17GGIBDPIH@?$AAS?$AAa?$AAt@ 100c8fd8     libucrt:nlsdata.obj
 0002:00011fe0       ??_C@_1O@IHNHDHPB@?$AAS?$AAu?$AAn?$AAd?$AAa?$AAy@ 100c8fe0     libucrt:nlsdata.obj
 0002:00011ff0       ??_C@_1O@MMNBFLIA@?$AAM?$AAo?$AAn?$AAd?$AAa?$AAy@ 100c8ff0     libucrt:nlsdata.obj
 0002:00012000       ??_C@_1BA@ENFBFFEK@?$AAT?$AAu?$AAe?$AAs?$AAd?$AAa?$AAy@ 100c9000     libucrt:nlsdata.obj
 0002:00012010       ??_C@_1BE@EBOGMDOH@?$AAW?$AAe?$AAd?$AAn?$AAe?$AAs?$AAd?$AAa?$AAy@ 100c9010     libucrt:nlsdata.obj
 0002:00012024       ??_C@_1BC@HHMNLIHE@?$AAT?$AAh?$AAu?$AAr?$AAs?$AAd?$AAa?$AAy@ 100c9024     libucrt:nlsdata.obj
 0002:00012038       ??_C@_1O@PDICJHAG@?$AAF?$AAr?$AAi?$AAd?$AAa?$AAy@ 100c9038     libucrt:nlsdata.obj
 0002:00012048       ??_C@_1BC@ENMNNPAJ@?$AAS?$AAa?$AAt?$AAu?$AAr?$AAd?$AAa?$AAy@ 100c9048     libucrt:nlsdata.obj
 0002:0001205c       ??_C@_17DKNBKCHM@?$AAJ?$AAa?$AAn@ 100c905c     libucrt:nlsdata.obj
 0002:00012064       ??_C@_17LMDJEKJN@?$AAF?$AAe?$AAb@ 100c9064     libucrt:nlsdata.obj
 0002:0001206c       ??_C@_17CKNLEDEC@?$AAM?$AAa?$AAr@ 100c906c     libucrt:nlsdata.obj
 0002:00012074       ??_C@_17LFPOIHDD@?$AAA?$AAp?$AAr@ 100c9074     libucrt:nlsdata.obj
 0002:0001207c       ??_C@_17PNNKMEED@?$AAM?$AAa?$AAy@ 100c907c     libucrt:nlsdata.obj
 0002:00012084       ??_C@_17KCJGOCPB@?$AAJ?$AAu?$AAn@ 100c9084     libucrt:nlsdata.obj
 0002:0001208c       ??_C@_17IJPCKHK@?$AAJ?$AAu?$AAl@ 100c908c     libucrt:nlsdata.obj
 0002:00012094       ??_C@_17ICPELBCN@?$AAA?$AAu?$AAg@ 100c9094     libucrt:nlsdata.obj
 0002:0001209c       ??_C@_17HCHCOKMG@?$AAS?$AAe?$AAp@ 100c909c     libucrt:nlsdata.obj
 0002:000120a4       ??_C@_17FNLKOI@?$AAO?$AAc?$AAt@ 100c90a4     libucrt:nlsdata.obj
