 ext_client

 Timestamp is 6a2dadbe (Sat Jun 13 22:21:34 2026)

 Preferred load address is 10000000

 Start         Length     Name                   Class
 0001:00000000 000002e0H .text$di                CODE
 0001:000002e0 000ad9f0H .text$mn                CODE
 0001:000adcd0 000020a0H .text$x                 CODE
 0001:000afd70 00000259H .text$yd                CODE
 0002:00000000 00000324H .idata$5                DATA
 0002:00000324 00000008H .00cfg                  DATA
 0002:0000032c 00000004H .CRT$XCA                DATA
 0002:00000330 0000000cH .CRT$XCC                DATA
 0002:0000033c 00000008H .CRT$XCL                DATA
 0002:00000344 00000054H .CRT$XCU                DATA
 0002:00000398 00000004H .CRT$XCZ                DATA
 0002:0000039c 00000004H .CRT$XDA                DATA
 0002:000003a0 00000004H .CRT$XDZ                DATA
 0002:000003a4 00000004H .CRT$XIA                DATA
 0002:000003a8 00000018H .CRT$XIC                DATA
 0002:000003c0 00000004H .CRT$XIZ                DATA
 0002:000003c4 00000004H .CRT$XLA                DATA
 0002:000003c8 00000004H .CRT$XLC                DATA
 0002:000003cc 00000004H .CRT$XLZ                DATA
 0002:000003d0 00000004H .CRT$XPA                DATA
 0002:000003d4 00000008H .CRT$XPX                DATA
 0002:000003dc 00000004H .CRT$XPXA               DATA
 0002:000003e0 00000004H .CRT$XPZ                DATA
 0002:000003e4 00000004H .CRT$XTA                DATA
 0002:000003e8 00000018H .CRT$XTZ                DATA
 0002:000003ec 00000000H .gfids$y                DATA
 0002:00000400 0001ca40H .rdata                  DATA
 0002:0001ce40 00000000H .rdata$CastGuardVftablesA DATA
 0002:0001ce40 00000000H .rdata$CastGuardVftablesC DATA
 0002:0001ce40 00000018H .rdata$T                DATA
 0002:0001ce58 0000152cH .rdata$r                DATA
 0002:0001e384 000001b8H .rdata$voltmd           DATA
 0002:0001e53c 00000438H .rdata$zzzdbg           DATA
 0002:0001e974 00000004H .rtc$IAA                DATA
 0002:0001e978 00000004H .rtc$IZZ                DATA
 0002:0001e97c 00000004H .rtc$TAA                DATA
 0002:0001e980 00000004H .rtc$TZZ                DATA
 0002:0001e984 00000004H .tls                    DATA
 0002:0001e988 00000018H .tls$                   DATA
 0002:0001e9a0 00000008H .tls$ZZZ                DATA
 0002:0001e9a8 000029dcH .xdata$x                DATA
 0002:00021384 00000000H .edata                  DATA
 0002:00021384 00000064H .idata$2                DATA
 0002:000213e8 00000014H .idata$3                DATA
 0002:000213fc 00000324H .idata$4                DATA
 0002:00021720 00000e48H .idata$6                DATA
 0003:00000000 00001120H .data                   DATA
 0003:00001120 00000818H .data$r                 DATA
 0003:00001938 00001058H .data$rs                DATA
 0003:00002990 00004298H .bss                    DATA
 0004:00000000 00000080H .fptable                DATA
 0005:00000000 00000060H .rsrc$01                DATA
 0005:00000060 00000180H .rsrc$02                DATA

  Address         Publics by Value              Rva+Base       Lib:Object

 0000:00000000       ___AbsoluteZero            00000000     <absolute>
 0000:00000000       ___arm64x_extra_rfe_table  00000000     <absolute>
 0000:00000000       ___arm64x_extra_rfe_table_size 00000000     <absolute>
 0000:00000000       ___arm64x_native_entrypoint 00000000     <absolute>
 0000:00000000       ___arm64x_redirection_metadata 00000000     <absolute>
 0000:00000000       ___arm64x_redirection_metadata_count 00000000     <absolute>
 0000:00000000       ___dynamic_value_reloc_table 00000000     <absolute>
 0000:00000000       ___enclave_config          00000000     <absolute>
 0000:00000000       ___guard_check_icall_a64n_fptr 00000000     <absolute>
 0000:00000000       ___guard_eh_cont_count     00000000     <absolute>
 0000:00000000       ___guard_eh_cont_table     00000000     <absolute>
 0000:00000000       ___guard_fids_count        00000000     <absolute>
 0000:00000000       ___guard_fids_table        00000000     <absolute>
 0000:00000000       ___guard_iat_count         00000000     <absolute>
 0000:00000000       ___guard_iat_table         00000000     <absolute>
 0000:00000000       ___guard_longjmp_count     00000000     <absolute>
 0000:00000000       ___guard_longjmp_table     00000000     <absolute>
 0000:00000000       ___hybrid_auxiliary_delayload_iat 00000000     <absolute>
 0000:00000000       ___hybrid_auxiliary_delayload_iat_copy 00000000     <absolute>
 0000:00000000       ___hybrid_auxiliary_iat    00000000     <absolute>
 0000:00000000       ___hybrid_auxiliary_iat_copy 00000000     <absolute>
 0000:00000000       ___hybrid_code_map         00000000     <absolute>
 0000:00000000       ___hybrid_code_map_count   00000000     <absolute>
 0000:00000000       ___hybrid_image_info_bitfield 00000000     <absolute>
 0000:00000000       ___safe_se_handler_count   00000000     <absolute>
 0000:00000000       ___safe_se_handler_table   00000000     <absolute>
 0000:00000000       ___x64_code_ranges_to_entry_points 00000000     <absolute>
 0000:00000000       ___x64_code_ranges_to_entry_points_count 00000000     <absolute>
 0000:00000000       __except_list              00000000     <absolute>
 0000:0000002c       __tls_array                0000002c     <absolute>
 0000:00000100       ___guard_flags             00000100     <absolute>
 0000:00000000       ___ImageBase               10000000     <linker-defined>
 0001:00000300       _DllMain@12                10001300 f   dllmain.obj
 0001:00000350       ??$sleep_for@_JU?$ratio@$00$0DOI@@std@@@this_thread@std@@YAXABV?$duration@_JU?$ratio@$00$0DOI@@std@@@chrono@1@@Z 10001350 f i ext_client.obj
 0001:00000530       ?apply@?$make_hook@$00XH@utils@ext_client@@QAE_NIP6GXH@Z@Z 10001530 f i ext_client.obj
 0001:00000530       ?apply@?$make_hook@$00XI@utils@ext_client@@QAE_NIP6GXI@Z@Z 10001530 f i ext_client.obj
 0001:00000530       ?apply@?$make_hook@$0A@XPAX@utils@ext_client@@QAE_NIP6IXPAX@Z@Z 10001530 f i ext_client.obj
 0001:00000570       ?cleanup@core@ext_client@@QAEXXZ 10001570 f   ext_client.obj
 0001:00000620       ?get@core@ext_client@@SAAAV12@XZ 10001620 f   ext_client.obj
 0001:00000630       ?get_module@core@ext_client@@QBEPAUHINSTANCE__@@XZ 10001630 f   ext_client.obj
 0001:00000640       ?load@?$_Atomic_storage@_N$00@std@@QBE_NW4memory_order@2@@Z 10001640 f i ext_client.obj
 0001:00000650       ?now@steady_clock@chrono@std@@SA?AV?$time_point@Usteady_clock@chrono@std@@V?$duration@_JU?$ratio@$00$0DLJKMKAA@@std@@@23@@23@XZ 10001650 f i ext_client.obj
 0001:000007d0       ?run@core@ext_client@@QAEXPAUHINSTANCE__@@@Z 100017d0 f   ext_client.obj
 0001:000009b0       ?set_main_thread_id@core@ext_client@@QAEXK@Z 100019b0 f   ext_client.obj
 0001:000009c0       ?store@?$_Atomic_storage@_N$00@std@@QAEX_NW4memory_order@2@@Z 100019c0 f i ext_client.obj
 0001:000009f0       ?tick@core@ext_client@@QAEXXZ 100019f0 f   ext_client.obj
 0001:00000a00       ?apply_detour@utils@ext_client@@YA_NPAD0PAPAD@Z 10001a00 f   hooks.obj
 0001:00000a70       ?hook_lib_init@utils@ext_client@@YA_NXZ 10001a70 f   hooks.obj
 0001:00000aa0       ?hook_lib_shutdown@utils@ext_client@@YA_NXZ 10001aa0 f   hooks.obj
 0001:00000ad0       ?remove_detour@utils@ext_client@@YA_NPAD@Z 10001ad0 f   hooks.obj
 0001:00000b00       ?arm@shutdown_guard@utils@ext_client@@YAXPBD@Z 10001b00 f   shutdown_guard.obj
 0001:00000b40       ?poll@shutdown_guard@utils@ext_client@@YAXXZ 10001b40 f   shutdown_guard.obj
 0001:00000b90       ??$_Destroy_range@V?$allocator@V?$function@$$A6AXXZ@std@@@std@@@std@@YAXPAV?$function@$$A6AXXZ@0@QAV10@AAV?$allocator@V?$function@$$A6AXXZ@std@@@0@@Z 10001b90 f i d3d_hook.obj
 0001:00000bd0       ??$_Emplace_reallocate@V?$function@$$A6AXXZ@std@@@?$vector@V?$function@$$A6AXXZ@std@@V?$allocator@V?$function@$$A6AXXZ@std@@@2@@std@@AAEPAV?$function@$$A6AXXZ@1@QAV21@$$QAV21@@Z 10001bd0 f i d3d_hook.obj
 0001:00000dc0       ??$_Uninitialized_move@PAV?$function@$$A6AXXZ@std@@V?$allocator@V?$function@$$A6AXXZ@std@@@2@@std@@YAPAV?$function@$$A6AXXZ@0@QAV10@0PAV10@AAV?$allocator@V?$function@$$A6AXXZ@std@@@0@@Z 10001dc0 f i d3d_hook.obj
 0001:00000e40       ??0bad_alloc@std@@QAE@ABV01@@Z 10001e40 f i d3d_hook.obj
 0001:00000e80       ??0bad_array_new_length@std@@QAE@ABV01@@Z 10001e80 f i d3d_hook.obj
 0001:00000ec0       ??0bad_array_new_length@std@@QAE@XZ 10001ec0 f i d3d_hook.obj
 0001:00000ee0       ??0exception@std@@QAE@ABV01@@Z 10001ee0 f i d3d_hook.obj
 0001:00000f10       ??1?$function@$$A6A?AW4handler_result@net_manager@ext_client@@AAUpacket_view@23@@Z@std@@QAE@XZ 10001f10 f i net_manager.obj
 0001:00000f10       ??1?$function@$$A6AXXZ@std@@QAE@XZ 10001f10 f i d3d_hook.obj
 0001:00000f40       ??1?$vector@V?$function@$$A6AXXZ@std@@V?$allocator@V?$function@$$A6AXXZ@std@@@2@@std@@QAE@XZ 10001f40 f i d3d_hook.obj
 0001:00000fc0       ??1_Init_once_completer@std@@QAE@XZ 10001fc0 f i d3d_hook.obj
 0001:00000fe0       ??1bad_alloc@std@@UAE@XZ   10001fe0 f i d3d_hook.obj
 0001:00000fe0       ??1bad_array_new_length@std@@UAE@XZ 10001fe0 f i d3d_hook.obj
 0001:00000fe0       ??1bad_exception@std@@UAE@XZ 10001fe0 f i libvcruntime:frame.obj
 0001:00000fe0       ??1bad_function_call@std@@UAE@XZ 10001fe0 f i libcpmt:xthrow.obj
 0001:00000fe0       ??1failure@ios_base@std@@UAE@XZ 10001fe0 f i client_config.obj
 0001:00000fe0       ??1length_error@std@@UAE@XZ 10001fe0 f i libcpmt:xthrow.obj
 0001:00000fe0       ??1out_of_range@std@@UAE@XZ 10001fe0 f i libcpmt:xthrow.obj
 0001:00000fe0       ??1runtime_error@std@@UAE@XZ 10001fe0 f i client_config.obj
 0001:00000fe0       ??1system_error@std@@UAE@XZ 10001fe0 f i client_config.obj
 0001:00001000       ??_Ebad_alloc@std@@UAEPAXI@Z 10002000 f i d3d_hook.obj
 0001:00001000       ??_Ebad_array_new_length@std@@UAEPAXI@Z 10002000 f i d3d_hook.obj
 0001:00001000       ??_Eexception@std@@UAEPAXI@Z 10002000 f i d3d_hook.obj
 0001:00001000       ??_Eruntime_error@std@@UAEPAXI@Z 10002000 f i client_config.obj
 0001:00001000       ??_Gbad_alloc@std@@UAEPAXI@Z 10002000 f i d3d_hook.obj
 0001:00001000       ??_Gbad_array_new_length@std@@UAEPAXI@Z 10002000 f i d3d_hook.obj
 0001:00001000       ??_Gexception@std@@UAEPAXI@Z 10002000 f i d3d_hook.obj
 0001:00001000       ??_Gruntime_error@std@@UAEPAXI@Z 10002000 f i client_config.obj
 0001:00001030       ?_Copy@?$_Func_impl_no_alloc@V<lambda_59909544974d3be07ecadbe172069b22>@@X$$V@std@@EBEPAV?$_Func_base@X$$V@2@PAX@Z 10002030 f i d3d_hook.obj
 0001:00001030       ?_Move@?$_Func_impl_no_alloc@V<lambda_59909544974d3be07ecadbe172069b22>@@X$$V@std@@EAEPAV?$_Func_base@X$$V@2@PAX@Z 10002030 f i d3d_hook.obj
 0001:00001050       ?_Copy@?$_Func_impl_no_alloc@V<lambda_8019bdfe0512b4fe063b74018eb77c39>@@X$$V@std@@EBEPAV?$_Func_base@X$$V@2@PAX@Z 10002050 f i d3d_hook.obj
 0001:00001050       ?_Move@?$_Func_impl_no_alloc@V<lambda_8019bdfe0512b4fe063b74018eb77c39>@@X$$V@std@@EAEPAV?$_Func_base@X$$V@2@PAX@Z 10002050 f i d3d_hook.obj
 0001:00001070       ?_Copy@?$_Func_impl_no_alloc@V<lambda_b04c464536f8b168a4c9ecd89205d2d2>@@X$$V@std@@EBEPAV?$_Func_base@X$$V@2@PAX@Z 10002070 f i d3d_hook.obj
 0001:00001070       ?_Move@?$_Func_impl_no_alloc@V<lambda_b04c464536f8b168a4c9ecd89205d2d2>@@X$$V@std@@EAEPAV?$_Func_base@X$$V@2@PAX@Z 10002070 f i d3d_hook.obj
 0001:00001090       ?_Copy@?$_Func_impl_no_alloc@V<lambda_ee8dfbd253b68aa19b43fb36ec206597>@@X$$V@std@@EBEPAV?$_Func_base@X$$V@2@PAX@Z 10002090 f i d3d_hook.obj
 0001:00001090       ?_Move@?$_Func_impl_no_alloc@V<lambda_ee8dfbd253b68aa19b43fb36ec206597>@@X$$V@std@@EAEPAV?$_Func_base@X$$V@2@PAX@Z 10002090 f i d3d_hook.obj
 0001:000010b0       ?_Delete_this@?$_Func_impl_no_alloc@V<lambda_00dbecd7ce64df782535c75b83b36d9b>@@X$$V@std@@EAEX_N@Z 100020b0 f i quest_hook.obj
 0001:000010b0       ?_Delete_this@?$_Func_impl_no_alloc@V<lambda_05397b0f5f50f30f14183dccbd5f6e17>@@X$$V@std@@EAEX_N@Z 100020b0 f i packet_hook.obj
 0001:000010b0       ?_Delete_this@?$_Func_impl_no_alloc@V<lambda_0753aca32cbf0d54a6a3e7c426e16cb4>@@X$$V@std@@EAEX_N@Z 100020b0 f i version_check_hook.obj
 0001:000010b0       ?_Delete_this@?$_Func_impl_no_alloc@V<lambda_079c22eb3c80a0513874cc5549a2b922>@@X$$V@std@@EAEX_N@Z 100020b0 f i packet_hook.obj
 0001:000010b0       ?_Delete_this@?$_Func_impl_no_alloc@V<lambda_102cef23f42d3c4b8824b1393e54502b>@@X$$V@std@@EAEX_N@Z 100020b0 f i assert_hook.obj
 0001:000010b0       ?_Delete_this@?$_Func_impl_no_alloc@V<lambda_148d939d3f328850d25f1b60d13e1a30>@@X$$V@std@@EAEX_N@Z 100020b0 f i packet_hook.obj
 0001:000010b0       ?_Delete_this@?$_Func_impl_no_alloc@V<lambda_19ea2bfdb895bb65b013e89caf4128fb>@@X$$V@std@@EAEX_N@Z 100020b0 f i version_check_hook.obj
 0001:000010b0       ?_Delete_this@?$_Func_impl_no_alloc@V<lambda_2361990076fc079cb21c0372f92e4945>@@X$$V@std@@EAEX_N@Z 100020b0 f i intro_hook.obj
 0001:000010b0       ?_Delete_this@?$_Func_impl_no_alloc@V<lambda_2b4e874bcc56da08e0b7e4d871685d0b>@@X$$V@std@@EAEX_N@Z 100020b0 f i version_check_hook.obj
 0001:000010b0       ?_Delete_this@?$_Func_impl_no_alloc@V<lambda_31d96936e7aec46c316efa19b922f190>@@X$$V@std@@EAEX_N@Z 100020b0 f i version_check_hook.obj
 0001:000010b0       ?_Delete_this@?$_Func_impl_no_alloc@V<lambda_567523d5fd7dcefcd0bcfc084fe47d8c>@@X$$V@std@@EAEX_N@Z 100020b0 f i interface_hide_hook.obj
 0001:000010b0       ?_Delete_this@?$_Func_impl_no_alloc@V<lambda_59909544974d3be07ecadbe172069b22>@@X$$V@std@@EAEX_N@Z 100020b0 f i d3d_hook.obj
 0001:000010b0       ?_Delete_this@?$_Func_impl_no_alloc@V<lambda_8019bdfe0512b4fe063b74018eb77c39>@@X$$V@std@@EAEX_N@Z 100020b0 f i d3d_hook.obj
 0001:000010b0       ?_Delete_this@?$_Func_impl_no_alloc@V<lambda_8392ef37813845485c1600dec211f7dd>@@X$$V@std@@EAEX_N@Z 100020b0 f i character_select_hook.obj
 0001:000010b0       ?_Delete_this@?$_Func_impl_no_alloc@V<lambda_871a06b5f1626861ab912f565d990cd1>@@X$$V@std@@EAEX_N@Z 100020b0 f i packet_hook.obj
 0001:000010b0       ?_Delete_this@?$_Func_impl_no_alloc@V<lambda_919ba523871a6660731b860850c24c35>@@X$$V@std@@EAEX_N@Z 100020b0 f i title_hook.obj
 0001:000010b0       ?_Delete_this@?$_Func_impl_no_alloc@V<lambda_9c931b08981ab1c8b2118511c7bdace0>@@X$$V@std@@EAEX_N@Z 100020b0 f i version_check_hook.obj
 0001:000010b0       ?_Delete_this@?$_Func_impl_no_alloc@V<lambda_9e54353aa454f7d92a3812adb7bd9804>@@X$$V@std@@EAEX_N@Z 100020b0 f i character_select_hook.obj
 0001:000010b0       ?_Delete_this@?$_Func_impl_no_alloc@V<lambda_a280fd544349889b841fe2b307d35585>@@X$$V@std@@EAEX_N@Z 100020b0 f i interface_hide_hook.obj
 0001:000010b0       ?_Delete_this@?$_Func_impl_no_alloc@V<lambda_a62fe0be53d700e6aed8d3501e17d169>@@X$$V@std@@EAEX_N@Z 100020b0 f i interface_hide_hook.obj
 0001:000010b0       ?_Delete_this@?$_Func_impl_no_alloc@V<lambda_a9ab3610afa722316d9e4be261787542>@@X$$V@std@@EAEX_N@Z 100020b0 f i character_select_hook.obj
 0001:000010b0       ?_Delete_this@?$_Func_impl_no_alloc@V<lambda_b04c464536f8b168a4c9ecd89205d2d2>@@X$$V@std@@EAEX_N@Z 100020b0 f i d3d_hook.obj
 0001:000010b0       ?_Delete_this@?$_Func_impl_no_alloc@V<lambda_c87f17a2cdfaa0e3acdd13ec8caf5dcf>@@X$$V@std@@EAEX_N@Z 100020b0 f i welcome_msg_hook.obj
 0001:000010b0       ?_Delete_this@?$_Func_impl_no_alloc@V<lambda_cf0eba39f8e1eaab3d7f90723a1611a1>@@X$$V@std@@EAEX_N@Z 100020b0 f i sight_range_hook.obj
 0001:000010b0       ?_Delete_this@?$_Func_impl_no_alloc@V<lambda_d5387bcdc0c40a1de130e5b4a363145c>@@X$$V@std@@EAEX_N@Z 100020b0 f i character_select_hook.obj
 0001:000010b0       ?_Delete_this@?$_Func_impl_no_alloc@V<lambda_d808f1789c8518bdbc5271d6edea4e84>@@X$$V@std@@EAEX_N@Z 100020b0 f i packet_hook.obj
 0001:000010b0       ?_Delete_this@?$_Func_impl_no_alloc@V<lambda_dcdab12d9be94e416b0298cb70ec5c72>@@X$$V@std@@EAEX_N@Z 100020b0 f i version_check_hook.obj
 0001:000010b0       ?_Delete_this@?$_Func_impl_no_alloc@V<lambda_ee8dfbd253b68aa19b43fb36ec206597>@@X$$V@std@@EAEX_N@Z 100020b0 f i d3d_hook.obj
 0001:000010b0       ?_Delete_this@?$_Func_impl_no_alloc@V<lambda_faf072030710147a91b256853ea97040>@@X$$V@std@@EAEX_N@Z 100020b0 f i title_hook.obj
 0001:000010d0       ?_Do_call@?$_Func_impl_no_alloc@V<lambda_00dbecd7ce64df782535c75b83b36d9b>@@X$$V@std@@EAEXXZ 100020d0 f i quest_hook.obj
 0001:000010d0       ?_Do_call@?$_Func_impl_no_alloc@V<lambda_05397b0f5f50f30f14183dccbd5f6e17>@@X$$V@std@@EAEXXZ 100020d0 f i packet_hook.obj
 0001:000010d0       ?_Do_call@?$_Func_impl_no_alloc@V<lambda_0753aca32cbf0d54a6a3e7c426e16cb4>@@X$$V@std@@EAEXXZ 100020d0 f i version_check_hook.obj
 0001:000010d0       ?_Do_call@?$_Func_impl_no_alloc@V<lambda_079c22eb3c80a0513874cc5549a2b922>@@X$$V@std@@EAEXXZ 100020d0 f i packet_hook.obj
 0001:000010d0       ?_Do_call@?$_Func_impl_no_alloc@V<lambda_102cef23f42d3c4b8824b1393e54502b>@@X$$V@std@@EAEXXZ 100020d0 f i assert_hook.obj
 0001:000010d0       ?_Do_call@?$_Func_impl_no_alloc@V<lambda_148d939d3f328850d25f1b60d13e1a30>@@X$$V@std@@EAEXXZ 100020d0 f i packet_hook.obj
 0001:000010d0       ?_Do_call@?$_Func_impl_no_alloc@V<lambda_19ea2bfdb895bb65b013e89caf4128fb>@@X$$V@std@@EAEXXZ 100020d0 f i version_check_hook.obj
 0001:000010d0       ?_Do_call@?$_Func_impl_no_alloc@V<lambda_2361990076fc079cb21c0372f92e4945>@@X$$V@std@@EAEXXZ 100020d0 f i intro_hook.obj
 0001:000010d0       ?_Do_call@?$_Func_impl_no_alloc@V<lambda_2b4e874bcc56da08e0b7e4d871685d0b>@@X$$V@std@@EAEXXZ 100020d0 f i version_check_hook.obj
 0001:000010d0       ?_Do_call@?$_Func_impl_no_alloc@V<lambda_31d96936e7aec46c316efa19b922f190>@@X$$V@std@@EAEXXZ 100020d0 f i version_check_hook.obj
 0001:000010d0       ?_Do_call@?$_Func_impl_no_alloc@V<lambda_567523d5fd7dcefcd0bcfc084fe47d8c>@@X$$V@std@@EAEXXZ 100020d0 f i interface_hide_hook.obj
 0001:000010d0       ?_Do_call@?$_Func_impl_no_alloc@V<lambda_59909544974d3be07ecadbe172069b22>@@X$$V@std@@EAEXXZ 100020d0 f i d3d_hook.obj
 0001:000010d0       ?_Do_call@?$_Func_impl_no_alloc@V<lambda_8019bdfe0512b4fe063b74018eb77c39>@@X$$V@std@@EAEXXZ 100020d0 f i d3d_hook.obj
 0001:000010d0       ?_Do_call@?$_Func_impl_no_alloc@V<lambda_8392ef37813845485c1600dec211f7dd>@@X$$V@std@@EAEXXZ 100020d0 f i character_select_hook.obj
 0001:000010d0       ?_Do_call@?$_Func_impl_no_alloc@V<lambda_871a06b5f1626861ab912f565d990cd1>@@X$$V@std@@EAEXXZ 100020d0 f i packet_hook.obj
 0001:000010d0       ?_Do_call@?$_Func_impl_no_alloc@V<lambda_919ba523871a6660731b860850c24c35>@@X$$V@std@@EAEXXZ 100020d0 f i title_hook.obj
 0001:000010d0       ?_Do_call@?$_Func_impl_no_alloc@V<lambda_9c931b08981ab1c8b2118511c7bdace0>@@X$$V@std@@EAEXXZ 100020d0 f i version_check_hook.obj
 0001:000010d0       ?_Do_call@?$_Func_impl_no_alloc@V<lambda_9e54353aa454f7d92a3812adb7bd9804>@@X$$V@std@@EAEXXZ 100020d0 f i character_select_hook.obj
 0001:000010d0       ?_Do_call@?$_Func_impl_no_alloc@V<lambda_a280fd544349889b841fe2b307d35585>@@X$$V@std@@EAEXXZ 100020d0 f i interface_hide_hook.obj
 0001:000010d0       ?_Do_call@?$_Func_impl_no_alloc@V<lambda_a62fe0be53d700e6aed8d3501e17d169>@@X$$V@std@@EAEXXZ 100020d0 f i interface_hide_hook.obj
 0001:000010d0       ?_Do_call@?$_Func_impl_no_alloc@V<lambda_a9ab3610afa722316d9e4be261787542>@@X$$V@std@@EAEXXZ 100020d0 f i character_select_hook.obj
 0001:000010d0       ?_Do_call@?$_Func_impl_no_alloc@V<lambda_b04c464536f8b168a4c9ecd89205d2d2>@@X$$V@std@@EAEXXZ 100020d0 f i d3d_hook.obj
 0001:000010d0       ?_Do_call@?$_Func_impl_no_alloc@V<lambda_c87f17a2cdfaa0e3acdd13ec8caf5dcf>@@X$$V@std@@EAEXXZ 100020d0 f i welcome_msg_hook.obj
 0001:000010d0       ?_Do_call@?$_Func_impl_no_alloc@V<lambda_cf0eba39f8e1eaab3d7f90723a1611a1>@@X$$V@std@@EAEXXZ 100020d0 f i sight_range_hook.obj
 0001:000010d0       ?_Do_call@?$_Func_impl_no_alloc@V<lambda_d5387bcdc0c40a1de130e5b4a363145c>@@X$$V@std@@EAEXXZ 100020d0 f i character_select_hook.obj
 0001:000010d0       ?_Do_call@?$_Func_impl_no_alloc@V<lambda_d808f1789c8518bdbc5271d6edea4e84>@@X$$V@std@@EAEXXZ 100020d0 f i packet_hook.obj
 0001:000010d0       ?_Do_call@?$_Func_impl_no_alloc@V<lambda_dcdab12d9be94e416b0298cb70ec5c72>@@X$$V@std@@EAEXXZ 100020d0 f i version_check_hook.obj
 0001:000010d0       ?_Do_call@?$_Func_impl_no_alloc@V<lambda_ee8dfbd253b68aa19b43fb36ec206597>@@X$$V@std@@EAEXXZ 100020d0 f i d3d_hook.obj
 0001:000010d0       ?_Do_call@?$_Func_impl_no_alloc@V<lambda_faf072030710147a91b256853ea97040>@@X$$V@std@@EAEXXZ 100020d0 f i title_hook.obj
 0001:000010f0       ?_Get@?$_Func_impl_no_alloc@V<lambda_00dbecd7ce64df782535c75b83b36d9b>@@X$$V@std@@EBEPBXXZ 100020f0 f i quest_hook.obj
 0001:000010f0       ?_Get@?$_Func_impl_no_alloc@V<lambda_05397b0f5f50f30f14183dccbd5f6e17>@@X$$V@std@@EBEPBXXZ 100020f0 f i packet_hook.obj
 0001:000010f0       ?_Get@?$_Func_impl_no_alloc@V<lambda_0753aca32cbf0d54a6a3e7c426e16cb4>@@X$$V@std@@EBEPBXXZ 100020f0 f i version_check_hook.obj
 0001:000010f0       ?_Get@?$_Func_impl_no_alloc@V<lambda_079c22eb3c80a0513874cc5549a2b922>@@X$$V@std@@EBEPBXXZ 100020f0 f i packet_hook.obj
 0001:000010f0       ?_Get@?$_Func_impl_no_alloc@V<lambda_102cef23f42d3c4b8824b1393e54502b>@@X$$V@std@@EBEPBXXZ 100020f0 f i assert_hook.obj
 0001:000010f0       ?_Get@?$_Func_impl_no_alloc@V<lambda_148d939d3f328850d25f1b60d13e1a30>@@X$$V@std@@EBEPBXXZ 100020f0 f i packet_hook.obj
 0001:000010f0       ?_Get@?$_Func_impl_no_alloc@V<lambda_19ea2bfdb895bb65b013e89caf4128fb>@@X$$V@std@@EBEPBXXZ 100020f0 f i version_check_hook.obj
 0001:000010f0       ?_Get@?$_Func_impl_no_alloc@V<lambda_2361990076fc079cb21c0372f92e4945>@@X$$V@std@@EBEPBXXZ 100020f0 f i intro_hook.obj
 0001:000010f0       ?_Get@?$_Func_impl_no_alloc@V<lambda_2b4e874bcc56da08e0b7e4d871685d0b>@@X$$V@std@@EBEPBXXZ 100020f0 f i version_check_hook.obj
 0001:000010f0       ?_Get@?$_Func_impl_no_alloc@V<lambda_31d96936e7aec46c316efa19b922f190>@@X$$V@std@@EBEPBXXZ 100020f0 f i version_check_hook.obj
 0001:000010f0       ?_Get@?$_Func_impl_no_alloc@V<lambda_567523d5fd7dcefcd0bcfc084fe47d8c>@@X$$V@std@@EBEPBXXZ 100020f0 f i interface_hide_hook.obj
 0001:000010f0       ?_Get@?$_Func_impl_no_alloc@V<lambda_59909544974d3be07ecadbe172069b22>@@X$$V@std@@EBEPBXXZ 100020f0 f i d3d_hook.obj
 0001:000010f0       ?_Get@?$_Func_impl_no_alloc@V<lambda_8019bdfe0512b4fe063b74018eb77c39>@@X$$V@std@@EBEPBXXZ 100020f0 f i d3d_hook.obj
 0001:000010f0       ?_Get@?$_Func_impl_no_alloc@V<lambda_8392ef37813845485c1600dec211f7dd>@@X$$V@std@@EBEPBXXZ 100020f0 f i character_select_hook.obj
 0001:000010f0       ?_Get@?$_Func_impl_no_alloc@V<lambda_871a06b5f1626861ab912f565d990cd1>@@X$$V@std@@EBEPBXXZ 100020f0 f i packet_hook.obj
 0001:000010f0       ?_Get@?$_Func_impl_no_alloc@V<lambda_919ba523871a6660731b860850c24c35>@@X$$V@std@@EBEPBXXZ 100020f0 f i title_hook.obj
 0001:000010f0       ?_Get@?$_Func_impl_no_alloc@V<lambda_9c931b08981ab1c8b2118511c7bdace0>@@X$$V@std@@EBEPBXXZ 100020f0 f i version_check_hook.obj
 0001:000010f0       ?_Get@?$_Func_impl_no_alloc@V<lambda_9e54353aa454f7d92a3812adb7bd9804>@@X$$V@std@@EBEPBXXZ 100020f0 f i character_select_hook.obj
 0001:000010f0       ?_Get@?$_Func_impl_no_alloc@V<lambda_a280fd544349889b841fe2b307d35585>@@X$$V@std@@EBEPBXXZ 100020f0 f i interface_hide_hook.obj
 0001:000010f0       ?_Get@?$_Func_impl_no_alloc@V<lambda_a62fe0be53d700e6aed8d3501e17d169>@@X$$V@std@@EBEPBXXZ 100020f0 f i interface_hide_hook.obj
 0001:000010f0       ?_Get@?$_Func_impl_no_alloc@V<lambda_a9ab3610afa722316d9e4be261787542>@@X$$V@std@@EBEPBXXZ 100020f0 f i character_select_hook.obj
 0001:000010f0       ?_Get@?$_Func_impl_no_alloc@V<lambda_b04c464536f8b168a4c9ecd89205d2d2>@@X$$V@std@@EBEPBXXZ 100020f0 f i d3d_hook.obj
 0001:000010f0       ?_Get@?$_Func_impl_no_alloc@V<lambda_c87f17a2cdfaa0e3acdd13ec8caf5dcf>@@X$$V@std@@EBEPBXXZ 100020f0 f i welcome_msg_hook.obj
 0001:000010f0       ?_Get@?$_Func_impl_no_alloc@V<lambda_cf0eba39f8e1eaab3d7f90723a1611a1>@@X$$V@std@@EBEPBXXZ 100020f0 f i sight_range_hook.obj
 0001:000010f0       ?_Get@?$_Func_impl_no_alloc@V<lambda_d5387bcdc0c40a1de130e5b4a363145c>@@X$$V@std@@EBEPBXXZ 100020f0 f i character_select_hook.obj
 0001:000010f0       ?_Get@?$_Func_impl_no_alloc@V<lambda_d808f1789c8518bdbc5271d6edea4e84>@@X$$V@std@@EBEPBXXZ 100020f0 f i packet_hook.obj
 0001:000010f0       ?_Get@?$_Func_impl_no_alloc@V<lambda_dcdab12d9be94e416b0298cb70ec5c72>@@X$$V@std@@EBEPBXXZ 100020f0 f i version_check_hook.obj
 0001:000010f0       ?_Get@?$_Func_impl_no_alloc@V<lambda_ee8dfbd253b68aa19b43fb36ec206597>@@X$$V@std@@EBEPBXXZ 100020f0 f i d3d_hook.obj
 0001:000010f0       ?_Get@?$_Func_impl_no_alloc@V<lambda_faf072030710147a91b256853ea97040>@@X$$V@std@@EBEPBXXZ 100020f0 f i title_hook.obj
 0001:00001100       ?_Target_type@?$_Func_impl_no_alloc@V<lambda_59909544974d3be07ecadbe172069b22>@@X$$V@std@@EBEABVtype_info@@XZ 10002100 f i d3d_hook.obj
 0001:00001110       ?_Target_type@?$_Func_impl_no_alloc@V<lambda_8019bdfe0512b4fe063b74018eb77c39>@@X$$V@std@@EBEABVtype_info@@XZ 10002110 f i d3d_hook.obj
 0001:00001120       ?_Target_type@?$_Func_impl_no_alloc@V<lambda_b04c464536f8b168a4c9ecd89205d2d2>@@X$$V@std@@EBEABVtype_info@@XZ 10002120 f i d3d_hook.obj
 0001:00001130       ?_Target_type@?$_Func_impl_no_alloc@V<lambda_ee8dfbd253b68aa19b43fb36ec206597>@@X$$V@std@@EBEABVtype_info@@XZ 10002130 f i d3d_hook.obj
 0001:00001140       ?_Throw_bad_array_new_length@std@@YAXXZ 10002140 f i d3d_hook.obj
 0001:00001140       ?__scrt_throw_std_bad_array_new_length@@YAXXZ 10002140 f i LIBCMT:throw_bad_alloc.obj
 0001:00001160       ?_Xlength@?$vector@EV?$allocator@E@std@@@std@@CAXXZ 10002160 f i packet_hook.obj
 0001:00001160       ?_Xlength@?$vector@PAVcgwnd@@V?$allocator@PAVcgwnd@@@std@@@std@@CAXXZ 10002160 f i widget_inspector.obj
 0001:00001160       ?_Xlength@?$vector@Uentry@net_manager@ext_client@@V?$allocator@Uentry@net_manager@ext_client@@@std@@@std@@CAXXZ 10002160 f i net_manager.obj
 0001:00001160       ?_Xlength@?$vector@Ures_map_entry@cif_manager@ext_client@@V?$allocator@Ures_map_entry@cif_manager@ext_client@@@std@@@std@@CAXXZ 10002160 f i cif_manager.obj
 0001:00001160       ?_Xlength@?$vector@Uwidget_info@cif_manager@ext_client@@V?$allocator@Uwidget_info@cif_manager@ext_client@@@std@@@std@@CAXXZ 10002160 f i widget_inspector.obj
 0001:00001160       ?_Xlength@?$vector@V?$function@$$A6AXXZ@std@@V?$allocator@V?$function@$$A6AXXZ@std@@@2@@std@@CAXXZ 10002160 f i d3d_hook.obj
 0001:00001810       ?install@d3d@hooks@ext_client@@YA_NXZ 10002810 f   d3d_hook.obj
 0001:00001990       ?is_installed@d3d@hooks@ext_client@@YA_NXZ 10002990 f   d3d_hook.obj
 0001:000019b0       ?push_back@?$vector@V?$function@$$A6AXXZ@std@@V?$allocator@V?$function@$$A6AXXZ@std@@@2@@std@@QAEX$$QAV?$function@$$A6AXXZ@2@@Z 100029b0 f i d3d_hook.obj
 0001:00001af0       ?uninstall@d3d@hooks@ext_client@@YAXXZ 10002af0 f   d3d_hook.obj
 0001:00001b50       ?uninstall@hook_group@utils@ext_client@@QAEXXZ 10002b50 f i d3d_hook.obj
 0001:00001ba0       ?what@exception@std@@UBEPBDXZ 10002ba0 f i d3d_hook.obj
 0001:00001c80       ?install_all@manager@hooks@ext_client@@YA_NXZ 10002c80 f   hook_manager.obj
 0001:00001d80       ?tick@manager@hooks@ext_client@@YAXXZ 10002d80 f   hook_manager.obj
 0001:00001d90       ?uninstall_all@manager@hooks@ext_client@@YAXXZ 10002d90 f   hook_manager.obj
 0001:00001dd0       ??$install@V?$make_hook@$01H$$V@utils@ext_client@@P6AHXZ@hook_group@utils@ext_client@@QAE_NAAV?$make_hook@$01H$$V@12@IP6AHXZPBD2@Z 10002dd0 f i version_check_hook.obj
 0001:00001f00       ??1?$vector@EV?$allocator@E@std@@@std@@QAE@XZ 10002f00 f i version_check_hook.obj
 0001:00001f00       ?_Tidy@?$vector@EV?$allocator@E@std@@@std@@AAEXXZ 10002f00 f i version_check_hook.obj
 0001:00001f60       ??_EBitmap@Gdiplus@@UAEPAXI@Z 10002f60 f i version_check_hook.obj
 0001:00001f60       ??_EImage@Gdiplus@@UAEPAXI@Z 10002f60 f i version_check_hook.obj
 0001:00001f60       ??_GBitmap@Gdiplus@@UAEPAXI@Z 10002f60 f i version_check_hook.obj
 0001:00001f60       ??_GImage@Gdiplus@@UAEPAXI@Z 10002f60 f i version_check_hook.obj
 0001:00001fa0       ?Clone@Image@Gdiplus@@UAEPAV12@XZ 10002fa0 f i version_check_hook.obj
 0001:00001ff0       ?_Copy@?$_Func_impl_no_alloc@V<lambda_0753aca32cbf0d54a6a3e7c426e16cb4>@@X$$V@std@@EBEPAV?$_Func_base@X$$V@2@PAX@Z 10002ff0 f i version_check_hook.obj
 0001:00001ff0       ?_Move@?$_Func_impl_no_alloc@V<lambda_0753aca32cbf0d54a6a3e7c426e16cb4>@@X$$V@std@@EAEPAV?$_Func_base@X$$V@2@PAX@Z 10002ff0 f i version_check_hook.obj
 0001:00002010       ?_Copy@?$_Func_impl_no_alloc@V<lambda_19ea2bfdb895bb65b013e89caf4128fb>@@X$$V@std@@EBEPAV?$_Func_base@X$$V@2@PAX@Z 10003010 f i version_check_hook.obj
 0001:00002010       ?_Move@?$_Func_impl_no_alloc@V<lambda_19ea2bfdb895bb65b013e89caf4128fb>@@X$$V@std@@EAEPAV?$_Func_base@X$$V@2@PAX@Z 10003010 f i version_check_hook.obj
 0001:00002030       ?_Copy@?$_Func_impl_no_alloc@V<lambda_2b4e874bcc56da08e0b7e4d871685d0b>@@X$$V@std@@EBEPAV?$_Func_base@X$$V@2@PAX@Z 10003030 f i version_check_hook.obj
 0001:00002030       ?_Move@?$_Func_impl_no_alloc@V<lambda_2b4e874bcc56da08e0b7e4d871685d0b>@@X$$V@std@@EAEPAV?$_Func_base@X$$V@2@PAX@Z 10003030 f i version_check_hook.obj
 0001:00002050       ?_Copy@?$_Func_impl_no_alloc@V<lambda_31d96936e7aec46c316efa19b922f190>@@X$$V@std@@EBEPAV?$_Func_base@X$$V@2@PAX@Z 10003050 f i version_check_hook.obj
 0001:00002050       ?_Move@?$_Func_impl_no_alloc@V<lambda_31d96936e7aec46c316efa19b922f190>@@X$$V@std@@EAEPAV?$_Func_base@X$$V@2@PAX@Z 10003050 f i version_check_hook.obj
 0001:00002070       ?_Copy@?$_Func_impl_no_alloc@V<lambda_9c931b08981ab1c8b2118511c7bdace0>@@X$$V@std@@EBEPAV?$_Func_base@X$$V@2@PAX@Z 10003070 f i version_check_hook.obj
 0001:00002070       ?_Move@?$_Func_impl_no_alloc@V<lambda_9c931b08981ab1c8b2118511c7bdace0>@@X$$V@std@@EAEPAV?$_Func_base@X$$V@2@PAX@Z 10003070 f i version_check_hook.obj
 0001:00002090       ?_Copy@?$_Func_impl_no_alloc@V<lambda_dcdab12d9be94e416b0298cb70ec5c72>@@X$$V@std@@EBEPAV?$_Func_base@X$$V@2@PAX@Z 10003090 f i version_check_hook.obj
 0001:00002090       ?_Move@?$_Func_impl_no_alloc@V<lambda_dcdab12d9be94e416b0298cb70ec5c72>@@X$$V@std@@EAEPAV?$_Func_base@X$$V@2@PAX@Z 10003090 f i version_check_hook.obj
 0001:000020b0       ?_Target_type@?$_Func_impl_no_alloc@V<lambda_0753aca32cbf0d54a6a3e7c426e16cb4>@@X$$V@std@@EBEABVtype_info@@XZ 100030b0 f i version_check_hook.obj
 0001:000020c0       ?_Target_type@?$_Func_impl_no_alloc@V<lambda_19ea2bfdb895bb65b013e89caf4128fb>@@X$$V@std@@EBEABVtype_info@@XZ 100030c0 f i version_check_hook.obj
 0001:000020d0       ?_Target_type@?$_Func_impl_no_alloc@V<lambda_2b4e874bcc56da08e0b7e4d871685d0b>@@X$$V@std@@EBEABVtype_info@@XZ 100030d0 f i version_check_hook.obj
 0001:000020e0       ?_Target_type@?$_Func_impl_no_alloc@V<lambda_31d96936e7aec46c316efa19b922f190>@@X$$V@std@@EBEABVtype_info@@XZ 100030e0 f i version_check_hook.obj
 0001:000020f0       ?_Target_type@?$_Func_impl_no_alloc@V<lambda_9c931b08981ab1c8b2118511c7bdace0>@@X$$V@std@@EBEABVtype_info@@XZ 100030f0 f i version_check_hook.obj
 0001:00002100       ?_Target_type@?$_Func_impl_no_alloc@V<lambda_dcdab12d9be94e416b0298cb70ec5c72>@@X$$V@std@@EBEABVtype_info@@XZ 10003100 f i version_check_hook.obj
 0001:00002110       ??3@YAXPAXUImNewWrapper@@0@Z 10003110 f i imgui.obj
 0001:00002110       ?_Lock@?$basic_streambuf@DU?$char_traits@D@std@@@std@@UAEXXZ 10003110 f i client_config.obj
 0001:00002110       ?_Unlock@?$basic_streambuf@DU?$char_traits@D@std@@@std@@UAEXXZ 10003110 f i client_config.obj
 0001:00002110       ?__empty_global_delete@@YAXPAXI@Z 10003110 f i version_check_hook.obj
 0001:00002110       ?__global_delete@@YAXPAXI@Z 10003110 f i version_check_hook.obj
 0001:00002110       @_guard_check_icall_nop@4  10003110 f i LIBCMT:guard_support.obj
 0001:00002110       _InitializeBuffer          10003110 f i minhook:buffer.obj
 0001:000024c0       ?control_panel@version_check@hooks@ext_client@@YAAAUversion_check_t@settings@config@3@XZ 100034c0 f   version_check_hook.obj
 0001:00002b50       ?deallocate@?$allocator@E@std@@QAEXQAEI@Z 10003b50 f i version_check_hook.obj
 0001:00002ba0       ?install@version_check@hooks@ext_client@@YA_NXZ 10003ba0 f   version_check_hook.obj
 0001:00004200       ?tick@version_check@hooks@ext_client@@YAXXZ 10005200 f   version_check_hook.obj
 0001:00004280       ?uninstall@version_check@hooks@ext_client@@YAXXZ 10005280 f   version_check_hook.obj
 0001:000043c0       ___local_stdio_printf_options 100053c0 f i version_check_hook.obj
 0001:000043d0       _snprintf                  100053d0 f i version_check_hook.obj
 0001:00004920       ?start@loading_splash_overlay@hooks@ext_client@@YA_NPAUHWND__@@ABUconfig@123@@Z 10005920 f   loading_splash_overlay.obj
 0001:00004a10       ?stop@loading_splash_overlay@hooks@ext_client@@YAXXZ 10005a10 f   loading_splash_overlay.obj
 0001:00004cc0       ??1?$basic_string@_WU?$char_traits@_W@std@@V?$allocator@_W@2@@std@@QAE@XZ 10005cc0 f i title_hook.obj
 0001:00004d20       ?_Copy@?$_Func_impl_no_alloc@V<lambda_919ba523871a6660731b860850c24c35>@@X$$V@std@@EBEPAV?$_Func_base@X$$V@2@PAX@Z 10005d20 f i title_hook.obj
 0001:00004d20       ?_Move@?$_Func_impl_no_alloc@V<lambda_919ba523871a6660731b860850c24c35>@@X$$V@std@@EAEPAV?$_Func_base@X$$V@2@PAX@Z 10005d20 f i title_hook.obj
 0001:00004d40       ?_Copy@?$_Func_impl_no_alloc@V<lambda_faf072030710147a91b256853ea97040>@@X$$V@std@@EBEPAV?$_Func_base@X$$V@2@PAX@Z 10005d40 f i title_hook.obj
 0001:00004d40       ?_Move@?$_Func_impl_no_alloc@V<lambda_faf072030710147a91b256853ea97040>@@X$$V@std@@EAEPAV?$_Func_base@X$$V@2@PAX@Z 10005d40 f i title_hook.obj
 0001:00004d60       ?_Target_type@?$_Func_impl_no_alloc@V<lambda_919ba523871a6660731b860850c24c35>@@X$$V@std@@EBEABVtype_info@@XZ 10005d60 f i title_hook.obj
 0001:00004d70       ?_Target_type@?$_Func_impl_no_alloc@V<lambda_faf072030710147a91b256853ea97040>@@X$$V@std@@EBEABVtype_info@@XZ 10005d70 f i title_hook.obj
 0001:00004d80       ?apply_from_control@title@hooks@ext_client@@YAXXZ 10005d80 f   title_hook.obj
 0001:00005520       ?apply_version_label_layout@title@hooks@ext_client@@YAXXZ 10006520 f   title_hook.obj
 0001:000057f0       ?apply_version_labels@title@hooks@ext_client@@YAXXZ 100067f0 f   title_hook.obj
 0001:00005830       ?captured_version_label_count@title@hooks@ext_client@@YAHXZ 10006830 f   title_hook.obj
 0001:00005850       ?control_panel@title@hooks@ext_client@@YAAAUtitle_t@settings@config@3@XZ 10006850 f   title_hook.obj
 0001:00005c00       ?install@title@hooks@ext_client@@YA_NXZ 10006c00 f   title_hook.obj
 0001:000064f0       ?on_set_child_process@title@hooks@ext_client@@YAXHH@Z 100074f0 f   title_hook.obj
 0001:00006700       ?tick@title@hooks@ext_client@@YAXXZ 10007700 f   title_hook.obj
 0001:000067f0       ?uninstall@title@hooks@ext_client@@YAXXZ 100077f0 f   title_hook.obj
 0001:00006bd0       ___local_stdio_scanf_options 10007bd0 f i title_hook.obj
 0001:00006be0       _swscanf_s                 10007be0 f i title_hook.obj
 0001:00006c10       ?apply_eu_frame@title_login_layout@title@hooks@ext_client@@QBE_NPAVcps_title@@PAVcgwnd@@@Z 10007c10 f   title_login_layout.obj
 0001:000070d0       ?load_from_game@title_login_layout@title@hooks@ext_client@@QAE_NPAVcps_title@@@Z 100080d0 f   title_login_layout.obj
 0001:00007500       ?load_named_or_id@title_login_layout@title@hooks@ext_client@@AAE_NPBDHAAUwidget_rect@1234@@Z 10008500 f   title_login_layout.obj
 0001:000077d0       ?_Copy@?$_Func_impl_no_alloc@V<lambda_8392ef37813845485c1600dec211f7dd>@@X$$V@std@@EBEPAV?$_Func_base@X$$V@2@PAX@Z 100087d0 f i character_select_hook.obj
 0001:000077d0       ?_Move@?$_Func_impl_no_alloc@V<lambda_8392ef37813845485c1600dec211f7dd>@@X$$V@std@@EAEPAV?$_Func_base@X$$V@2@PAX@Z 100087d0 f i character_select_hook.obj
 0001:000077f0       ?_Copy@?$_Func_impl_no_alloc@V<lambda_9e54353aa454f7d92a3812adb7bd9804>@@X$$V@std@@EBEPAV?$_Func_base@X$$V@2@PAX@Z 100087f0 f i character_select_hook.obj
 0001:000077f0       ?_Move@?$_Func_impl_no_alloc@V<lambda_9e54353aa454f7d92a3812adb7bd9804>@@X$$V@std@@EAEPAV?$_Func_base@X$$V@2@PAX@Z 100087f0 f i character_select_hook.obj
 0001:00007810       ?_Copy@?$_Func_impl_no_alloc@V<lambda_a9ab3610afa722316d9e4be261787542>@@X$$V@std@@EBEPAV?$_Func_base@X$$V@2@PAX@Z 10008810 f i character_select_hook.obj
 0001:00007810       ?_Move@?$_Func_impl_no_alloc@V<lambda_a9ab3610afa722316d9e4be261787542>@@X$$V@std@@EAEPAV?$_Func_base@X$$V@2@PAX@Z 10008810 f i character_select_hook.obj
 0001:00007830       ?_Copy@?$_Func_impl_no_alloc@V<lambda_d5387bcdc0c40a1de130e5b4a363145c>@@X$$V@std@@EBEPAV?$_Func_base@X$$V@2@PAX@Z 10008830 f i character_select_hook.obj
 0001:00007830       ?_Move@?$_Func_impl_no_alloc@V<lambda_d5387bcdc0c40a1de130e5b4a363145c>@@X$$V@std@@EAEPAV?$_Func_base@X$$V@2@PAX@Z 10008830 f i character_select_hook.obj
 0001:00007850       ?_Target_type@?$_Func_impl_no_alloc@V<lambda_8392ef37813845485c1600dec211f7dd>@@X$$V@std@@EBEABVtype_info@@XZ 10008850 f i character_select_hook.obj
 0001:00007860       ?_Target_type@?$_Func_impl_no_alloc@V<lambda_9e54353aa454f7d92a3812adb7bd9804>@@X$$V@std@@EBEABVtype_info@@XZ 10008860 f i character_select_hook.obj
 0001:00007870       ?_Target_type@?$_Func_impl_no_alloc@V<lambda_a9ab3610afa722316d9e4be261787542>@@X$$V@std@@EBEABVtype_info@@XZ 10008870 f i character_select_hook.obj
 0001:00007880       ?_Target_type@?$_Func_impl_no_alloc@V<lambda_d5387bcdc0c40a1de130e5b4a363145c>@@X$$V@std@@EBEABVtype_info@@XZ 10008880 f i character_select_hook.obj
 0001:00007fd0       ?install@character_select@hooks@ext_client@@YA_NXZ 10008fd0 f   character_select_hook.obj
 0001:000084d0       ?uninstall@character_select@hooks@ext_client@@YAXXZ 100094d0 f   character_select_hook.obj
 0001:00008810       _swprintf_s                10009810 f i character_select_hook.obj
 0001:00008840       ??$_Allocate_at_least_helper@V?$allocator@E@std@@@std@@YAPAEAAV?$allocator@E@0@AAI@Z 10009840 f i packet_hook.obj
 0001:000088a0       ??$_Assign_counted_range@PBE@?$vector@EV?$allocator@E@std@@@std@@AAEXPBEI@Z 100098a0 f i packet_hook.obj
 0001:000089f0       ??0?$lock_guard@Vmutex@std@@@std@@QAE@AAVmutex@1@@Z 100099f0 f i packet_hook.obj
 0001:00008a30       ??1?$basic_string@DU?$char_traits@D@std@@V?$allocator@D@2@@std@@QAE@XZ 10009a30 f i packet_hook.obj
 0001:00008a30       ?_Tidy_deallocate@?$basic_string@DU?$char_traits@D@std@@V?$allocator@D@2@@std@@AAEXXZ 10009a30 f i packet_hook.obj
 0001:00008a90       ??1?$lock_guard@Vmutex@std@@@std@@QAE@XZ 10009a90 f i packet_hook.obj
 0001:00008aa0       ??4?$vector@EV?$allocator@E@std@@@std@@QAEAAV01@$$QAV01@@Z 10009aa0 f i packet_hook.obj
 0001:00008ae0       ?_Copy@?$_Func_impl_no_alloc@V<lambda_05397b0f5f50f30f14183dccbd5f6e17>@@X$$V@std@@EBEPAV?$_Func_base@X$$V@2@PAX@Z 10009ae0 f i packet_hook.obj
 0001:00008ae0       ?_Move@?$_Func_impl_no_alloc@V<lambda_05397b0f5f50f30f14183dccbd5f6e17>@@X$$V@std@@EAEPAV?$_Func_base@X$$V@2@PAX@Z 10009ae0 f i packet_hook.obj
 0001:00008b00       ?_Copy@?$_Func_impl_no_alloc@V<lambda_079c22eb3c80a0513874cc5549a2b922>@@X$$V@std@@EBEPAV?$_Func_base@X$$V@2@PAX@Z 10009b00 f i packet_hook.obj
 0001:00008b00       ?_Move@?$_Func_impl_no_alloc@V<lambda_079c22eb3c80a0513874cc5549a2b922>@@X$$V@std@@EAEPAV?$_Func_base@X$$V@2@PAX@Z 10009b00 f i packet_hook.obj
 0001:00008b20       ?_Copy@?$_Func_impl_no_alloc@V<lambda_148d939d3f328850d25f1b60d13e1a30>@@X$$V@std@@EBEPAV?$_Func_base@X$$V@2@PAX@Z 10009b20 f i packet_hook.obj
 0001:00008b20       ?_Move@?$_Func_impl_no_alloc@V<lambda_148d939d3f328850d25f1b60d13e1a30>@@X$$V@std@@EAEPAV?$_Func_base@X$$V@2@PAX@Z 10009b20 f i packet_hook.obj
 0001:00008b40       ?_Copy@?$_Func_impl_no_alloc@V<lambda_871a06b5f1626861ab912f565d990cd1>@@X$$V@std@@EBEPAV?$_Func_base@X$$V@2@PAX@Z 10009b40 f i packet_hook.obj
 0001:00008b40       ?_Move@?$_Func_impl_no_alloc@V<lambda_871a06b5f1626861ab912f565d990cd1>@@X$$V@std@@EAEPAV?$_Func_base@X$$V@2@PAX@Z 10009b40 f i packet_hook.obj
 0001:00008b60       ?_Copy@?$_Func_impl_no_alloc@V<lambda_d808f1789c8518bdbc5271d6edea4e84>@@X$$V@std@@EBEPAV?$_Func_base@X$$V@2@PAX@Z 10009b60 f i packet_hook.obj
 0001:00008b60       ?_Move@?$_Func_impl_no_alloc@V<lambda_d808f1789c8518bdbc5271d6edea4e84>@@X$$V@std@@EAEPAV?$_Func_base@X$$V@2@PAX@Z 10009b60 f i packet_hook.obj
 0001:00008b80       ?_Target_type@?$_Func_impl_no_alloc@V<lambda_05397b0f5f50f30f14183dccbd5f6e17>@@X$$V@std@@EBEABVtype_info@@XZ 10009b80 f i packet_hook.obj
 0001:00008b90       ?_Target_type@?$_Func_impl_no_alloc@V<lambda_079c22eb3c80a0513874cc5549a2b922>@@X$$V@std@@EBEABVtype_info@@XZ 10009b90 f i packet_hook.obj
 0001:00008ba0       ?_Target_type@?$_Func_impl_no_alloc@V<lambda_148d939d3f328850d25f1b60d13e1a30>@@X$$V@std@@EBEABVtype_info@@XZ 10009ba0 f i packet_hook.obj
 0001:00008bb0       ?_Target_type@?$_Func_impl_no_alloc@V<lambda_871a06b5f1626861ab912f565d990cd1>@@X$$V@std@@EBEABVtype_info@@XZ 10009bb0 f i packet_hook.obj
 0001:00008bc0       ?_Target_type@?$_Func_impl_no_alloc@V<lambda_d808f1789c8518bdbc5271d6edea4e84>@@X$$V@std@@EBEABVtype_info@@XZ 10009bc0 f i packet_hook.obj
 0001:00008e40       ?clear_overrides@packet@hooks@ext_client@@YAXXZ 10009e40 f   packet_hook.obj
 0001:00008f80       ?control_panel@packet@hooks@ext_client@@YAAAUpacket_t@settings@config@3@XZ 10009f80 f   packet_hook.obj
 0001:00009100       ?install@packet@hooks@ext_client@@YA_NXZ 1000a100 f   packet_hook.obj
 0001:00009670       ?set_incoming_override@packet@hooks@ext_client@@YAXGPBEI_N@Z 1000a670 f   packet_hook.obj
 0001:00009750       ?set_outgoing_override@packet@hooks@ext_client@@YAXGPBEI_N@Z 1000a750 f   packet_hook.obj
 0001:00009980       ?uninstall@packet@hooks@ext_client@@YAXXZ 1000a980 f   packet_hook.obj
 0001:000099a0       ?_Copy@?$_Func_impl_no_alloc@V<lambda_567523d5fd7dcefcd0bcfc084fe47d8c>@@X$$V@std@@EBEPAV?$_Func_base@X$$V@2@PAX@Z 1000a9a0 f i interface_hide_hook.obj
 0001:000099a0       ?_Move@?$_Func_impl_no_alloc@V<lambda_567523d5fd7dcefcd0bcfc084fe47d8c>@@X$$V@std@@EAEPAV?$_Func_base@X$$V@2@PAX@Z 1000a9a0 f i interface_hide_hook.obj
 0001:000099c0       ?_Copy@?$_Func_impl_no_alloc@V<lambda_a280fd544349889b841fe2b307d35585>@@X$$V@std@@EBEPAV?$_Func_base@X$$V@2@PAX@Z 1000a9c0 f i interface_hide_hook.obj
 0001:000099c0       ?_Move@?$_Func_impl_no_alloc@V<lambda_a280fd544349889b841fe2b307d35585>@@X$$V@std@@EAEPAV?$_Func_base@X$$V@2@PAX@Z 1000a9c0 f i interface_hide_hook.obj
 0001:000099e0       ?_Copy@?$_Func_impl_no_alloc@V<lambda_a62fe0be53d700e6aed8d3501e17d169>@@X$$V@std@@EBEPAV?$_Func_base@X$$V@2@PAX@Z 1000a9e0 f i interface_hide_hook.obj
 0001:000099e0       ?_Move@?$_Func_impl_no_alloc@V<lambda_a62fe0be53d700e6aed8d3501e17d169>@@X$$V@std@@EAEPAV?$_Func_base@X$$V@2@PAX@Z 1000a9e0 f i interface_hide_hook.obj
 0001:00009a00       ?_Target_type@?$_Func_impl_no_alloc@V<lambda_567523d5fd7dcefcd0bcfc084fe47d8c>@@X$$V@std@@EBEABVtype_info@@XZ 1000aa00 f i interface_hide_hook.obj
 0001:00009a10       ?_Target_type@?$_Func_impl_no_alloc@V<lambda_a280fd544349889b841fe2b307d35585>@@X$$V@std@@EBEABVtype_info@@XZ 1000aa10 f i interface_hide_hook.obj
 0001:00009a20       ?_Target_type@?$_Func_impl_no_alloc@V<lambda_a62fe0be53d700e6aed8d3501e17d169>@@X$$V@std@@EBEABVtype_info@@XZ 1000aa20 f i interface_hide_hook.obj
 0001:00009a30       ?apply_from_control@interface_hide@hooks@ext_client@@YAXXZ 1000aa30 f   interface_hide_hook.obj
 0001:00009c50       ?control_panel@interface_hide@hooks@ext_client@@YAAAUinterface_hide_t@settings@config@3@XZ 1000ac50 f   interface_hide_hook.obj
 0001:00009c60       ?install@interface_hide@hooks@ext_client@@YA_NXZ 1000ac60 f   interface_hide_hook.obj
 0001:00009f00       ?tick@interface_hide@hooks@ext_client@@YAXXZ 1000af00 f   interface_hide_hook.obj
 0001:0000a040       ?uninstall@interface_hide@hooks@ext_client@@YAXXZ 1000b040 f   interface_hide_hook.obj
 0001:0000a070       ??$_Allocate_for_capacity@$0A@@?$basic_string@_WU?$char_traits@_W@std@@V?$allocator@_W@2@@std@@CAPA_WAAV?$allocator@_W@1@AAI@Z 1000b070 f i welcome_msg_hook.obj
 0001:0000a0e0       ?_Copy@?$_Func_impl_no_alloc@V<lambda_c87f17a2cdfaa0e3acdd13ec8caf5dcf>@@X$$V@std@@EBEPAV?$_Func_base@X$$V@2@PAX@Z 1000b0e0 f i welcome_msg_hook.obj
 0001:0000a0e0       ?_Move@?$_Func_impl_no_alloc@V<lambda_c87f17a2cdfaa0e3acdd13ec8caf5dcf>@@X$$V@std@@EAEPAV?$_Func_base@X$$V@2@PAX@Z 1000b0e0 f i welcome_msg_hook.obj
 0001:0000a100       ?_Target_type@?$_Func_impl_no_alloc@V<lambda_c87f17a2cdfaa0e3acdd13ec8caf5dcf>@@X$$V@std@@EBEABVtype_info@@XZ 1000b100 f i welcome_msg_hook.obj
 0001:0000a110       ?_Xlen_string@std@@YAXXZ   1000b110 f i welcome_msg_hook.obj
 0001:0000a120       ?install@welcome_msg@hooks@ext_client@@YA_NXZ 1000b120 f   welcome_msg_hook.obj
 0001:0000a5d0       ?uninstall@welcome_msg@hooks@ext_client@@YAXXZ 1000b5d0 f   welcome_msg_hook.obj
 0001:0000a5e0       ?_Copy@?$_Func_impl_no_alloc@V<lambda_cf0eba39f8e1eaab3d7f90723a1611a1>@@X$$V@std@@EBEPAV?$_Func_base@X$$V@2@PAX@Z 1000b5e0 f i sight_range_hook.obj
 0001:0000a5e0       ?_Move@?$_Func_impl_no_alloc@V<lambda_cf0eba39f8e1eaab3d7f90723a1611a1>@@X$$V@std@@EAEPAV?$_Func_base@X$$V@2@PAX@Z 1000b5e0 f i sight_range_hook.obj
 0001:0000a600       ?_Target_type@?$_Func_impl_no_alloc@V<lambda_cf0eba39f8e1eaab3d7f90723a1611a1>@@X$$V@std@@EBEABVtype_info@@XZ 1000b600 f i sight_range_hook.obj
 0001:0000a610       ?apply_settings@sight_range@hooks@ext_client@@YAXXZ 1000b610 f   sight_range_hook.obj
 0001:0000a730       ?install@sight_range@hooks@ext_client@@YA_NXZ 1000b730 f   sight_range_hook.obj
 0001:0000a9f0       ?uninstall@sight_range@hooks@ext_client@@YAXXZ 1000b9f0 f   sight_range_hook.obj
 0001:0000aa00       ?_Copy@?$_Func_impl_no_alloc@V<lambda_2361990076fc079cb21c0372f92e4945>@@X$$V@std@@EBEPAV?$_Func_base@X$$V@2@PAX@Z 1000ba00 f i intro_hook.obj
 0001:0000aa00       ?_Move@?$_Func_impl_no_alloc@V<lambda_2361990076fc079cb21c0372f92e4945>@@X$$V@std@@EAEPAV?$_Func_base@X$$V@2@PAX@Z 1000ba00 f i intro_hook.obj
 0001:0000aa20       ?_Target_type@?$_Func_impl_no_alloc@V<lambda_2361990076fc079cb21c0372f92e4945>@@X$$V@std@@EBEABVtype_info@@XZ 1000ba20 f i intro_hook.obj
 0001:0000aa30       ?install@intro@hooks@ext_client@@YA_NXZ 1000ba30 f   intro_hook.obj
 0001:0000ac50       ?uninstall@intro@hooks@ext_client@@YAXXZ 1000bc50 f   intro_hook.obj
 0001:0000ac70       ?_Copy@?$_Func_impl_no_alloc@V<lambda_00dbecd7ce64df782535c75b83b36d9b>@@X$$V@std@@EBEPAV?$_Func_base@X$$V@2@PAX@Z 1000bc70 f i quest_hook.obj
 0001:0000ac70       ?_Move@?$_Func_impl_no_alloc@V<lambda_00dbecd7ce64df782535c75b83b36d9b>@@X$$V@std@@EAEPAV?$_Func_base@X$$V@2@PAX@Z 1000bc70 f i quest_hook.obj
 0001:0000ac90       ?_Target_type@?$_Func_impl_no_alloc@V<lambda_00dbecd7ce64df782535c75b83b36d9b>@@X$$V@std@@EBEABVtype_info@@XZ 1000bc90 f i quest_hook.obj
 0001:0000acd0       ?install@quest@hooks@ext_client@@YA_NXZ 1000bcd0 f   quest_hook.obj
 0001:0000ae50       ?uninstall@quest@hooks@ext_client@@YAXXZ 1000be50 f   quest_hook.obj
 0001:0000ae60       ?_Copy@?$_Func_impl_no_alloc@V<lambda_102cef23f42d3c4b8824b1393e54502b>@@X$$V@std@@EBEPAV?$_Func_base@X$$V@2@PAX@Z 1000be60 f i assert_hook.obj
 0001:0000ae60       ?_Move@?$_Func_impl_no_alloc@V<lambda_102cef23f42d3c4b8824b1393e54502b>@@X$$V@std@@EAEPAV?$_Func_base@X$$V@2@PAX@Z 1000be60 f i assert_hook.obj
 0001:0000ae80       ?_Target_type@?$_Func_impl_no_alloc@V<lambda_102cef23f42d3c4b8824b1393e54502b>@@X$$V@std@@EBEABVtype_info@@XZ 1000be80 f i assert_hook.obj
 0001:0000aef0       ?install@assertion@hooks@ext_client@@YA_NXZ 1000bef0 f   assert_hook.obj
 0001:0000b070       ?uninstall@assertion@hooks@ext_client@@YAXXZ 1000c070 f   assert_hook.obj
 0001:0000b080       ??$_Allocate_at_least_helper@V?$allocator@Uentry@net_manager@ext_client@@@std@@@std@@YAPAUentry@net_manager@ext_client@@AAV?$allocator@Uentry@net_manager@ext_client@@@0@AAI@Z 1000c080 f i net_manager.obj
 0001:0000b0f0       ??$_Allocate_for_capacity@$0A@@?$basic_string@DU?$char_traits@D@std@@V?$allocator@D@2@@std@@CAPADAAV?$allocator@D@1@AAI@Z 1000c0f0 f i net_manager.obj
 0001:0000b160       ??$_Construct@$00PBD@?$basic_string@DU?$char_traits@D@std@@V?$allocator@D@2@@std@@AAEXQBDI@Z 1000c160 f i net_manager.obj
 0001:0000b1f0       ??$_Construct_n@ABQAUentry@net_manager@ext_client@@ABQAU123@@?$vector@Uentry@net_manager@ext_client@@V?$allocator@Uentry@net_manager@ext_client@@@std@@@std@@AAEXIABQAUentry@net_manager@ext_client@@0@Z 1000c1f0 f i net_manager.obj
 0001:0000b3f0       ??$_Emplace_one_at_back@E@?$vector@EV?$allocator@E@std@@@std@@AAEAAE$$QAE@Z 1000c3f0 f i net_manager.obj
 0001:0000b520       ??$_Emplace_reallocate@Uentry@net_manager@ext_client@@@?$vector@Uentry@net_manager@ext_client@@V?$allocator@Uentry@net_manager@ext_client@@@std@@@std@@AAEPAUentry@net_manager@ext_client@@QAU234@$$QAU234@@Z 1000c520 f i net_manager.obj
 0001:0000b8f0       ??$_Uninitialized_move@PAUentry@net_manager@ext_client@@V?$allocator@Uentry@net_manager@ext_client@@@std@@@std@@YAPAUentry@net_manager@ext_client@@QAU123@0PAU123@AAV?$allocator@Uentry@net_manager@ext_client@@@0@@Z 1000c8f0 f i net_manager.obj
 0001:0000b980       ??$construct@Uentry@net_manager@ext_client@@U123@@?$_Default_allocator_traits@V?$allocator@Uentry@net_manager@ext_client@@@std@@@std@@SAXAAV?$allocator@Uentry@net_manager@ext_client@@@1@QAUentry@net_manager@ext_client@@$$QAU345@@Z 1000c980 f i net_manager.obj
 0001:0000b9f0       ??0?$basic_string@DU?$char_traits@D@std@@V?$allocator@D@2@@std@@QAE@QBD@Z 1000c9f0 f i net_manager.obj
 0001:0000bab0       ??1?$_Tidy_guard@V?$vector@Uentry@net_manager@ext_client@@V?$allocator@Uentry@net_manager@ext_client@@@std@@@std@@@std@@QAE@XZ 1000cab0 f i net_manager.obj
 0001:0000bac0       ??1?$_Uninitialized_backout_al@V?$allocator@Uentry@net_manager@ext_client@@@std@@@std@@QAE@XZ 1000cac0 f i net_manager.obj
 0001:0000baf0       ??1?$vector@Uentry@net_manager@ext_client@@V?$allocator@Uentry@net_manager@ext_client@@@std@@@std@@QAE@XZ 1000caf0 f i net_manager.obj
 0001:0000bb80       ??1entry@net_manager@ext_client@@QAE@XZ 1000cb80 f i net_manager.obj
 0001:0000bc20       ?_Tidy@?$vector@Uentry@net_manager@ext_client@@V?$allocator@Uentry@net_manager@ext_client@@@std@@@std@@AAEXXZ 1000cc20 f i net_manager.obj
 0001:0000be20       ?append@?$basic_string@DU?$char_traits@D@std@@V?$allocator@D@2@@std@@QAEAAV12@QBDI@Z 1000ce20 f i net_manager.obj
 0001:0000bf90       ?clear_log@net_manager@ext_client@@YAXXZ 1000cf90 f   net_manager.obj
 0001:0000c010       ?control_panel@net_manager@ext_client@@YAAAUnet_manager_t@settings@config@2@XZ 1000d010 f   net_manager.obj
 0001:0000c020       ?dispatch_incoming@net_manager@ext_client@@YA?AW4handler_result@12@PAVcmsg_stream_buffer@@@Z 1000d020 f   net_manager.obj
 0001:0000c0f0       ?dispatch_outgoing@net_manager@ext_client@@YA?AW4handler_result@12@PAVcmsg_stream_buffer@@@Z 1000d0f0 f   net_manager.obj
 0001:0000c1c0       ?format_hex@net_manager@ext_client@@YA?AV?$basic_string@DU?$char_traits@D@std@@V?$allocator@D@2@@std@@ABV?$vector@EV?$allocator@E@std@@@4@I@Z 1000d1c0 f   net_manager.obj
 0001:0000c510       ?format_layer@net_manager@ext_client@@YAPBDW4packet_layer@12@@Z 1000d510 f   net_manager.obj
 0001:0000c530       ?format_opcode@net_manager@ext_client@@YA?AV?$basic_string@DU?$char_traits@D@std@@V?$allocator@D@2@@std@@G@Z 1000d530 f   net_manager.obj
 0001:0000c600       ?opcode_in_list@net_manager@ext_client@@YA_NGPBD@Z 1000d600 f   net_manager.obj
 0001:0000c680       ?parse_hex@net_manager@ext_client@@YA_NPBDAAV?$vector@EV?$allocator@E@std@@@std@@@Z 1000d680 f   net_manager.obj
 0001:0000c790       ?push_back@?$basic_string@DU?$char_traits@D@std@@V?$allocator@D@2@@std@@QAEXD@Z 1000d790 f i net_manager.obj
 0001:0000cd60       ?record_cmsg_incoming@net_manager@ext_client@@YAXPAVcmsg@@_N1G@Z 1000dd60 f   net_manager.obj
 0001:0000cdc0       ?record_cmsg_outgoing@net_manager@ext_client@@YAXPAVcmsg@@_N1G@Z 1000ddc0 f   net_manager.obj
 0001:0000ce20       ?record_incoming@net_manager@ext_client@@YAXPAVcmsg_stream_buffer@@_N1G@Z 1000de20 f   net_manager.obj
 0001:0000ce70       ?record_outgoing@net_manager@ext_client@@YAXPAVcmsg_stream_buffer@@_N1G@Z 1000de70 f   net_manager.obj
 0001:0000cec0       ?register_handlers@net_manager@ext_client@@YAXXZ 1000dec0 f   net_manager.obj
 0001:0000cf80       ?reserve@?$basic_string@DU?$char_traits@D@std@@V?$allocator@D@2@@std@@QAEXI@Z 1000df80 f i net_manager.obj
 0001:0000d0f0       ?send@net_manager@ext_client@@YAXGABV?$vector@EV?$allocator@E@std@@@std@@@Z 1000e0f0 f   net_manager.obj
 0001:0000d180       ?should_block_opcode@net_manager@ext_client@@YA_NG@Z 1000e180 f   net_manager.obj
 0001:0000d210       ?shutdown@net_manager@ext_client@@YAXXZ 1000e210 f   net_manager.obj
 0001:0000d310       ?snapshot@net_manager@ext_client@@YA?AV?$vector@Uentry@net_manager@ext_client@@V?$allocator@Uentry@net_manager@ext_client@@@std@@@std@@XZ 1000e310 f   net_manager.obj
 0001:0000d3e0       _fprintf                   1000e3e0 f i net_manager.obj
 0001:0000d410       ??0net_msg@net_manager@ext_client@@QAE@G@Z 1000e410 f   net_msg.obj
 0001:0000d450       ??1net_msg@net_manager@ext_client@@QAE@XZ 1000e450 f   net_msg.obj
 0001:0000d4a0       ?send@net_msg@net_manager@ext_client@@QAEXXZ 1000e4a0 f   net_msg.obj
 0001:0000d510       ?write_bytes@net_msg@net_manager@ext_client@@QAEAAV123@PBXI@Z 1000e510 f   net_msg.obj
 0001:0000d550       ?append@?$basic_string@DU?$char_traits@D@std@@V?$allocator@D@2@@std@@QAEAAV12@ID@Z 1000e550 f i cmsg_stream_buffer.obj
 0001:0000d6c0       ?construct@cmsg_stream_buffer@@SAPAV1@PAV1@G@Z 1000e6c0 f   cmsg_stream_buffer.obj
 0001:0000d6e0       ?destroy@cmsg_stream_buffer@@QAEXXZ 1000e6e0 f   cmsg_stream_buffer.obj
 0001:0000d6f0       ?extract_payload@cmsg_stream_buffer@@QBE?AV?$vector@EV?$allocator@E@std@@@std@@XZ 1000e6f0 f   cmsg_stream_buffer.obj
 0001:0000d840       ?opcode@cmsg_stream_buffer@@QBEGXZ 1000e840 f   cmsg_stream_buffer.obj
 0001:0000d850       ?payload_size@cmsg_stream_buffer@@QBEIXZ 1000e850 f   cmsg_stream_buffer.obj
 0001:0000d860       ?replace_payload@cmsg_stream_buffer@@QAE_NPBEI@Z 1000e860 f   cmsg_stream_buffer.obj
 0001:0000d8c0       ?toggle_after@cmsg_stream_buffer@@QAEXXZ 1000e8c0 f   cmsg_stream_buffer.obj
 0001:0000d8e0       ?toggle_before@cmsg_stream_buffer@@QAEXXZ 1000e8e0 f   cmsg_stream_buffer.obj
 0001:0000d900       ?write_bytes@cmsg_stream_buffer@@QAEXPBXI@Z 1000e900 f   cmsg_stream_buffer.obj
 0001:0000d920       ?body_size@cmsg@@QBEIXZ    1000e920 f   cmsg.obj
 0001:0000d940       ?extract_payload@cmsg@@QBE?AV?$vector@EV?$allocator@E@std@@@std@@XZ 1000e940 f   cmsg.obj
 0001:0000da50       ?header_opcode@cmsg@@QBEGXZ 1000ea50 f   cmsg.obj
 0001:0000da60       ?is_encrypted@cmsg@@QBE_NXZ 1000ea60 f   cmsg.obj
 0001:0000da80       ?opcode@cmsg@@QBEGXZ       1000ea80 f   cmsg.obj
 0001:0000daa0       ?send_from_buffer@cmsg@@SAXPAVcmsg_stream_buffer@@@Z 1000eaa0 f   cmsg.obj
 0001:0000dac0       ??$?0PAD$0A@@?$basic_string@DU?$char_traits@D@std@@V?$allocator@D@2@@std@@QAE@PAD0ABV?$allocator@D@1@@Z 1000eac0 f i packet_inspector.obj
 0001:0000db80       ??$_Allocate_at_least_helper@V?$allocator@Ures_map_entry@cif_manager@ext_client@@@std@@@std@@YAPAUres_map_entry@cif_manager@ext_client@@AAV?$allocator@Ures_map_entry@cif_manager@ext_client@@@0@AAI@Z 1000eb80 f   cif_manager.obj
 0001:0000e620       ??$_UIntegral_to_buff@DI@std@@YAPADPADI@Z 1000f620 f i packet_inspector.obj
 0001:0000e680       ??1?$vector@Ures_map_entry@cif_manager@ext_client@@V?$allocator@Ures_map_entry@cif_manager@ext_client@@@std@@@std@@QAE@XZ 1000f680 f   widget_inspector.obj
 0001:0000eb00       ?draw@packet_inspector@menu@ext_client@@YAXXZ 1000fb00 f   packet_inspector.obj
 0001:0000fe20       _sscanf                    10010e20 f i packet_inspector.obj
 0001:0000fe50       ?log_init@utils@ext_client@@YAXXZ 10010e50 f   log.obj
 0001:0000ff10       ?log_msg@utils@ext_client@@YAXPBDZZ 10010f10 f   log.obj
 0001:0000ffb0       _printf                    10010fb0 f i log.obj
 0001:0000ffe0       ??$?6U?$char_traits@D@std@@@std@@YAAAV?$basic_ostream@DU?$char_traits@D@std@@@0@AAV10@PBD@Z 10010fe0 f i client_config.obj
 0001:00010280       ??$_Fput_v3@$0A@@?$num_put@DV?$ostreambuf_iterator@DU?$char_traits@D@std@@@std@@@std@@ABE?AV?$ostreambuf_iterator@DU?$char_traits@D@std@@@1@V21@AAVios_base@1@DPBDI_N@Z 10011280 f i client_config.obj
 0001:00010680       ??$_Fputc@D@std@@YA_NDPAU_iobuf@@@Z 10011680 f i client_config.obj
 0001:000106a0       ??$getline@DU?$char_traits@D@std@@V?$allocator@D@2@@std@@YAAAV?$basic_istream@DU?$char_traits@D@std@@@0@$$QAV10@AAV?$basic_string@DU?$char_traits@D@std@@V?$allocator@D@2@@0@D@Z 100116a0 f i client_config.obj
 0001:000108a0       ??$use_facet@V?$codecvt@DDU_Mbstatet@@@std@@@std@@YAABV?$codecvt@DDU_Mbstatet@@@0@ABVlocale@0@@Z 100118a0 f i client_config.obj
 0001:00010a10       ??$use_facet@V?$ctype@D@std@@@std@@YAABV?$ctype@D@0@ABVlocale@0@@Z 10011a10 f i client_config.obj
 0001:00010ba0       ??$use_facet@V?$num_put@DV?$ostreambuf_iterator@DU?$char_traits@D@std@@@std@@@std@@@std@@YAABV?$num_put@DV?$ostreambuf_iterator@DU?$char_traits@D@std@@@std@@@0@ABVlocale@0@@Z 10011ba0 f i client_config.obj
 0001:00010d10       ??$use_facet@V?$numpunct@D@std@@@std@@YAABV?$numpunct@D@0@ABVlocale@0@@Z 10011d10 f i client_config.obj
 0001:00010f40       ??0?$basic_filebuf@DU?$char_traits@D@std@@@std@@QAE@XZ 10011f40 f i client_config.obj
 0001:00011090       ??0?$basic_ifstream@DU?$char_traits@D@std@@@std@@QAE@PBDHH@Z 10012090 f i client_config.obj
 0001:000111e0       ??0?$basic_ios@DU?$char_traits@D@std@@@std@@IAE@XZ 100121e0 f i client_config.obj
 0001:00011260       ??0?$basic_string@DU?$char_traits@D@std@@V?$allocator@D@2@@std@@QAE@ABV01@@Z 10012260 f i client_config.obj
 0001:00011310       ??0?$basic_string@DU?$char_traits@D@std@@V?$allocator@D@2@@std@@QAE@ID@Z 10012310 f i client_config.obj
 0001:000113c0       ??0_Locinfo@std@@QAE@PBD@Z 100123c0 f i client_config.obj
 0001:00011470       ??0_System_error@std@@IAE@Verror_code@1@ABV?$basic_string@DU?$char_traits@D@std@@V?$allocator@D@2@@1@@Z 10012470 f i client_config.obj
 0001:00011690       ??0_System_error@std@@QAE@ABV01@@Z 10012690 f i client_config.obj
 0001:000116e0       ??0exception@std@@QAE@QBD@Z 100126e0 f i client_config.obj
 0001:00011720       ??0failure@ios_base@std@@QAE@ABV012@@Z 10012720 f i client_config.obj
 0001:00011770       ??0failure@ios_base@std@@QAE@PBDABVerror_code@2@@Z 10012770 f i client_config.obj
 0001:00011860       ??0runtime_error@std@@QAE@ABV01@@Z 10012860 f i client_config.obj
 0001:000118a0       ??0sentry@?$basic_ostream@DU?$char_traits@D@std@@@std@@QAE@AAV12@@Z 100128a0 f i client_config.obj
 0001:00011940       ??0settings@config@ext_client@@QAE@XZ 10012940 f i client_config.obj
 0001:00011cc0       ??0system_error@std@@QAE@ABV01@@Z 10012cc0 f i client_config.obj
 0001:00011d10       ??1?$_Tidy_guard@V?$numpunct@D@std@@@std@@QAE@XZ 10012d10 f i client_config.obj
 0001:00011d40       ??1?$_Yarn@D@std@@QAE@XZ   10012d40 f i client_config.obj
 0001:00011d40       ??1?$_Yarn@_W@std@@QAE@XZ  10012d40 f i client_config.obj
 0001:00011d40       ?_Tidy@?$_Yarn@D@std@@AAEXXZ 10012d40 f i client_config.obj
 0001:00011d60       ??1?$basic_filebuf@DU?$char_traits@D@std@@@std@@UAE@XZ 10012d60 f i client_config.obj
 0001:00011eb0       ??1?$basic_ios@DU?$char_traits@D@std@@@std@@UAE@XZ 10012eb0 f i client_config.obj
 0001:00011f00       ??1?$basic_istream@DU?$char_traits@D@std@@@std@@UAE@XZ 10012f00 f i client_config.obj
 0001:00011f20       ??1?$basic_ostream@DU?$char_traits@D@std@@@std@@UAE@XZ 10012f20 f i client_config.obj
 0001:00011f40       ??1?$unique_ptr@V_Facet_base@std@@U?$default_delete@V_Facet_base@std@@@2@@std@@QAE@XZ 10012f40 f i client_config.obj
 0001:00011f50       ??1_Locinfo@std@@QAE@XZ    10012f50 f i client_config.obj
 0001:00012030       ??1_Sentry_base@?$basic_istream@DU?$char_traits@D@std@@@std@@QAE@XZ 10013030 f i client_config.obj
 0001:00012030       ??1_Sentry_base@?$basic_ostream@DU?$char_traits@D@std@@@std@@QAE@XZ 10013030 f i client_config.obj
 0001:00012080       ??1facet@locale@std@@MAE@XZ 10013080 f i client_config.obj
 0001:00012090       ??1locale@std@@QAE@XZ      10013090 f i client_config.obj
 0001:000120b0       ??1sentry@?$basic_istream@DU?$char_traits@D@std@@@std@@QAE@XZ 100130b0 f i client_config.obj
 0001:00012110       ??1sentry@?$basic_ostream@DU?$char_traits@D@std@@@std@@QAE@XZ 10013110 f i client_config.obj
 0001:00012180       ??6?$basic_ostream@DU?$char_traits@D@std@@@std@@QAEAAV01@G@Z 10013180 f i client_config.obj
 0001:00012330       ??6?$basic_ostream@DU?$char_traits@D@std@@@std@@QAEAAV01@H@Z 10013330 f i client_config.obj
 0001:000124e0       ??6?$basic_ostream@DU?$char_traits@D@std@@@std@@QAEAAV01@I@Z 100134e0 f i client_config.obj
 0001:00012690       ??_D?$basic_ifstream@DU?$char_traits@D@std@@@std@@QAEXXZ 10013690 f i client_config.obj
 0001:00012720       ??_D?$basic_ofstream@DU?$char_traits@D@std@@@std@@QAEXXZ 10013720 f i client_config.obj
 0001:000127af       ??_E?$basic_ifstream@DU?$char_traits@D@std@@@std@@$4PPPPPPPM@A@AEPAXI@Z 100137af f i client_config.obj
 0001:000127b7       ??_E?$basic_istream@DU?$char_traits@D@std@@@std@@$4PPPPPPPM@A@AEPAXI@Z 100137b7 f i client_config.obj
 0001:000127bf       ??_E?$basic_ofstream@DU?$char_traits@D@std@@@std@@$4PPPPPPPM@A@AEPAXI@Z 100137bf f i client_config.obj
 0001:000127c7       ??_E?$basic_ostream@DU?$char_traits@D@std@@@std@@$4PPPPPPPM@A@AEPAXI@Z 100137c7 f i client_config.obj
 0001:000127d0       ??_E?$basic_filebuf@DU?$char_traits@D@std@@@std@@UAEPAXI@Z 100137d0 f i client_config.obj
 0001:000127d0       ??_G?$basic_filebuf@DU?$char_traits@D@std@@@std@@UAEPAXI@Z 100137d0 f i client_config.obj
 0001:00012800       ??_E?$basic_ifstream@DU?$char_traits@D@std@@@std@@UAEPAXI@Z 10013800 f i client_config.obj
 0001:00012800       ??_G?$basic_ifstream@DU?$char_traits@D@std@@@std@@UAEPAXI@Z 10013800 f i client_config.obj
 0001:00012830       ??_E?$basic_ios@DU?$char_traits@D@std@@@std@@UAEPAXI@Z 10013830 f i client_config.obj
 0001:00012830       ??_G?$basic_ios@DU?$char_traits@D@std@@@std@@UAEPAXI@Z 10013830 f i client_config.obj
 0001:000128a0       ??_E?$basic_istream@DU?$char_traits@D@std@@@std@@UAEPAXI@Z 100138a0 f i client_config.obj
 0001:000128a0       ??_G?$basic_istream@DU?$char_traits@D@std@@@std@@UAEPAXI@Z 100138a0 f i client_config.obj
 0001:00012930       ??_E?$basic_ofstream@DU?$char_traits@D@std@@@std@@UAEPAXI@Z 10013930 f i client_config.obj
 0001:00012930       ??_G?$basic_ofstream@DU?$char_traits@D@std@@@std@@UAEPAXI@Z 10013930 f i client_config.obj
 0001:00012960       ??_E?$basic_ostream@DU?$char_traits@D@std@@@std@@UAEPAXI@Z 10013960 f i client_config.obj
 0001:00012960       ??_G?$basic_ostream@DU?$char_traits@D@std@@@std@@UAEPAXI@Z 10013960 f i client_config.obj
 0001:000129f0       ??_E?$basic_streambuf@DU?$char_traits@D@std@@@std@@UAEPAXI@Z 100139f0 f i client_config.obj
 0001:000129f0       ??_G?$basic_streambuf@DU?$char_traits@D@std@@@std@@UAEPAXI@Z 100139f0 f i client_config.obj
 0001:00012a40       ??_E?$codecvt@DDU_Mbstatet@@@std@@MAEPAXI@Z 10013a40 f i client_config.obj
 0001:00012a40       ??_E?$num_put@DV?$ostreambuf_iterator@DU?$char_traits@D@std@@@std@@@std@@MAEPAXI@Z 10013a40 f i client_config.obj
 0001:00012a40       ??_G?$codecvt@DDU_Mbstatet@@@std@@MAEPAXI@Z 10013a40 f i client_config.obj
 0001:00012a40       ??_G?$num_put@DV?$ostreambuf_iterator@DU?$char_traits@D@std@@@std@@@std@@MAEPAXI@Z 10013a40 f i client_config.obj
 0001:00012a70       ??_E?$ctype@D@std@@MAEPAXI@Z 10013a70 f i client_config.obj
 0001:00012a70       ??_G?$ctype@D@std@@MAEPAXI@Z 10013a70 f i client_config.obj
 0001:00012ad0       ??_E?$numpunct@D@std@@MAEPAXI@Z 10013ad0 f i client_config.obj
 0001:00012ad0       ??_G?$numpunct@D@std@@MAEPAXI@Z 10013ad0 f i client_config.obj
 0001:00012b20       ??_E_Facet_base@std@@UAEPAXI@Z 10013b20 f i client_config.obj
 0001:00012b20       ??_G_Facet_base@std@@UAEPAXI@Z 10013b20 f i client_config.obj
 0001:00012b50       ??_E_Iostream_error_category2@std@@UAEPAXI@Z 10013b50 f i client_config.obj
 0001:00012b50       ??_G_Iostream_error_category2@std@@UAEPAXI@Z 10013b50 f i client_config.obj
 0001:00012b70       ??_E_System_error@std@@UAEPAXI@Z 10013b70 f i client_config.obj
 0001:00012b70       ??_Efailure@ios_base@std@@UAEPAXI@Z 10013b70 f i client_config.obj
 0001:00012b70       ??_Esystem_error@std@@UAEPAXI@Z 10013b70 f i client_config.obj
 0001:00012b70       ??_G_System_error@std@@UAEPAXI@Z 10013b70 f i client_config.obj
 0001:00012b70       ??_Gfailure@ios_base@std@@UAEPAXI@Z 10013b70 f i client_config.obj
 0001:00012b70       ??_Gsystem_error@std@@UAEPAXI@Z 10013b70 f i client_config.obj
 0001:00012ba0       ??_Eios_base@std@@UAEPAXI@Z 10013ba0 f i client_config.obj
 0001:00012ba0       ??_Gios_base@std@@UAEPAXI@Z 10013ba0 f i client_config.obj
 0001:00012c10       ?_Decref@facet@locale@std@@UAEPAV_Facet_base@3@XZ 10013c10 f i client_config.obj
 0001:00012c30       ?_Endwrite@?$basic_filebuf@DU?$char_traits@D@std@@@std@@IAE_NXZ 10013c30 f i client_config.obj
 0001:00012d00       ?_Ffmt@?$num_put@DV?$ostreambuf_iterator@DU?$char_traits@D@std@@@std@@@std@@ABAPADPADDH@Z 10013d00 f i client_config.obj
 0001:00012dd0       ?_Incref@facet@locale@std@@UAEXXZ 10013dd0 f i client_config.obj
 0001:00012de0       ?_Init@?$basic_filebuf@DU?$char_traits@D@std@@@std@@IAEXPAU_iobuf@@W4_Initfl@12@@Z 10013de0 f i client_config.obj
 0001:00012ed0       ?_Init@?$basic_streambuf@DU?$char_traits@D@std@@@std@@IAEXXZ 10013ed0 f i client_config.obj
 0001:00012f30       ?_Initcvt@?$basic_filebuf@DU?$char_traits@D@std@@@std@@IAEXABV?$codecvt@DDU_Mbstatet@@@2@@Z 10013f30 f i client_config.obj
 0001:00012fc0       ?_Ipfx@?$basic_istream@DU?$char_traits@D@std@@@std@@QAE_N_N@Z 10013fc0 f i client_config.obj
 0001:00013200       ?_Iput@?$num_put@DV?$ostreambuf_iterator@DU?$char_traits@D@std@@@std@@@std@@ABA?AV?$ostreambuf_iterator@DU?$char_traits@D@std@@@2@V32@AAVios_base@2@DPADI@Z 10014200 f i client_config.obj
 0001:00013590       ?_Lock@?$basic_filebuf@DU?$char_traits@D@std@@@std@@UAEXXZ 10014590 f i client_config.obj
 0001:000135a0       ?_Osfx@?$basic_ostream@DU?$char_traits@D@std@@@std@@QAEXXZ 100145a0 f i client_config.obj
 0001:00013680       ?_Put@?$num_put@DV?$ostreambuf_iterator@DU?$char_traits@D@std@@@std@@@std@@ABA?AV?$ostreambuf_iterator@DU?$char_traits@D@std@@@2@V32@PBDI@Z 10014680 f i client_config.obj
 0001:000136f0       ?_Rep@?$num_put@DV?$ostreambuf_iterator@DU?$char_traits@D@std@@@std@@@std@@ABA?AV?$ostreambuf_iterator@DU?$char_traits@D@std@@@2@V32@DI@Z 100146f0 f i client_config.obj
 0001:00013760       ?_Reset_back@?$basic_filebuf@DU?$char_traits@D@std@@@std@@AAEXXZ 10014760 f i client_config.obj
 0001:00013790       ?_Unlock@?$basic_filebuf@DU?$char_traits@D@std@@@std@@UAEXXZ 10014790 f i client_config.obj
 0001:000137a0       ?_Xran@?$_String_val@U?$_Simple_types@D@std@@@std@@SAXXZ 100147a0 f i client_config.obj
 0001:000137b0       ?_Xran@?$basic_string_view@DU?$char_traits@D@std@@@std@@CAXXZ 100147b0 f i client_config.obj
 0001:00015900       ?clear@ios_base@std@@QAEXH_N@Z 10016900 f i client_config.obj
 0001:00015980       ?data@config@ext_client@@YAAAUsettings@12@XZ 10016980 f   client_config.obj
 0001:00015990       ?default_error_condition@error_category@std@@UBE?AVerror_condition@2@H@Z 10016990 f i client_config.obj
 0001:000159b0       ?do_always_noconv@?$codecvt@DDU_Mbstatet@@@std@@MBE_NXZ 100169b0 f i client_config.obj
 0001:000159b0       ___acrt_uninitialize_command_line 100169b0 f i libucrt:argv_data.obj
 0001:000159c0       ?do_decimal_point@?$numpunct@D@std@@MBEDXZ 100169c0 f i client_config.obj
 0001:000159d0       ?do_encoding@codecvt_base@std@@MBEHXZ 100169d0 f i client_config.obj
 0001:000159d0       ?do_max_length@codecvt_base@std@@MBEHXZ 100169d0 f i client_config.obj
 0001:000159e0       ?do_falsename@?$numpunct@D@std@@MBE?AV?$basic_string@DU?$char_traits@D@std@@V?$allocator@D@2@@2@XZ 100169e0 f i client_config.obj
 0001:00015a30       ?do_grouping@?$numpunct@D@std@@MBE?AV?$basic_string@DU?$char_traits@D@std@@V?$allocator@D@2@@2@XZ 10016a30 f i client_config.obj
 0001:00015a80       ?do_in@?$codecvt@DDU_Mbstatet@@@std@@MBEHAAU_Mbstatet@@PBD1AAPBDPAD3AAPAD@Z 10016a80 f i client_config.obj
 0001:00015a80       ?do_out@?$codecvt@DDU_Mbstatet@@@std@@MBEHAAU_Mbstatet@@PBD1AAPBDPAD3AAPAD@Z 10016a80 f i client_config.obj
 0001:00015aa0       ?do_length@?$codecvt@DDU_Mbstatet@@@std@@MBEHAAU_Mbstatet@@PBD1I@Z 10016aa0 f i client_config.obj
 0001:00015ac0       ?do_narrow@?$ctype@D@std@@MBEDDD@Z 10016ac0 f i client_config.obj
 0001:00015ad0       ?do_narrow@?$ctype@D@std@@MBEPBDPBD0DPAD@Z 10016ad0 f i client_config.obj
 0001:00015af0       ?do_put@?$num_put@DV?$ostreambuf_iterator@DU?$char_traits@D@std@@@std@@@std@@MBE?AV?$ostreambuf_iterator@DU?$char_traits@D@std@@@2@V32@AAVios_base@2@DJ@Z 10016af0 f i client_config.obj
 0001:00015bb0       ?do_put@?$num_put@DV?$ostreambuf_iterator@DU?$char_traits@D@std@@@std@@@std@@MBE?AV?$ostreambuf_iterator@DU?$char_traits@D@std@@@2@V32@AAVios_base@2@DK@Z 10016bb0 f i client_config.obj
 0001:00015c70       ?do_put@?$num_put@DV?$ostreambuf_iterator@DU?$char_traits@D@std@@@std@@@std@@MBE?AV?$ostreambuf_iterator@DU?$char_traits@D@std@@@2@V32@AAVios_base@2@DN@Z 10016c70 f i client_config.obj
 0001:00015e80       ?do_put@?$num_put@DV?$ostreambuf_iterator@DU?$char_traits@D@std@@@std@@@std@@MBE?AV?$ostreambuf_iterator@DU?$char_traits@D@std@@@2@V32@AAVios_base@2@DO@Z 10016e80 f i client_config.obj
 0001:00016090       ?do_put@?$num_put@DV?$ostreambuf_iterator@DU?$char_traits@D@std@@@std@@@std@@MBE?AV?$ostreambuf_iterator@DU?$char_traits@D@std@@@2@V32@AAVios_base@2@DPBX@Z 10017090 f i client_config.obj
 0001:000160f0       ?do_put@?$num_put@DV?$ostreambuf_iterator@DU?$char_traits@D@std@@@std@@@std@@MBE?AV?$ostreambuf_iterator@DU?$char_traits@D@std@@@2@V32@AAVios_base@2@D_J@Z 100170f0 f i client_config.obj
 0001:000161c0       ?do_put@?$num_put@DV?$ostreambuf_iterator@DU?$char_traits@D@std@@@std@@@std@@MBE?AV?$ostreambuf_iterator@DU?$char_traits@D@std@@@2@V32@AAVios_base@2@D_K@Z 100171c0 f i client_config.obj
 0001:00016290       ?do_put@?$num_put@DV?$ostreambuf_iterator@DU?$char_traits@D@std@@@std@@@std@@MBE?AV?$ostreambuf_iterator@DU?$char_traits@D@std@@@2@V32@AAVios_base@2@D_N@Z 10017290 f i client_config.obj
 0001:00016480       ?do_thousands_sep@?$numpunct@D@std@@MBEDXZ 10017480 f i client_config.obj
 0001:00016490       ?do_tolower@?$ctype@D@std@@MBEDD@Z 10017490 f i client_config.obj
 0001:000164b0       ?do_tolower@?$ctype@D@std@@MBEPBDPADPBD@Z 100174b0 f i client_config.obj
 0001:000164e0       ?do_toupper@?$ctype@D@std@@MBEDD@Z 100174e0 f i client_config.obj
 0001:00016500       ?do_toupper@?$ctype@D@std@@MBEPBDPADPBD@Z 10017500 f i client_config.obj
 0001:00016530       ?do_truename@?$numpunct@D@std@@MBE?AV?$basic_string@DU?$char_traits@D@std@@V?$allocator@D@2@@2@XZ 10017530 f i client_config.obj
 0001:00016580       ?do_unshift@?$codecvt@DDU_Mbstatet@@@std@@MBEHAAU_Mbstatet@@PAD1AAPAD@Z 10017580 f i client_config.obj
 0001:000165a0       ?do_widen@?$ctype@D@std@@MBEDD@Z 100175a0 f i client_config.obj
 0001:000165b0       ?do_widen@?$ctype@D@std@@MBEPBDPBD0PAD@Z 100175b0 f i client_config.obj
 0001:00016690       ?equivalent@error_category@std@@UBE_NABVerror_code@2@H@Z 10017690 f i client_config.obj
 0001:000166c0       ?equivalent@error_category@std@@UBE_NHABVerror_condition@2@@Z 100176c0 f i client_config.obj
 0001:00016700       ?flush@?$basic_ostream@DU?$char_traits@D@std@@@std@@QAEAAV12@XZ 10017700 f i client_config.obj
 0001:00016850       ?imbue@?$basic_filebuf@DU?$char_traits@D@std@@@std@@MAEXABVlocale@2@@Z 10017850 f i client_config.obj
 0001:00016870       ?imbue@?$basic_streambuf@DU?$char_traits@D@std@@@std@@MAEXABVlocale@2@@Z 10017870 f i client_config.obj
 0001:00016880       ?init@?$basic_ios@DU?$char_traits@D@std@@@std@@IAEXPAV?$basic_streambuf@DU?$char_traits@D@std@@@2@_N@Z 10017880 f i client_config.obj
 0001:00016a00       ?insert@?$basic_string@DU?$char_traits@D@std@@V?$allocator@D@2@@std@@QAEAAV12@IID@Z 10017a00 f i client_config.obj
 0001:00016bb0       ?load@config@ext_client@@YA_NXZ 10017bb0 f   client_config.obj
 0001:00017210       ?make_error_code@std@@YA?AVerror_code@1@W4io_errc@1@@Z 10018210 f i client_config.obj
 0001:00017230       ?mark_dirty@config@ext_client@@YAXXZ 10018230 f   client_config.obj
 0001:00017250       ?message@_Iostream_error_category2@std@@UBE?AV?$basic_string@DU?$char_traits@D@std@@V?$allocator@D@2@@2@H@Z 10018250 f i client_config.obj
 0001:00017310       ?name@_Iostream_error_category2@std@@UBEPBDXZ 10018310 f i client_config.obj
 0001:00017320       ?open@?$basic_filebuf@DU?$char_traits@D@std@@@std@@QAEPAV12@PBDHH@Z 10018320 f i client_config.obj
 0001:000173e0       ?overflow@?$basic_filebuf@DU?$char_traits@D@std@@@std@@MAEHH@Z 100183e0 f i client_config.obj
 0001:00017560       ?overflow@?$basic_streambuf@DU?$char_traits@D@std@@@std@@MAEHH@Z 10018560 f i client_config.obj
 0001:00017560       ?pbackfail@?$basic_streambuf@DU?$char_traits@D@std@@@std@@MAEHH@Z 10018560 f i client_config.obj
 0001:00017650       ?path@config@ext_client@@YAPBDXZ 10018650 f   client_config.obj
 0001:00017660       ?pbackfail@?$basic_filebuf@DU?$char_traits@D@std@@@std@@MAEHH@Z 10018660 f i client_config.obj
 0001:00017710       ?save@config@ext_client@@YA_NXZ 10018710 f   client_config.obj
 0001:00018e20       ?seekoff@?$basic_filebuf@DU?$char_traits@D@std@@@std@@MAE?AV?$fpos@U_Mbstatet@@@2@_JHH@Z 10019e20 f i client_config.obj
 0001:00018f00       ?seekoff@?$basic_streambuf@DU?$char_traits@D@std@@@std@@MAE?AV?$fpos@U_Mbstatet@@@2@_JHH@Z 10019f00 f i client_config.obj
 0001:00018f30       ?seekpos@?$basic_filebuf@DU?$char_traits@D@std@@@std@@MAE?AV?$fpos@U_Mbstatet@@@2@V32@H@Z 10019f30 f i client_config.obj
 0001:00019000       ?seekpos@?$basic_streambuf@DU?$char_traits@D@std@@@std@@MAE?AV?$fpos@U_Mbstatet@@@2@V32@H@Z 1001a000 f i client_config.obj
 0001:00019030       ?setbuf@?$basic_filebuf@DU?$char_traits@D@std@@@std@@MAEPAV?$basic_streambuf@DU?$char_traits@D@std@@@2@PAD_J@Z 1001a030 f i client_config.obj
 0001:00019090       ?setbuf@?$basic_streambuf@DU?$char_traits@D@std@@@std@@MAEPAV12@PAD_J@Z 1001a090 f i client_config.obj
 0001:000190a0       ?setstate@?$basic_ios@DU?$char_traits@D@std@@@std@@QAEXH_N@Z 1001a0a0 f i client_config.obj
 0001:000190d0       ?showmanyc@?$basic_streambuf@DU?$char_traits@D@std@@@std@@MAE_JXZ 1001a0d0 f i client_config.obj
 0001:000190e0       ?snextc@?$basic_streambuf@DU?$char_traits@D@std@@@std@@QAEHXZ 1001a0e0 f i client_config.obj
 0001:00019150       ?substr@?$basic_string_view@DU?$char_traits@D@std@@@std@@QBE?AV12@II@Z 1001a150 f i client_config.obj
 0001:00019180       ?sync@?$basic_filebuf@DU?$char_traits@D@std@@@std@@MAEHXZ 1001a180 f i client_config.obj
 0001:000191b0       ?sync@?$basic_streambuf@DU?$char_traits@D@std@@@std@@MAEHXZ 1001a1b0 f i client_config.obj
 0001:000191c0       ?sync_to_runtime@config@ext_client@@YAXXZ 1001a1c0 f   client_config.obj
 0001:000191d0       ?uflow@?$basic_filebuf@DU?$char_traits@D@std@@@std@@MAEHXZ 1001a1d0 f i client_config.obj
 0001:00019530       ?uflow@?$basic_streambuf@DU?$char_traits@D@std@@@std@@MAEHXZ 1001a530 f i client_config.obj
 0001:00019560       ?underflow@?$basic_filebuf@DU?$char_traits@D@std@@@std@@MAEHXZ 1001a560 f i client_config.obj
 0001:000195a0       ?underflow@?$basic_streambuf@DU?$char_traits@D@std@@@std@@MAEHXZ 1001a5a0 f i client_config.obj
 0001:000195b0       ?xsgetn@?$basic_filebuf@DU?$char_traits@D@std@@@std@@MAE_JPAD_J@Z 1001a5b0 f i client_config.obj
 0001:00019780       ?xsgetn@?$basic_streambuf@DU?$char_traits@D@std@@@std@@MAE_JPAD_J@Z 1001a780 f i client_config.obj
 0001:00019850       ?xsputn@?$basic_filebuf@DU?$char_traits@D@std@@@std@@MAE_JPBD_J@Z 1001a850 f i client_config.obj
 0001:00019a00       ?xsputn@?$basic_streambuf@DU?$char_traits@D@std@@@std@@MAE_JPBD_J@Z 1001aa00 f i client_config.obj
 0001:00019ae0       _sprintf_s                 1001aae0 f i client_config.obj
 0001:00019ef0       ?from_imgui@color@utils@ext_client@@YAII@Z 1001aef0 f i menu.obj
 0001:00019f20       ?is_visible@menu@ext_client@@YA_NXZ 1001af20 f   menu.obj
 0001:00019f30       ?on_create@menu@ext_client@@YAXPAUHWND__@@PAUIDirect3DDevice9@@@Z 1001af30 f   menu.obj
 0001:00019fb0       ?render@menu@ext_client@@YAXXZ 1001afb0 f   menu.obj
 0001:0001a280       ?set_visible@menu@ext_client@@YAX_N@Z 1001b280 f   menu.obj
 0001:0001a2d0       ?shutdown@menu@ext_client@@YAXXZ 1001b2d0 f   menu.obj
 0001:0001a300       ?checkbox_column@ui@menu@ext_client@@YA_NPA_NPBD01@Z 1001b300 f   menu_ui.obj
 0001:0001a350       ?checkbox_setting@ui@menu@ext_client@@YA_NPBDPA_N_N@Z 1001b350 f   menu_ui.obj
 0001:0001a380       ?setting_changed@ui@menu@ext_client@@YAX_N@Z 1001b380 f   menu_ui.obj
 0001:0001a3a0       ?draw@config_panel@menu@ext_client@@YAXXZ 1001b3a0 f   config_panel.obj
 0001:0001b000       ??$_Allocate_at_least_helper@V?$allocator@Uwidget_info@cif_manager@ext_client@@@std@@@std@@YAPAUwidget_info@cif_manager@ext_client@@AAV?$allocator@Uwidget_info@cif_manager@ext_client@@@0@AAI@Z 1001c000 f i widget_inspector.obj
 0001:0001b070       ??$_Emplace_reallocate@ABQAVcgwnd@@@?$vector@PAVcgwnd@@V?$allocator@PAVcgwnd@@@std@@@std@@AAEPAPAVcgwnd@@QAPAV2@ABQAV2@@Z 1001c070 f i widget_inspector.obj
 0001:0001b1d0       ??$_Find_last@H@?$_Hash@V?$_Umap_traits@HUentry@ui_res_catalog@utils@ext_client@@V?$_Uhash_compare@HU?$hash@H@std@@U?$equal_to@H@2@@std@@V?$allocator@U?$pair@$$CBHUentry@ui_res_catalog@utils@ext_client@@@std@@@6@$0A@@std@@@std@@IBE?AU?$_Hash_find_last_result@PAU?$_List_node@U?$pair@$$CBHUentry@ui_res_catalog@utils@ext_client@@@std@@PAX@std@@@1@ABHI@Z 1001c1d0 f i ui_res_catalog.obj
 0001:0001b1d0       ??$_Find_last@I@?$_Hash@V?$_Umap_traits@IV?$basic_string@DU?$char_traits@D@std@@V?$allocator@D@2@@std@@V?$_Uhash_compare@IU?$hash@I@std@@U?$equal_to@I@2@@2@V?$allocator@U?$pair@$$CBIV?$basic_string@DU?$char_traits@D@std@@V?$allocator@D@2@@std@@@std@@@2@$0A@@std@@@std@@IBE?AU?$_Hash_find_last_result@PAU?$_List_node@U?$pair@$$CBIV?$basic_string@DU?$char_traits@D@std@@V?$allocator@D@2@@std@@@std@@PAX@std@@@1@ABII@Z 1001c1d0 f i cif_manager.obj
 0001:0001b1d0       ??$_Find_last@PAVcgwnd@@@?$_Hash@V?$_Uset_traits@PAVcgwnd@@V?$_Uhash_compare@PAVcgwnd@@U?$hash@PAVcgwnd@@@std@@U?$equal_to@PAVcgwnd@@@3@@std@@V?$allocator@PAVcgwnd@@@3@$0A@@std@@@std@@IBE?AU?$_Hash_find_last_result@PAU?$_List_node@PAVcgwnd@@PAX@std@@@1@ABQAVcgwnd@@I@Z 1001c1d0 f i widget_inspector.obj
 0001:0001b240       ??$_Insert_counted_range@PBUwidget_info@cif_manager@ext_client@@@?$vector@Uwidget_info@cif_manager@ext_client@@V?$allocator@Uwidget_info@cif_manager@ext_client@@@std@@@std@@AAEXV?$_Vector_const_iterator@V?$_Vector_val@U?$_Simple_types@Uwidget_info@cif_manager@ext_client@@@std@@@std@@@1@PBUwidget_info@cif_manager@ext_client@@I@Z 1001c240 f i widget_inspector.obj
 0001:0001b4b0       ??$_Uninitialized_move@PAUwidget_info@cif_manager@ext_client@@V?$allocator@Uwidget_info@cif_manager@ext_client@@@std@@@std@@YAPAUwidget_info@cif_manager@ext_client@@QAU123@0PAU123@AAV?$allocator@Uwidget_info@cif_manager@ext_client@@@0@@Z 1001c4b0 f i widget_inspector.obj
 0001:0001b4f0       ??$emplace@ABQAVcgwnd@@@?$_Hash@V?$_Uset_traits@PAVcgwnd@@V?$_Uhash_compare@PAVcgwnd@@U?$hash@PAVcgwnd@@@std@@U?$equal_to@PAVcgwnd@@@3@@std@@V?$allocator@PAVcgwnd@@@3@$0A@@std@@@std@@QAE?AU?$pair@V?$_List_const_iterator@V?$_List_val@U?$_List_simple_types@PAVcgwnd@@@std@@@std@@@std@@_N@1@ABQAVcgwnd@@@Z 1001c4f0 f i widget_inspector.obj
 0001:0001b6e0       ??$fill@PAV?$_List_unchecked_const_iterator@V?$_List_val@U?$_List_simple_types@PAVcgwnd@@@std@@@std@@U_Iterator_base0@2@@std@@V12@@std@@YAXQAV?$_List_unchecked_const_iterator@V?$_List_val@U?$_List_simple_types@PAVcgwnd@@@std@@@std@@U_Iterator_base0@2@@0@0ABV10@@Z 1001c6e0 f i widget_inspector.obj
 0001:0001b6e0       ??$fill@PAV?$_List_unchecked_iterator@V?$_List_val@U?$_List_simple_types@U?$pair@$$CBHUentry@ui_res_catalog@utils@ext_client@@@std@@@std@@@std@@@std@@V12@@std@@YAXQAV?$_List_unchecked_iterator@V?$_List_val@U?$_List_simple_types@U?$pair@$$CBHUentry@ui_res_catalog@utils@ext_client@@@std@@@std@@@std@@@0@0ABV10@@Z 1001c6e0 f i ui_res_catalog.obj
 0001:0001b6e0       ??$fill@PAV?$_List_unchecked_iterator@V?$_List_val@U?$_List_simple_types@U?$pair@$$CBIV?$basic_string@DU?$char_traits@D@std@@V?$allocator@D@2@@std@@@std@@@std@@@std@@@std@@V12@@std@@YAXQAV?$_List_unchecked_iterator@V?$_List_val@U?$_List_simple_types@U?$pair@$$CBIV?$basic_string@DU?$char_traits@D@std@@V?$allocator@D@2@@std@@@std@@@std@@@std@@@0@0ABV10@@Z 1001c6e0 f i cif_manager.obj
 0001:0001b6e0       ??$fill@PAV?$_List_unchecked_iterator@V?$_List_val@U?$_List_simple_types@U?$pair@$$CBV?$basic_string@DU?$char_traits@D@std@@V?$allocator@D@2@@std@@Uentry@ui_res_catalog@utils@ext_client@@@std@@@std@@@std@@@std@@V12@@std@@YAXQAV?$_List_unchecked_iterator@V?$_List_val@U?$_List_simple_types@U?$pair@$$CBV?$basic_string@DU?$char_traits@D@std@@V?$allocator@D@2@@std@@Uentry@ui_res_catalog@utils@ext_client@@@std@@@std@@@std@@@0@0ABV10@@Z 1001c6e0 f i ui_res_catalog.obj
 0001:0001b750       ??0?$unordered_set@PAVcgwnd@@U?$hash@PAVcgwnd@@@std@@U?$equal_to@PAVcgwnd@@@3@V?$allocator@PAVcgwnd@@@3@@std@@QAE@XZ 1001c750 f i widget_inspector.obj
 0001:0001b800       ??1?$_Alloc_construct_ptr@V?$allocator@U?$_List_node@PAVcgwnd@@PAX@std@@@std@@@std@@QAE@XZ 1001c800 f i widget_inspector.obj
 0001:0001b800       ??1?$_List_node_emplace_op2@V?$allocator@U?$_List_node@PAVcgwnd@@PAX@std@@@std@@@std@@QAE@XZ 1001c800 f i widget_inspector.obj
 0001:0001b820       ??1?$_Hash@V?$_Uset_traits@PAVcgwnd@@V?$_Uhash_compare@PAVcgwnd@@U?$hash@PAVcgwnd@@@std@@U?$equal_to@PAVcgwnd@@@3@@std@@V?$allocator@PAVcgwnd@@@3@$0A@@std@@@std@@QAE@XZ 1001c820 f i widget_inspector.obj
 0001:0001b870       ??1?$_Hash_vec@V?$allocator@V?$_List_unchecked_const_iterator@V?$_List_val@U?$_List_simple_types@PAVcgwnd@@@std@@@std@@U_Iterator_base0@2@@std@@@std@@@std@@QAE@XZ 1001c870 f i widget_inspector.obj
 0001:0001b870       ??1?$_Hash_vec@V?$allocator@V?$_List_unchecked_iterator@V?$_List_val@U?$_List_simple_types@U?$pair@$$CBHUentry@ui_res_catalog@utils@ext_client@@@std@@@std@@@std@@@std@@@std@@@std@@QAE@XZ 1001c870 f i ui_res_catalog.obj
 0001:0001b870       ??1?$_Hash_vec@V?$allocator@V?$_List_unchecked_iterator@V?$_List_val@U?$_List_simple_types@U?$pair@$$CBIV?$basic_string@DU?$char_traits@D@std@@V?$allocator@D@2@@std@@@std@@@std@@@std@@@std@@@std@@@std@@QAE@XZ 1001c870 f i cif_manager.obj
 0001:0001b870       ??1?$_Hash_vec@V?$allocator@V?$_List_unchecked_iterator@V?$_List_val@U?$_List_simple_types@U?$pair@$$CBV?$basic_string@DU?$char_traits@D@std@@V?$allocator@D@2@@std@@Uentry@ui_res_catalog@utils@ext_client@@@std@@@std@@@std@@@std@@@std@@@std@@QAE@XZ 1001c870 f i ui_res_catalog.obj
 0001:0001b8d0       ??1?$list@PAVcgwnd@@V?$allocator@PAVcgwnd@@@std@@@std@@QAE@XZ 1001c8d0 f i widget_inspector.obj
 0001:0001b910       ??1?$unordered_set@PAVcgwnd@@U?$hash@PAVcgwnd@@@std@@U?$equal_to@PAVcgwnd@@@3@V?$allocator@PAVcgwnd@@@3@@std@@QAE@XZ 1001c910 f i widget_inspector.obj
 0001:0001b920       ??1?$vector@PAVcgwnd@@V?$allocator@PAVcgwnd@@@std@@@std@@QAE@XZ 1001c920 f i widget_inspector.obj
 0001:0001b980       ??1?$vector@Uwidget_info@cif_manager@ext_client@@V?$allocator@Uwidget_info@cif_manager@ext_client@@@std@@@std@@QAE@XZ 1001c980 f i widget_inspector.obj
 0001:0001ba00       ??1_Reallocation_guard@?$vector@Uwidget_info@cif_manager@ext_client@@V?$allocator@Uwidget_info@cif_manager@ext_client@@@std@@@std@@QAE@XZ 1001ca00 f i widget_inspector.obj
 0001:0001ba50       ?_Assign_grow@?$_Hash_vec@V?$allocator@V?$_List_unchecked_const_iterator@V?$_List_val@U?$_List_simple_types@PAVcgwnd@@@std@@@std@@U_Iterator_base0@2@@std@@@std@@@std@@QAEXIV?$_List_unchecked_const_iterator@V?$_List_val@U?$_List_simple_types@PAVcgwnd@@@std@@@std@@U_Iterator_base0@2@@2@@Z 1001ca50 f i widget_inspector.obj
 0001:0001ba50       ?_Assign_grow@?$_Hash_vec@V?$allocator@V?$_List_unchecked_iterator@V?$_List_val@U?$_List_simple_types@U?$pair@$$CBHUentry@ui_res_catalog@utils@ext_client@@@std@@@std@@@std@@@std@@@std@@@std@@QAEXIV?$_List_unchecked_iterator@V?$_List_val@U?$_List_simple_types@U?$pair@$$CBHUentry@ui_res_catalog@utils@ext_client@@@std@@@std@@@std@@@2@@Z 1001ca50 f i ui_res_catalog.obj
 0001:0001ba50       ?_Assign_grow@?$_Hash_vec@V?$allocator@V?$_List_unchecked_iterator@V?$_List_val@U?$_List_simple_types@U?$pair@$$CBIV?$basic_string@DU?$char_traits@D@std@@V?$allocator@D@2@@std@@@std@@@std@@@std@@@std@@@std@@@std@@QAEXIV?$_List_unchecked_iterator@V?$_List_val@U?$_List_simple_types@U?$pair@$$CBIV?$basic_string@DU?$char_traits@D@std@@V?$allocator@D@2@@std@@@std@@@std@@@std@@@2@@Z 1001ca50 f i cif_manager.obj
 0001:0001ba50       ?_Assign_grow@?$_Hash_vec@V?$allocator@V?$_List_unchecked_iterator@V?$_List_val@U?$_List_simple_types@U?$pair@$$CBV?$basic_string@DU?$char_traits@D@std@@V?$allocator@D@2@@std@@Uentry@ui_res_catalog@utils@ext_client@@@std@@@std@@@std@@@std@@@std@@@std@@QAEXIV?$_List_unchecked_iterator@V?$_List_val@U?$_List_simple_types@U?$pair@$$CBV?$basic_string@DU?$char_traits@D@std@@V?$allocator@D@2@@std@@Uentry@ui_res_catalog@utils@ext_client@@@std@@@std@@@std@@@2@@Z 1001ca50 f i ui_res_catalog.obj
 0001:0001bb20       ?_Change_array@?$vector@Uwidget_info@cif_manager@ext_client@@V?$allocator@Uwidget_info@cif_manager@ext_client@@@std@@@std@@AAEXQAUwidget_info@cif_manager@ext_client@@II@Z 1001cb20 f i widget_inspector.obj
 0001:0001bba0       ?_Forced_rehash@?$_Hash@V?$_Uset_traits@PAVcgwnd@@V?$_Uhash_compare@PAVcgwnd@@U?$hash@PAVcgwnd@@@std@@U?$equal_to@PAVcgwnd@@@3@@std@@V?$allocator@PAVcgwnd@@@3@$0A@@std@@@std@@IAEXI@Z 1001cba0 f i widget_inspector.obj
 0001:0001bd00       ?deallocate@?$allocator@V?$_List_unchecked_const_iterator@V?$_List_val@U?$_List_simple_types@PAVcgwnd@@@std@@@std@@U_Iterator_base0@2@@std@@@std@@QAEXQAV?$_List_unchecked_const_iterator@V?$_List_val@U?$_List_simple_types@PAVcgwnd@@@std@@@std@@U_Iterator_base0@2@@2@I@Z 1001cd00 f i widget_inspector.obj
 0001:0001bd00       ?deallocate@?$allocator@V?$_List_unchecked_iterator@V?$_List_val@U?$_List_simple_types@U?$pair@$$CBHUentry@ui_res_catalog@utils@ext_client@@@std@@@std@@@std@@@std@@@std@@QAEXQAV?$_List_unchecked_iterator@V?$_List_val@U?$_List_simple_types@U?$pair@$$CBHUentry@ui_res_catalog@utils@ext_client@@@std@@@std@@@std@@@2@I@Z 1001cd00 f i ui_res_catalog.obj
 0001:0001bd00       ?deallocate@?$allocator@V?$_List_unchecked_iterator@V?$_List_val@U?$_List_simple_types@U?$pair@$$CBIV?$basic_string@DU?$char_traits@D@std@@V?$allocator@D@2@@std@@@std@@@std@@@std@@@std@@@std@@QAEXQAV?$_List_unchecked_iterator@V?$_List_val@U?$_List_simple_types@U?$pair@$$CBIV?$basic_string@DU?$char_traits@D@std@@V?$allocator@D@2@@std@@@std@@@std@@@std@@@2@I@Z 1001cd00 f i cif_manager.obj
 0001:0001bd00       ?deallocate@?$allocator@V?$_List_unchecked_iterator@V?$_List_val@U?$_List_simple_types@U?$pair@$$CBV?$basic_string@DU?$char_traits@D@std@@V?$allocator@D@2@@std@@Uentry@ui_res_catalog@utils@ext_client@@@std@@@std@@@std@@@std@@@std@@QAEXQAV?$_List_unchecked_iterator@V?$_List_val@U?$_List_simple_types@U?$pair@$$CBV?$basic_string@DU?$char_traits@D@std@@V?$allocator@D@2@@std@@Uentry@ui_res_catalog@utils@ext_client@@@std@@@std@@@std@@@2@I@Z 1001cd00 f i ui_res_catalog.obj
 0001:0001bd50       ?draw@widget_inspector@menu@ext_client@@YAXXZ 1001cd50 f   widget_inspector.obj
 0001:0001c330       ?draw_overlay@widget_inspector@menu@ext_client@@YAXXZ 1001d330 f   widget_inspector.obj
 0001:0001de50       ?push_back@?$vector@Uwidget_info@cif_manager@ext_client@@V?$allocator@Uwidget_info@cif_manager@ext_client@@@std@@@std@@QAEXABUwidget_info@cif_manager@ext_client@@@Z 1001ee50 f i widget_inspector.obj
 0001:0001ebc0       ??$_Free_non_head@V?$allocator@U?$_List_node@U?$pair@$$CBIV?$basic_string@DU?$char_traits@D@std@@V?$allocator@D@2@@std@@@std@@PAX@std@@@std@@@?$_List_node@U?$pair@$$CBIV?$basic_string@DU?$char_traits@D@std@@V?$allocator@D@2@@std@@@std@@PAX@std@@SAXAAV?$allocator@U?$_List_node@U?$pair@$$CBIV?$basic_string@DU?$char_traits@D@std@@V?$allocator@D@2@@std@@@std@@PAX@std@@@1@PAU01@@Z 1001fbc0 f i cif_manager.obj
 0001:0001f1f0       ??$emplace@AAIAAY0EA@D@?$_Hash@V?$_Umap_traits@IV?$basic_string@DU?$char_traits@D@std@@V?$allocator@D@2@@std@@V?$_Uhash_compare@IU?$hash@I@std@@U?$equal_to@I@2@@2@V?$allocator@U?$pair@$$CBIV?$basic_string@DU?$char_traits@D@std@@V?$allocator@D@2@@std@@@std@@@2@$0A@@std@@@std@@QAE?AU?$pair@V?$_List_iterator@V?$_List_val@U?$_List_simple_types@U?$pair@$$CBIV?$basic_string@DU?$char_traits@D@std@@V?$allocator@D@2@@std@@@std@@@std@@@std@@@std@@_N@1@AAIAAY0EA@D@Z 100201f0 f i cif_manager.obj
 0001:0001f5b0       ??1?$_Alloc_construct_ptr@V?$allocator@U?$_List_node@U?$pair@$$CBIV?$basic_string@DU?$char_traits@D@std@@V?$allocator@D@2@@std@@@std@@PAX@std@@@std@@@std@@QAE@XZ 100205b0 f i cif_manager.obj
 0001:0001f5d0       ??1?$_List_node_emplace_op2@V?$allocator@U?$_List_node@U?$pair@$$CBIV?$basic_string@DU?$char_traits@D@std@@V?$allocator@D@2@@std@@@std@@PAX@std@@@std@@@std@@QAE@XZ 100205d0 f i cif_manager.obj
 0001:0001f600       ??1?$list@U?$pair@$$CBIV?$basic_string@DU?$char_traits@D@std@@V?$allocator@D@2@@std@@@std@@V?$allocator@U?$pair@$$CBIV?$basic_string@DU?$char_traits@D@std@@V?$allocator@D@2@@std@@@std@@@2@@std@@QAE@XZ 10020600 f i cif_manager.obj
 0001:0001f730       ?_Change_array@?$vector@Ures_map_entry@cif_manager@ext_client@@V?$allocator@Ures_map_entry@cif_manager@ext_client@@@std@@@std@@AAEXQAUres_map_entry@cif_manager@ext_client@@II@Z 10020730 f i cif_manager.obj
 0001:0001f7a0       ?_Forced_rehash@?$_Hash@V?$_Umap_traits@HUentry@ui_res_catalog@utils@ext_client@@V?$_Uhash_compare@HU?$hash@H@std@@U?$equal_to@H@2@@std@@V?$allocator@U?$pair@$$CBHUentry@ui_res_catalog@utils@ext_client@@@std@@@6@$0A@@std@@@std@@IAEXI@Z 100207a0 f i ui_res_catalog.obj
 0001:0001f7a0       ?_Forced_rehash@?$_Hash@V?$_Umap_traits@IV?$basic_string@DU?$char_traits@D@std@@V?$allocator@D@2@@std@@V?$_Uhash_compare@IU?$hash@I@std@@U?$equal_to@I@2@@2@V?$allocator@U?$pair@$$CBIV?$basic_string@DU?$char_traits@D@std@@V?$allocator@D@2@@std@@@std@@@2@$0A@@std@@@std@@IAEXI@Z 100207a0 f i cif_manager.obj
 0001:0001fbd0       ?apply_static_label@cif_manager@ext_client@@YAXPAVcif_static@@PB_WI@Z 10020bd0 f   cif_manager.obj
 0001:0001fc00       ?as_static_if@cif_manager@ext_client@@YAPAVcif_static@@PAVcgwnd@@@Z 10020c00 f   cif_manager.obj
 0001:0001fc70       ?browsable_ui_root@cif_manager@ext_client@@YAPAVcgwnd@@PAX@Z 10020c70 f   cif_manager.obj
 0001:0001fce0       ?collect_title_list_button@cif_manager@ext_client@@YAXPAVcgwnd@@PAX@Z 10020ce0 f   cif_manager.obj
 0001:0001fd10       ?control_id@cif_manager@ext_client@@YAHPBVcgwnd@@@Z 10020d10 f   cif_manager.obj
 0001:0001fd30       ?count_owned_children@cif_manager@ext_client@@YAIPBVcgwnd@@@Z 10020d30 f   cif_manager.obj
 0001:0001fd60       ?descendant_depth@cif_manager@ext_client@@YAHPBVcgwnd@@0HH@Z 10020d60 f   cif_manager.obj
 0001:0001fe80       ?destroy_widget@cif_manager@ext_client@@YAXPAVcgwnd@@@Z 10020e80 f   cif_manager.obj
 0001:0001fea0       ?diagnose_ingame_res@cif_manager@ext_client@@YA?AUingame_res_lookup@12@H@Z 10020ea0 f   cif_manager.obj
 0001:0001ff70       ?enrich_widget_info@cif_manager@ext_client@@YAXAAUwidget_info@12@PBVcgwnd@@@Z 10020f70 f   cif_manager.obj
 0001:00020110       ?enumerate_iface_res_map@cif_manager@ext_client@@YA?AV?$vector@Ures_map_entry@cif_manager@ext_client@@V?$allocator@Ures_map_entry@cif_manager@ext_client@@@std@@@std@@H@Z 10021110 f   cif_manager.obj
 0001:00020160       ?enumerate_ingame_res_map@cif_manager@ext_client@@YA?AV?$vector@Ures_map_entry@cif_manager@ext_client@@V?$allocator@Ures_map_entry@cif_manager@ext_client@@@std@@@std@@H@Z 10021160 f   cif_manager.obj
 0001:00020180       ?enumerate_res_map@cif_manager@ext_client@@YA?AV?$vector@Ures_map_entry@cif_manager@ext_client@@V?$allocator@Ures_map_entry@cif_manager@ext_client@@@std@@@std@@PBXH@Z 10021180 f   cif_manager.obj
 0001:00020300       ?find_ingame_res_raw@cif_manager@ext_client@@YAPAXH@Z 10021300 f   cif_manager.obj
 0001:00020350       ?find_res_map_key@cif_manager@ext_client@@YAHPBVcgwnd@@@Z 10021350 f   cif_manager.obj
 0001:00020500       ?find_title_channel_list_button@cif_manager@ext_client@@YAPAVcgwnd@@PAUcps_outer_interface@@@Z 10021500 f   cif_manager.obj
 0001:00020570       ?for_each_owned_child@cif_manager@ext_client@@YAXPAVcgwnd@@P6AX0PAX@Z1@Z 10021570 f   cif_manager.obj
 0001:00020af0       ?is_instance@cif_decorated_static@@SA_NPBX@Z 10021af0 f i cif_manager.obj
 0001:00020b20       ?is_live_widget@cif_manager@ext_client@@YA_NPBVcgwnd@@@Z 10021b20 f   cif_manager.obj
 0001:00020db0       ?is_static@cif_manager@ext_client@@YA_NPBVcgwnd@@@Z 10021db0 f   cif_manager.obj
 0001:00020de0       ?is_title_list_button_widget@cif_manager@ext_client@@YA_NPBVcgwnd@@@Z 10021de0 f   cif_manager.obj
 0001:00020e30       ?is_visible@cif_manager@ext_client@@YA_NPBVcgwnd@@@Z 10021e30 f   cif_manager.obj
 0001:00021260       ?read_static_text@cif_manager@ext_client@@YA_NPBVcif_static@@PA_WI@Z 10022260 f   cif_manager.obj
 0001:00021350       ?read_widget_ddj_path@cif_manager@ext_client@@YA_NPBVcgwnd@@PADI@Z 10022350 f   cif_manager.obj
 0001:00021440       ?res_map_key_for@cif_manager@ext_client@@YAHPAUcps_outer_interface@@PBVcgwnd@@@Z 10022440 f   cif_manager.obj
 0001:00021470       ?res_map_key_in@cif_manager@ext_client@@YAHPBXPBVcgwnd@@@Z 10022470 f   cif_manager.obj
 0001:00021520       ?scan_title_channel_list_button@cif_manager@ext_client@@YAPAVcgwnd@@PAUcps_outer_interface@@PBV3@@Z 10022520 f   cif_manager.obj
 0001:00021770       ?spawn_static_label@cif_manager@ext_client@@YAPAVcif_static@@PAVcgwnd@@ABUspawn_label_options@12@@Z 10022770 f   cif_manager.obj
 0001:00021910       ?ui_type_name@cif_manager@ext_client@@YAPBDPBX@Z 10022910 f   cif_manager.obj
 0001:00021950       ?unique_id@cif_manager@ext_client@@YAHPBVcgwnd@@@Z 10022950 f   cif_manager.obj
 0001:00021970       ?vftable_kind@cif_manager@ext_client@@YA?AW4widget_kind@12@I@Z 10022970 f   cif_manager.obj
 0001:00021a70       ?vftable_type_name@cif_manager@ext_client@@YAPBDI@Z 10022a70 f   cif_manager.obj
 0001:00021cd0       ?walk@cif_manager@ext_client@@YA?AV?$vector@Uwidget_info@cif_manager@ext_client@@V?$allocator@Uwidget_info@cif_manager@ext_client@@@std@@@std@@PAVcgwnd@@HH@Z 10022cd0 f   cif_manager.obj
 0001:000220b0       ?walk_each@cif_manager@ext_client@@YAXPAVcgwnd@@HP6AX0PAX@Z1@Z 100230b0 f   cif_manager.obj
 0001:00022630       ?walk_ingame_res_roots@cif_manager@ext_client@@YAXP6AXPAVcgwnd@@PAX@Z1H@Z 10023630 f   cif_manager.obj
 0001:000226f0       ?walk_static_texts@cif_manager@ext_client@@YA?AV?$vector@Uwidget_info@cif_manager@ext_client@@V?$allocator@Uwidget_info@cif_manager@ext_client@@@std@@@std@@PAVcgwnd@@HH@Z 100236f0 f   cif_manager.obj
 0001:000229f0       ?get@cgame_text@@SAPAV1@XZ 100239f0 f   cgame_text.obj
 0001:00022a00       ?get_text@cgame_text@@QAE?AVwstring_ref@msvc9@ext_client@@PB_W@Z 10023a00 f   cgame_text.obj
 0001:00022a20       ??0string@msvc9@ext_client@@QAE@PBD@Z 10023a20 f   msvc9_stl.obj
 0001:00022aa0       ??0string@msvc9@ext_client@@QAE@XZ 10023aa0 f   msvc9_stl.obj
 0001:00022ae0       ??0wstring@msvc9@ext_client@@QAE@PB_W@Z 10023ae0 f   msvc9_stl.obj
 0001:00022b50       ??1string@msvc9@ext_client@@QAE@XZ 10023b50 f   msvc9_stl.obj
 0001:00022b90       ??1wstring@msvc9@ext_client@@QAE@XZ 10023b90 f   msvc9_stl.obj
 0001:00022c00       ?assign@wstring@msvc9@ext_client@@QAEAAV123@PB_WI@Z 10023c00 f   msvc9_stl.obj
 0001:00022ce0       ?copy_to@string_ref@msvc9@ext_client@@QBE_NPADI@Z 10023ce0 f   msvc9_stl.obj
 0001:00022d90       ?copy_to@wstring_ref@msvc9@ext_client@@QBE_NPA_WI@Z 10023d90 f   msvc9_stl.obj
 0001:00022e30       ?data@string_ref@msvc9@ext_client@@QBEPBDXZ 10023e30 f   msvc9_stl.obj
 0001:00022e90       ?data@wstring_ref@msvc9@ext_client@@QBEPB_WXZ 10023e90 f   msvc9_stl.obj
 0001:00022ef0       ?empty@wstring_ref@msvc9@ext_client@@QBE_NXZ 10023ef0 f   msvc9_stl.obj
 0001:00022f20       ?find@ui_res_map@msvc9@ext_client@@QBEPAXI_N@Z 10023f20 f   msvc9_stl.obj
 0001:00022f40       ?from@list_ref@msvc9@ext_client@@SA?AV123@PBX@Z 10023f40 f   msvc9_stl.obj
 0001:00022f60       ?from@map_ref@msvc9@ext_client@@SA?AV123@PBX@Z 10023f60 f   msvc9_stl.obj
 0001:00022f60       ?from@stdext_hash_map_ref@msvc9@ext_client@@SA?AV123@PBX@Z 10023f60 f   msvc9_stl.obj
 0001:00022f60       ?from@string_ref@msvc9@ext_client@@SA?AV123@PBX@Z 10023f60 f   msvc9_stl.obj
 0001:00022f60       ?from@wstring_ref@msvc9@ext_client@@SA?AV123@PBX@Z 10023f60 f   msvc9_stl.obj
 0001:00022f70       ?from_sentinel@child_list_ref@msvc9@ext_client@@SA?AV123@PBX@Z 10023f70 f   msvc9_stl.obj
 0001:00023010       ?from_sentinel@list_ref@msvc9@ext_client@@SA?AV123@PBX@Z 10024010 f   msvc9_stl.obj
 0001:000230c0       ?is_nil@map_tree_node@msvc9@ext_client@@QBE_NXZ 100240c0 f   msvc9_stl.obj
 0001:000230e0       ?is_readable_ptr@msvc9@ext_client@@YA_NPBXI@Z 100240e0 f   msvc9_stl.obj
 0001:00023170       ?length@wstring_ref@msvc9@ext_client@@QBEIXZ 10024170 f   msvc9_stl.obj
 0001:00023190       ?list_view@stdext_hash_map_ref@msvc9@ext_client@@QBE?AVlist_ref@23@XZ 10024190 f   msvc9_stl.obj
 0001:000231c0       ?minimum@map_ref@msvc9@ext_client@@ABEPBUmap_tree_node@23@XZ 100241c0 f   msvc9_stl.obj
 0001:00023230       ?next@map_ref@msvc9@ext_client@@SAPBUmap_tree_node@23@PBU423@0@Z 10024230 f   msvc9_stl.obj
 0001:00023350       ?sentinel@list_ref@msvc9@ext_client@@QBEPBXXZ 10024350 f   msvc9_stl.obj
 0001:00023430       ?sentinel@map_ref@msvc9@ext_client@@ABEPBUmap_tree_node@23@XZ 10024430 f   msvc9_stl.obj
 0001:00023470       ?try_read_u32@msvc9@ext_client@@YA_NPBXPAI@Z 10024470 f   msvc9_stl.obj
 0001:00023510       ??$_Find_last@V?$basic_string@DU?$char_traits@D@std@@V?$allocator@D@2@@std@@@?$_Hash@V?$_Umap_traits@V?$basic_string@DU?$char_traits@D@std@@V?$allocator@D@2@@std@@Uentry@ui_res_catalog@utils@ext_client@@V?$_Uhash_compare@V?$basic_string@DU?$char_traits@D@std@@V?$allocator@D@2@@std@@U?$hash@V?$basic_string@DU?$char_traits@D@std@@V?$allocator@D@2@@std@@@2@U?$equal_to@V?$basic_string@DU?$char_traits@D@std@@V?$allocator@D@2@@std@@@2@@2@V?$allocator@U?$pair@$$CBV?$basic_string@DU?$char_traits@D@std@@V?$allocator@D@2@@std@@Uentry@ui_res_catalog@utils@ext_client@@@std@@@2@$0A@@std@@@std@@IBE?AU?$_Hash_find_last_result@PAU?$_List_node@U?$pair@$$CBV?$basic_string@DU?$char_traits@D@std@@V?$allocator@D@2@@std@@Uentry@ui_res_catalog@utils@ext_client@@@std@@PAX@std@@@1@ABV?$basic_string@DU?$char_traits@D@std@@V?$allocator@D@2@@1@I@Z 10024510 f i ui_res_catalog.obj
 0001:000235a0       ??$_Free_non_head@V?$allocator@U?$_List_node@U?$pair@$$CBV?$basic_string@DU?$char_traits@D@std@@V?$allocator@D@2@@std@@Uentry@ui_res_catalog@utils@ext_client@@@std@@PAX@std@@@std@@@?$_List_node@U?$pair@$$CBV?$basic_string@DU?$char_traits@D@std@@V?$allocator@D@2@@std@@Uentry@ui_res_catalog@utils@ext_client@@@std@@PAX@std@@SAXAAV?$allocator@U?$_List_node@U?$pair@$$CBV?$basic_string@DU?$char_traits@D@std@@V?$allocator@D@2@@std@@Uentry@ui_res_catalog@utils@ext_client@@@std@@PAX@std@@@1@PAU01@@Z 100245a0 f i ui_res_catalog.obj
 0001:000235f0       ??$_Traits_equal@U?$char_traits@D@std@@@std@@YA_NQBDI0I@Z 100245f0 f i ui_res_catalog.obj
 0001:00023670       ??$_Try_emplace@ABH$$V@?$_Hash@V?$_Umap_traits@HUentry@ui_res_catalog@utils@ext_client@@V?$_Uhash_compare@HU?$hash@H@std@@U?$equal_to@H@2@@std@@V?$allocator@U?$pair@$$CBHUentry@ui_res_catalog@utils@ext_client@@@std@@@6@$0A@@std@@@std@@IAE?AU?$pair@PAU?$_List_node@U?$pair@$$CBHUentry@ui_res_catalog@utils@ext_client@@@std@@PAX@std@@_N@1@ABH@Z 10024670 f i ui_res_catalog.obj
 0001:000238d0       ??$_Try_emplace@V?$basic_string@DU?$char_traits@D@std@@V?$allocator@D@2@@std@@$$V@?$_Hash@V?$_Umap_traits@V?$basic_string@DU?$char_traits@D@std@@V?$allocator@D@2@@std@@Uentry@ui_res_catalog@utils@ext_client@@V?$_Uhash_compare@V?$basic_string@DU?$char_traits@D@std@@V?$allocator@D@2@@std@@U?$hash@V?$basic_string@DU?$char_traits@D@std@@V?$allocator@D@2@@std@@@2@U?$equal_to@V?$basic_string@DU?$char_traits@D@std@@V?$allocator@D@2@@std@@@2@@2@V?$allocator@U?$pair@$$CBV?$basic_string@DU?$char_traits@D@std@@V?$allocator@D@2@@std@@Uentry@ui_res_catalog@utils@ext_client@@@std@@@2@$0A@@std@@@std@@IAE?AU?$pair@PAU?$_List_node@U?$pair@$$CBV?$basic_string@DU?$char_traits@D@std@@V?$allocator@D@2@@std@@Uentry@ui_res_catalog@utils@ext_client@@@std@@PAX@std@@_N@1@$$QAV?$basic_string@DU?$char_traits@D@std@@V?$allocator@D@2@@1@@Z 100248d0 f i ui_res_catalog.obj
 0001:00023b50       ??0?$unordered_map@HUentry@ui_res_catalog@utils@ext_client@@U?$hash@H@std@@U?$equal_to@H@6@V?$allocator@U?$pair@$$CBHUentry@ui_res_catalog@utils@ext_client@@@std@@@6@@std@@QAE@XZ 10024b50 f i ui_res_catalog.obj
 0001:00023c00       ??0?$unordered_map@V?$basic_string@DU?$char_traits@D@std@@V?$allocator@D@2@@std@@Uentry@ui_res_catalog@utils@ext_client@@U?$hash@V?$basic_string@DU?$char_traits@D@std@@V?$allocator@D@2@@std@@@2@U?$equal_to@V?$basic_string@DU?$char_traits@D@std@@V?$allocator@D@2@@std@@@2@V?$allocator@U?$pair@$$CBV?$basic_string@DU?$char_traits@D@std@@V?$allocator@D@2@@std@@Uentry@ui_res_catalog@utils@ext_client@@@std@@@2@@std@@QAE@XZ 10024c00 f i ui_res_catalog.obj
 0001:00023cb0       ??1?$_Alloc_construct_ptr@V?$allocator@U?$_List_node@U?$pair@$$CBHUentry@ui_res_catalog@utils@ext_client@@@std@@PAX@std@@@std@@@std@@QAE@XZ 10024cb0 f i ui_res_catalog.obj
 0001:00023cb0       ??1?$_List_node_emplace_op2@V?$allocator@U?$_List_node@U?$pair@$$CBHUentry@ui_res_catalog@utils@ext_client@@@std@@PAX@std@@@std@@@std@@QAE@XZ 10024cb0 f i ui_res_catalog.obj
 0001:00023cd0       ??1?$_Alloc_construct_ptr@V?$allocator@U?$_List_node@U?$pair@$$CBV?$basic_string@DU?$char_traits@D@std@@V?$allocator@D@2@@std@@Uentry@ui_res_catalog@utils@ext_client@@@std@@PAX@std@@@std@@@std@@QAE@XZ 10024cd0 f i ui_res_catalog.obj
 0001:00023cf0       ??1?$_Hash@V?$_Umap_traits@HUentry@ui_res_catalog@utils@ext_client@@V?$_Uhash_compare@HU?$hash@H@std@@U?$equal_to@H@2@@std@@V?$allocator@U?$pair@$$CBHUentry@ui_res_catalog@utils@ext_client@@@std@@@6@$0A@@std@@@std@@QAE@XZ 10024cf0 f i ui_res_catalog.obj
 0001:00023d40       ??1?$_List_node_emplace_op2@V?$allocator@U?$_List_node@U?$pair@$$CBV?$basic_string@DU?$char_traits@D@std@@V?$allocator@D@2@@std@@Uentry@ui_res_catalog@utils@ext_client@@@std@@PAX@std@@@std@@@std@@QAE@XZ 10024d40 f i ui_res_catalog.obj
 0001:00023d70       ??1?$list@U?$pair@$$CBHUentry@ui_res_catalog@utils@ext_client@@@std@@V?$allocator@U?$pair@$$CBHUentry@ui_res_catalog@utils@ext_client@@@std@@@2@@std@@QAE@XZ 10024d70 f i ui_res_catalog.obj
 0001:00023db0       ??1?$list@U?$pair@$$CBV?$basic_string@DU?$char_traits@D@std@@V?$allocator@D@2@@std@@Uentry@ui_res_catalog@utils@ext_client@@@std@@V?$allocator@U?$pair@$$CBV?$basic_string@DU?$char_traits@D@std@@V?$allocator@D@2@@std@@Uentry@ui_res_catalog@utils@ext_client@@@std@@@2@@std@@QAE@XZ 10024db0 f i ui_res_catalog.obj
 0001:00023dd0       ??1?$unordered_map@HUentry@ui_res_catalog@utils@ext_client@@U?$hash@H@std@@U?$equal_to@H@6@V?$allocator@U?$pair@$$CBHUentry@ui_res_catalog@utils@ext_client@@@std@@@6@@std@@QAE@XZ 10024dd0 f i ui_res_catalog.obj
 0001:00023de0       ?_Forced_rehash@?$_Hash@V?$_Umap_traits@V?$basic_string@DU?$char_traits@D@std@@V?$allocator@D@2@@std@@Uentry@ui_res_catalog@utils@ext_client@@V?$_Uhash_compare@V?$basic_string@DU?$char_traits@D@std@@V?$allocator@D@2@@std@@U?$hash@V?$basic_string@DU?$char_traits@D@std@@V?$allocator@D@2@@std@@@2@U?$equal_to@V?$basic_string@DU?$char_traits@D@std@@V?$allocator@D@2@@std@@@2@@2@V?$allocator@U?$pair@$$CBV?$basic_string@DU?$char_traits@D@std@@V?$allocator@D@2@@std@@Uentry@ui_res_catalog@utils@ext_client@@@std@@@2@$0A@@std@@@std@@IAEXI@Z 10024de0 f i ui_res_catalog.obj
 0001:00023fd0       ?_Unchecked_erase@?$_Hash@V?$_Umap_traits@HUentry@ui_res_catalog@utils@ext_client@@V?$_Uhash_compare@HU?$hash@H@std@@U?$equal_to@H@2@@std@@V?$allocator@U?$pair@$$CBHUentry@ui_res_catalog@utils@ext_client@@@std@@@6@$0A@@std@@@std@@AAEPAU?$_List_node@U?$pair@$$CBHUentry@ui_res_catalog@utils@ext_client@@@std@@PAX@2@PAU32@QAU32@@Z 10024fd0 f i ui_res_catalog.obj
 0001:00024160       ?_Unchecked_erase@?$_Hash@V?$_Umap_traits@V?$basic_string@DU?$char_traits@D@std@@V?$allocator@D@2@@std@@Uentry@ui_res_catalog@utils@ext_client@@V?$_Uhash_compare@V?$basic_string@DU?$char_traits@D@std@@V?$allocator@D@2@@std@@U?$hash@V?$basic_string@DU?$char_traits@D@std@@V?$allocator@D@2@@std@@@2@U?$equal_to@V?$basic_string@DU?$char_traits@D@std@@V?$allocator@D@2@@std@@@2@@2@V?$allocator@U?$pair@$$CBV?$basic_string@DU?$char_traits@D@std@@V?$allocator@D@2@@std@@Uentry@ui_res_catalog@utils@ext_client@@@std@@@2@$0A@@std@@@std@@AAEPAU?$_List_node@U?$pair@$$CBV?$basic_string@DU?$char_traits@D@std@@V?$allocator@D@2@@std@@Uentry@ui_res_catalog@utils@ext_client@@@std@@PAX@2@PAU32@QAU32@@Z 10025160 f i ui_res_catalog.obj
 0001:00024310       ?clear@?$_Hash@V?$_Umap_traits@HUentry@ui_res_catalog@utils@ext_client@@V?$_Uhash_compare@HU?$hash@H@std@@U?$equal_to@H@2@@std@@V?$allocator@U?$pair@$$CBHUentry@ui_res_catalog@utils@ext_client@@@std@@@6@$0A@@std@@@std@@QAEXXZ 10025310 f i ui_res_catalog.obj
 0001:000243a0       ?clear@?$_Hash@V?$_Umap_traits@V?$basic_string@DU?$char_traits@D@std@@V?$allocator@D@2@@std@@Uentry@ui_res_catalog@utils@ext_client@@V?$_Uhash_compare@V?$basic_string@DU?$char_traits@D@std@@V?$allocator@D@2@@std@@U?$hash@V?$basic_string@DU?$char_traits@D@std@@V?$allocator@D@2@@std@@@2@U?$equal_to@V?$basic_string@DU?$char_traits@D@std@@V?$allocator@D@2@@std@@@2@@2@V?$allocator@U?$pair@$$CBV?$basic_string@DU?$char_traits@D@std@@V?$allocator@D@2@@std@@Uentry@ui_res_catalog@utils@ext_client@@@std@@@2@$0A@@std@@@std@@QAEXXZ 100253a0 f i ui_res_catalog.obj
 0001:00024410       ?ensure_loaded@ui_res_catalog@utils@ext_client@@YAXW4screen@123@@Z 10025410 f   ui_res_catalog.obj
 0001:00024790       ?find@?$_Hash@V?$_Umap_traits@HUentry@ui_res_catalog@utils@ext_client@@V?$_Uhash_compare@HU?$hash@H@std@@U?$equal_to@H@2@@std@@V?$allocator@U?$pair@$$CBHUentry@ui_res_catalog@utils@ext_client@@@std@@@6@$0A@@std@@@std@@QAE?AV?$_List_iterator@V?$_List_val@U?$_List_simple_types@U?$pair@$$CBHUentry@ui_res_catalog@utils@ext_client@@@std@@@std@@@std@@@2@ABH@Z 10025790 f i ui_res_catalog.obj
 0001:00024800       ?find@ui_res_catalog@utils@ext_client@@YAPBUentry@123@W4screen@123@H@Z 10025800 f   ui_res_catalog.obj
 0001:000248b0       ?find_by_ddj@ui_res_catalog@utils@ext_client@@YAPBUentry@123@W4screen@123@PBD@Z 100258b0 f   ui_res_catalog.obj
 0001:00024a20       ?find_by_name@ui_res_catalog@utils@ext_client@@YAPBUentry@123@W4screen@123@PBD@Z 10025a20 f   ui_res_catalog.obj
 0001:000258c0       ?sync_from_game@ui_res_catalog@utils@ext_client@@YAXPAXW4screen@123@@Z 100268c0 f   ui_res_catalog.obj
 0001:00026730       ?hwnd@cd3d_application@@QBEPAUHWND__@@XZ 10027730 f   cd3d_application.obj
 0001:00026740       ?hwnd_device@cd3d_application@@QBEPAUHWND__@@XZ 10027740 f   cd3d_application.obj
 0001:00026750       ?get@cgfx_video3d@@SAPAV1@XZ 10027750 f   cgfx_video3d.obj
 0001:00026760       ?set_size@cgfx_video3d@@QAE_NII@Z 10027760 f   cgfx_video3d.obj
 0001:00026770       ?current@cps_version_check@@SAPAV1@XZ 10027770 f   cps_version_check.obj
 0001:00026780       ?data_load_started@cps_version_check@@QBE_NXZ 10027780 f   cps_version_check.obj
 0001:00026790       ?is_active@cps_version_check@@SA_NXZ 10027790 f   cps_version_check.obj
 0001:000267a0       ?set_current@cps_version_check@@SAXPAV1@@Z 100277a0 f   cps_version_check.obj
 0001:000267b0       ?set_data_load_started@cps_version_check@@QAEX_N@Z 100277b0 f   cps_version_check.obj
 0001:000267c0       ?set_version_active@cps_version_check@@SAX_N@Z 100277c0 f   cps_version_check.obj
 0001:000267e0       ?version_error_code@cps_version_check@@SAHXZ 100277e0 f   cps_version_check.obj
 0001:000267f0       ?version_error_tag@cps_version_check@@SAHXZ 100277f0 f   cps_version_check.obj
 0001:00026800       ?captcha_active@cps_title@@QBE_NXZ 10027800 f   cps_title.obj
 0001:00026810       ?channel_index@cps_title@@SAHXZ 10027810 f   cps_title.obj
 0001:00026820       ?current@cps_title@@SAPAV1@XZ 10027820 f   cps_title.obj
 0001:00026830       ?is_instance@cps_title@@SA_NPBX@Z 10027830 f   cps_title.obj
 0001:00026910       ?set_current@cps_title@@SAXPAV1@@Z 10027910 f   cps_title.obj
 0001:00026920       ?sync_current@cps_title@@SAPAV1@XZ 10027920 f   cps_title.obj
 0001:000269f0       ?trigger_login@cps_title@@QAEHXZ 100279f0 f   cps_title.obj
 0001:00026a00       ?character_at@cps_character_select@@QBEPAUpcinfo_ui@@H@Z 10027a00 f   cps_character_select.obj
 0001:00026a50       ?current@cps_character_select@@SAPAV1@XZ 10027a50 f   cps_character_select.obj
 0001:00026a60       ?is_live@cps_character_select@@SA_NPBX@Z 10027a60 f   cps_character_select.obj
 0001:00026aa0       ?selected_slot_index@cps_character_select@@SAHXZ 10027aa0 f   cps_character_select.obj
 0001:00026ab0       ?sync_current@cps_character_select@@SAPAV1@XZ 10027ab0 f   cps_character_select.obj
 0001:00026ae0       ?create_outer_wnd@cif_static@@SAPAV1@PAVcgwnd@@PAXABUcgwnd_create_rect@@HH@Z 10027ae0 f   cif_static.obj
 0001:00026af0       ?refresh_layout@cif_static@@QAEHXZ 10027af0 f   cif_static.obj
 0001:00026b00       ?set_text@cif_static@@QAEDPB_W@Z 10027b00 f   cif_static.obj
 0001:00026b10       ?set_text_clip_mode@cif_static@@QAEXW4cif_text_clip_mode@@H@Z 10027b10 f   cif_static.obj
 0001:00026d00       ?set_text_color@cif_static@@QAEHI@Z 10027d00 f   cif_static.obj
 0001:00026d20       ?set_text_fmt@cif_static@@QAEDPB_WHH@Z 10027d20 f   cif_static.obj
 0001:00026d40       ?set_text_fmt@cif_static@@QAEDPB_WN@Z 10027d40 f   cif_static.obj
 0001:00026d70       ?set_visible@cif_static@@QAEH_N@Z 10027d70 f   cif_static.obj
 0001:00026d90       ?version_label_res@cif_static@@SAPAXXZ 10027d90 f   cif_static.obj
 0001:00026da0       ?active@calarm_entry@@QBE_NXZ 10027da0 f   calarm_entry.obj
 0001:00026db0       ?is_daily_login@calarm_entry@@QBE_NXZ 10027db0 f   calarm_entry.obj
 0001:00026dc0       ?is_facebook@calarm_entry@@QBE_NXZ 10027dc0 f   calarm_entry.obj
 0001:00026de0       ?is_magic_lamp@calarm_entry@@QBE_NXZ 10027de0 f   calarm_entry.obj
 0001:00026e00       ?ref_data_ptr@calarm_entry@@QAEPAXXZ 10027e00 f   calarm_entry.obj
 0001:00026e10       ?set_active@calarm_entry@@QAEX_N@Z 10027e10 f   calarm_entry.obj
 0001:00026e20       ?set_type@calarm_entry@@QAEXH@Z 10027e20 f   calarm_entry.obj
 0001:00026e30       ?type@calarm_entry@@QBEHXZ 10027e30 f   calarm_entry.obj
 0001:00026e40       ?entry@calarm_data@@QAEPAVcalarm_entry@@I@Z 10027e40 f   calarm_data.obj
 0001:00026e50       ?alarm_data@calarm_store@@QAEPAVcalarm_data@@XZ 10027e50 f   calarm_store.obj
 0001:00026e60       ?from_interface@calarm_store@@SAPAV1@PAX@Z 10027e60 f   calarm_store.obj
 0001:00026e80       ?active_targets@calarm_guide_mgr_wnd@@SA?AW4promo_target@1@XZ 10027e80 f   calarm_guide_mgr_wnd.obj
 0001:00026f50       ?apply_iface_promo_hide@calarm_guide_mgr_wnd@@SAXPAVcg_interface@@W4promo_target@1@@Z 10027f50 f   calarm_guide_mgr_wnd.obj
 0001:000271e0       ?apply_iface_promo_show@calarm_guide_mgr_wnd@@SAXPAVcg_interface@@W4promo_target@1@@Z 100281e0 f   calarm_guide_mgr_wnd.obj
 0001:000272a0       ?clear_promo_alarm_data@@YAXPAVcalarm_guide_mgr_wnd@@W4promo_target@1@@Z 100282a0 f   calarm_guide_mgr_wnd.obj
 0001:00027410       ?current@calarm_guide_mgr_wnd@@SAPAV1@XZ 10028410 f   calarm_guide_mgr_wnd.obj
 0001:000274b0       ?for_each_guide@calarm_guide_mgr_wnd@@SAXPBV1@P6AXPAVcgwnd@@PAX@Z2@Z 100284b0 f   calarm_guide_mgr_wnd.obj
 0001:00027740       ?invalidate_cache@calarm_guide_mgr_wnd@@SAXXZ 10028740 f   calarm_guide_mgr_wnd.obj
 0001:00027760       ?is_attached_to_iface@calarm_guide_mgr_wnd@@SA_NPBV1@@Z 10028760 f   calarm_guide_mgr_wnd.obj
 0001:000277d0       ?is_instance@cif_daily_login_alarm@@SA_NPBX@Z 100287d0 f i calarm_guide_mgr_wnd.obj
 0001:00027800       ?is_instance@cif_facebook_link_alarm@@SA_NPBX@Z 10028800 f i calarm_guide_mgr_wnd.obj
 0001:00027830       ?is_instance@cif_magic_lamp_alarm@@SA_NPBX@Z 10028830 f i calarm_guide_mgr_wnd.obj
 0001:00027980       ?loose_effect_widget@calarm_guide_mgr_wnd@@SAPAVcgwnd@@PBV1@I@Z 10028980 f   calarm_guide_mgr_wnd.obj
 0001:00027a00       ?loose_slot_widget@calarm_guide_mgr_wnd@@SAPAVcgwnd@@PBV1@I@Z 10028a00 f   calarm_guide_mgr_wnd.obj
 0001:00027a70       ?outer_screen_blocks_alarm_strip@@YA_NXZ 10028a70 f   calarm_guide_mgr_wnd.obj
 0001:00027ae0       ?read_slot_debug@calarm_guide_mgr_wnd@@SAXPBV1@IAAUslot_debug_info@1@@Z 10028ae0 f   calarm_guide_mgr_wnd.obj
 0001:00027d70       ?refresh_slots_safe@calarm_guide_mgr_wnd@@SA_NPBV1@@Z 10028d70 f   calarm_guide_mgr_wnd.obj
 0001:00027df0       ?remember_mgr@@YAPAVcalarm_guide_mgr_wnd@@PAV1@@Z 10028df0 f   calarm_guide_mgr_wnd.obj
 0001:00027e60       ?remove_guide@calarm_guide_mgr_wnd@@QAEHH@Z 10028e60 f   calarm_guide_mgr_wnd.obj
 0001:00028030       ?resolve@calarm_guide_mgr_wnd@@SAPAV1@XZ 10029030 f   calarm_guide_mgr_wnd.obj
 0001:00028c30       ?diagnose@cnif_sro_ingame_start@@SA?AUsurvey_resolve_diag@@PAVcg_interface@@@Z 10029c30 f   cnif_sro_ingame_start.obj
 0001:00028d10       ?find_live@cnif_sro_ingame_start@@SA?AUcnif_sro_ingame_start_live@@PAVcg_interface@@@Z 10029d10 f   cnif_sro_ingame_start.obj
 0001:00028eb0       ?hide_start_panel@cnif_sro_ingame_start@@QAEXXZ 10029eb0 f   cnif_sro_ingame_start.obj
 0001:00028ef0       ?hide_survey_button@cnif_sro_ingame_start@@SAXPAVcg_interface@@@Z 10029ef0 f   cnif_sro_ingame_start.obj
 0001:00028f70       ?is_instance@cnif_sro_ingame_start@@SA_NPBX@Z 10029f70 f   cnif_sro_ingame_start.obj
 0001:00028fc0       ?resolve_start@cnif_sro_ingame_start@@SAPAV1@PAVcg_interface@@@Z 10029fc0 f   cnif_sro_ingame_start.obj
 0001:00029060       ?show_survey_button@cnif_sro_ingame_start@@SAXPAVcg_interface@@@Z 1002a060 f   cnif_sro_ingame_start.obj
 0001:00029190       ?alarm_guide_mgr@cg_interface@@QAEPAVcalarm_guide_mgr_wnd@@XZ 1002a190 f   cg_interface.obj
 0001:000291a0       ?alarm_guide_mgr_popup@cg_interface@@QBEPAXXZ 1002a1a0 f   cg_interface.obj
 0001:000291f0       ?alarm_store@cg_interface@@QAEPAVcalarm_store@@XZ 1002a1f0 f   cg_interface.obj
 0001:00029200       ?get@cg_interface@@SAPAV1@XZ 1002a200 f   cg_interface.obj
 0001:00029220       ?get_ui_child@cg_interface@@QAEPAXH_N@Z 1002a220 f   cg_interface.obj
 0001:00029230       ?is_ingame_hud_ready@cg_interface@@SA_NXZ 1002a230 f   cg_interface.obj
 0001:00029290       ?is_instance@cg_interface@@SA_NPBX@Z 1002a290 f   cg_interface.obj
 0001:000292d0       ?is_ready@cg_interface@@SA_NXZ 1002a2d0 f   cg_interface.obj
 0001:00029300       ?known_child_id@cg_interface@@SAHI@Z 1002a300 f   cg_interface.obj
 0001:00029320       ?known_child_id_count@cg_interface@@SAIXZ 1002a320 f   cg_interface.obj
 0001:00029330       ?show_daily_login_guide@cg_interface@@QAEI_N@Z 1002a330 f   cg_interface.obj
 0001:00029340       ?show_facebook_guide@cg_interface@@QAEI_N@Z 1002a340 f   cg_interface.obj
 0001:00029350       ?show_macro_guide@cg_interface@@QAEI_N@Z 1002a350 f   cg_interface.obj
 0001:00029360       ?show_magic_lamp_guide@cg_interface@@QAEI_N@Z 1002a360 f   cg_interface.obj
 0001:00029370       ?show_web_item_alarm_guide@cg_interface@@QAEI_N@Z 1002a370 f   cg_interface.obj
 0001:00029380       ?ui_res_map@cg_interface@@QAEPAXXZ 1002a380 f   cg_interface.obj
 0001:00029380       ?ui_res_map@cg_interface@@QBEPBXXZ 1002a380 f   cg_interface.obj
 0001:00029390       ?cell_limit@sworld@@QBEHXZ 1002a390 f   sworld.obj
 0001:000293a0       ?instance@sworld@@SAPAV1@XZ 1002a3a0 f   sworld.obj
 0001:000293c0       ?is_instance@sworld@@SA_NXZ 1002a3c0 f   sworld.obj
 0001:00029400       ?option@sworld@@QBEHI@Z    1002a400 f   sworld.obj
 0001:00029420       ?set_cell_limit@sworld@@QAEXH@Z 1002a420 f   sworld.obj
 0001:00029430       ?set_sight_range@sworld@@QAEXM@Z 1002a430 f   sworld.obj
 0001:00029450       ?sight_range@sworld@@QBEMXZ 1002a450 f   sworld.obj
 0001:00029460       ?from_ptr@cic_deco_character@@SAPAV1@PAX@Z 1002a460 f   cic_deco_character.obj
 0001:00029490       ?play_animation@cic_deco_character@@QAE_NHHHHMM@Z 1002a490 f   cic_deco_character.obj
 0001:00029520       ?client_data_version@cgwnd@@SAIXZ 1002a520 f   cgwnd.obj
 0001:00029540       ?get_bounds@cgwnd@@QBE?AUcgwnd_bounds@@XZ 1002a540 f   cgwnd.obj
 0001:00029570       ?interface_under_cursor@cgwnd@@SAPAV1@XZ 1002a570 f   cgwnd.obj
 0001:000295c0       ?screen_height@cgwnd@@SAHXZ 1002a5c0 f   cgwnd.obj
 0001:000295d0       ?set_anim@cgwnd@@QAEXHMMH@Z 1002a5d0 f   cgwnd.obj
 0001:00029600       ?set_position@cgwnd@@QAEHHH@Z 1002a600 f   cgwnd.obj
 0001:00029620       ?set_position@cgwnd@@SAHPAV1@HH@Z 1002a620 f   cgwnd.obj
 0001:00029640       ?set_size@cgwnd@@QAEHHH@Z  1002a640 f   cgwnd.obj
 0001:00029660       ?set_size@cgwnd@@SAHPAV1@HH@Z 1002a660 f   cgwnd.obj
 0001:00029680       ?set_visible@cgwnd@@QAEH_N@Z 1002a680 f   cgwnd.obj
 0001:000296d0       ?set_visible@cgwnd@@SAHPAV1@_N@Z 1002a6d0 f   cgwnd.obj
 0001:00029720       ?as_gwnd@hierarchy@sdk@ext_client@@YAPAVcgwnd@@PAUcps_outer_interface@@@Z 1002a720 f   sro_hierarchy.obj
 0001:00029730       ?active_child@process_manager@utils@ext_client@@YAPAXXZ 1002a730 f   process_manager.obj
 0001:00029770       ?active_child_vftable@process_manager@utils@ext_client@@YAIXZ 1002a770 f   process_manager.obj
 0001:000297e0       ?note_set_child_process@process_manager@utils@ext_client@@YAXPAXH@Z 1002a7e0 f   process_manager.obj
 0001:00029840       ?resolved_active_child@process_manager@utils@ext_client@@YAPAXXZ 1002a840 f   process_manager.obj
 0001:000298e0       ?current_exe_name@process@utils@ext_client@@YA?AV?$basic_string@DU?$char_traits@D@std@@V?$allocator@D@2@@std@@XZ 1002a8e0 f   process.obj
 0001:00029c70       ?exe_directory@process@utils@ext_client@@YA_NPADI@Z 1002ac70 f   process.obj
 0001:00029cc0       ?is_current_process@process@utils@ext_client@@YA_NPBD@Z 1002acc0 f   process.obj
 0001:00029dd0       ??0?$basic_string@_WU?$char_traits@_W@std@@V?$allocator@_W@2@@std@@QAE@I_W@Z 1002add0 f i string.obj
 0001:00029ed0       ?basename@string@utils@ext_client@@YA?AV?$basic_string_view@DU?$char_traits@D@std@@@std@@V45@@Z 1002aed0 f   string.obj
 0001:00029fc0       ?paths_match@string@utils@ext_client@@YA_NV?$basic_string_view@DU?$char_traits@D@std@@@std@@0@Z 1002afc0 f   string.obj
 0001:0002a040       ?to_utf8@string@utils@ext_client@@YA?AV?$basic_string@DU?$char_traits@D@std@@V?$allocator@D@2@@std@@V?$basic_string_view@_WU?$char_traits@_W@std@@@5@@Z 1002b040 f   string.obj
 0001:0002a130       ?to_wide@string@utils@ext_client@@YA?AV?$basic_string@_WU?$char_traits@_W@std@@V?$allocator@_W@2@@std@@V?$basic_string_view@DU?$char_traits@D@std@@@5@@Z 1002b130 f   string.obj
 0001:0002a220       ?trim@string@utils@ext_client@@YA?AV?$basic_string_view@DU?$char_traits@D@std@@@std@@V45@@Z 1002b220 f   string.obj
 0001:0002a390       ??0ImDrawList@@QAE@PAUImDrawListSharedData@@@Z 1002b390 f i imgui.obj
 0001:0002a470       ??0ImGuiContext@@QAE@PAUImFontAtlas@@@Z 1002b470 f i imgui.obj
 0001:0002b4f0       ??0ImGuiIO@@QAE@XZ         1002c4f0 f   imgui.obj
 0001:0002b710       ??0ImGuiListClipper@@QAE@XZ 1002c710 f   imgui.obj
 0001:0002b730       ??0ImGuiNavItemData@@QAE@XZ 1002c730 f i imgui.obj
 0001:0002b790       ??0ImGuiStyle@@QAE@XZ      1002c790 f   imgui.obj
 0001:0002b9c0       ??0ImGuiWindow@@QAE@PAUImGuiContext@@PBD@Z 1002c9c0 f   imgui.obj
 0001:0002c0c0       ??1?$ImChunkStream@UImGuiTableSettings@@@@QAE@XZ 1002d0c0 f i imgui.obj
 0001:0002c0c0       ??1?$ImChunkStream@UImGuiWindowSettings@@@@QAE@XZ 1002d0c0 f i imgui.obj
 0001:0002c0c0       ??1ImGuiStorage@@QAE@XZ    1002d0c0 f i imgui.obj
 0001:0002c0c0       ??1ImGuiTextBuffer@@QAE@XZ 1002d0c0 f i imgui.obj
 0001:0002c0c0       ??1ImGuiTextIndex@@QAE@XZ  1002d0c0 f i imgui.obj
 0001:0002c110       ??1?$ImPool@UImGuiTabBar@@@@QAE@XZ 1002d110 f i imgui.obj
 0001:0002c180       ??1?$ImPool@UImGuiTable@@@@QAE@XZ 1002d180 f i imgui.obj
 0001:0002c1f0       ??1?$ImVector@D@@QAE@XZ    1002d1f0 f i imgui.obj
 0001:0002c1f0       ??1?$ImVector@E@@QAE@XZ    1002d1f0 f i imgui.obj
 0001:0002c1f0       ??1?$ImVector@G@@QAE@XZ    1002d1f0 f i imgui.obj
 0001:0002c1f0       ??1?$ImVector@H@@QAE@XZ    1002d1f0 f i imgui.obj
 0001:0002c1f0       ??1?$ImVector@I@@QAE@XZ    1002d1f0 f i imgui.obj
 0001:0002c1f0       ??1?$ImVector@M@@QAE@XZ    1002d1f0 f i imgui.obj
 0001:0002c1f0       ??1?$ImVector@PAUImDrawList@@@@QAE@XZ 1002d1f0 f i imgui.obj
 0001:0002c1f0       ??1?$ImVector@PAUImFont@@@@QAE@XZ 1002d1f0 f i imgui.obj
 0001:0002c1f0       ??1?$ImVector@PAUImGuiViewportP@@@@QAE@XZ 1002d1f0 f i imgui.obj
 0001:0002c1f0       ??1?$ImVector@PAUImGuiWindow@@@@QAE@XZ 1002d1f0 f i imgui.obj
 0001:0002c1f0       ??1?$ImVector@UImDrawChannel@@@@QAE@XZ 1002d1f0 f i imgui.obj
 0001:0002c1f0       ??1?$ImVector@UImFontAtlasCustomRect@@@@QAE@XZ 1002d1f0 f i imgui_draw.obj
 0001:0002c1f0       ??1?$ImVector@UImFontBuildDstData@@@@QAE@XZ 1002d1f0 f i imgui_draw.obj
 0001:0002c1f0       ??1?$ImVector@UImFontBuildSrcData@@@@QAE@XZ 1002d1f0 f i imgui_draw.obj
 0001:0002c1f0       ??1?$ImVector@UImFontConfig@@@@QAE@XZ 1002d1f0 f i imgui_draw.obj
 0001:0002c1f0       ??1?$ImVector@UImGuiColorMod@@@@QAE@XZ 1002d1f0 f i imgui.obj
 0001:0002c1f0       ??1?$ImVector@UImGuiContextHook@@@@QAE@XZ 1002d1f0 f i imgui.obj
 0001:0002c1f0       ??1?$ImVector@UImGuiFocusScopeData@@@@QAE@XZ 1002d1f0 f i imgui.obj
 0001:0002c1f0       ??1?$ImVector@UImGuiGroupData@@@@QAE@XZ 1002d1f0 f i imgui.obj
 0001:0002c1f0       ??1?$ImVector@UImGuiInputEvent@@@@QAE@XZ 1002d1f0 f i imgui.obj
 0001:0002c1f0       ??1?$ImVector@UImGuiKeyRoutingData@@@@QAE@XZ 1002d1f0 f i imgui.obj
 0001:0002c1f0       ??1?$ImVector@UImGuiListClipperData@@@@QAE@XZ 1002d1f0 f i imgui.obj
 0001:0002c1f0       ??1?$ImVector@UImGuiNavTreeNodeData@@@@QAE@XZ 1002d1f0 f i imgui.obj
 0001:0002c1f0       ??1?$ImVector@UImGuiOldColumns@@@@QAE@XZ 1002d1f0 f i imgui.obj
 0001:0002c1f0       ??1?$ImVector@UImGuiPopupData@@@@QAE@XZ 1002d1f0 f i imgui.obj
 0001:0002c1f0       ??1?$ImVector@UImGuiPtrOrIndex@@@@QAE@XZ 1002d1f0 f i imgui.obj
 0001:0002c1f0       ??1?$ImVector@UImGuiSettingsHandler@@@@QAE@XZ 1002d1f0 f i imgui.obj
 0001:0002c1f0       ??1?$ImVector@UImGuiShrinkWidthItem@@@@QAE@XZ 1002d1f0 f i imgui.obj
 0001:0002c1f0       ??1?$ImVector@UImGuiStyleMod@@@@QAE@XZ 1002d1f0 f i imgui.obj
 0001:0002c1f0       ??1?$ImVector@UImGuiTableTempData@@@@QAE@XZ 1002d1f0 f i imgui.obj
 0001:0002c1f0       ??1?$ImVector@UImGuiWindowStackData@@@@QAE@XZ 1002d1f0 f i imgui.obj
 0001:0002c1f0       ??1?$ImVector@UImVec2@@@@QAE@XZ 1002d1f0 f i imgui.obj
 0001:0002c1f0       ??1?$ImVector@Ustbrp_rect@@@@QAE@XZ 1002d1f0 f i imgui_draw.obj
 0001:0002c1f0       ??1?$ImVector@Ustbtt_packedchar@@@@QAE@XZ 1002d1f0 f i imgui_draw.obj
 0001:0002c1f0       ??1?$ImVector@_W@@QAE@XZ   1002d1f0 f i imgui.obj
 0001:0002c240       ??1ImDrawList@@QAE@XZ      1002d240 f i imgui.obj
 0001:0002c340       ??1ImDrawListSharedData@@QAE@XZ 1002d340 f i imgui.obj
 0001:0002c390       ??1ImGuiContext@@QAE@XZ    1002d390 f i imgui.obj
 0001:0002c8f0       ??1ImGuiIDStackTool@@QAE@XZ 1002d8f0 f i imgui.obj
 0001:0002c940       ??1ImGuiIO@@QAE@XZ         1002d940 f i imgui.obj
 0001:0002c990       ??1ImGuiInputTextDeactivatedState@@QAE@XZ 1002d990 f i imgui.obj
 0001:0002c9e0       ??1ImGuiInputTextState@@QAE@XZ 1002d9e0 f i imgui.obj
 0001:0002ca60       ??1ImGuiKeyRoutingTable@@QAE@XZ 1002da60 f i imgui.obj
 0001:0002cad0       ??1ImGuiListClipper@@QAE@XZ 1002dad0 f   imgui.obj
 0001:0002cb10       ??1ImGuiListClipperData@@QAE@XZ 1002db10 f i imgui.obj
 0001:0002cb60       ??1ImGuiTableTempData@@QAE@XZ 1002db60 f i imgui.obj
 0001:0002cbe0       ??1ImGuiWindow@@QAE@XZ     1002dbe0 f   imgui.obj
 0001:0002cdf0       ??1ImGuiWindowTempData@@QAE@XZ 1002ddf0 f i imgui.obj
 0001:0002ce80       ?AcceptDragDropPayload@ImGui@@YAPBUImGuiPayload@@PBDH@Z 1002de80 f   imgui.obj
 0001:0002d0f0       ?AddFocusEvent@ImGuiIO@@QAEX_N@Z 1002e0f0 f   imgui.obj
 0001:0002d1a0       ?AddInputCharacter@ImGuiIO@@QAEXI@Z 1002e1a0 f   imgui.obj
 0001:0002d210       ?AddInputCharacterUTF16@ImGuiIO@@QAEXG@Z 1002e210 f   imgui.obj
 0001:0002d2b0       ?AddKeyAnalogEvent@ImGuiIO@@QAEXW4ImGuiKey@@_NM@Z 1002e2b0 f   imgui.obj
 0001:0002d4a0       ?AddKeyEvent@ImGuiIO@@QAEXW4ImGuiKey@@_N@Z 1002e4a0 f   imgui.obj
 0001:0002d4f0       ?AddMouseButtonEvent@ImGuiIO@@QAEXH_N@Z 1002e4f0 f   imgui.obj
 0001:0002d660       ?AddMousePosEvent@ImGuiIO@@QAEXMM@Z 1002e660 f   imgui.obj
 0001:0002d790       ?AddMouseSourceEvent@ImGuiIO@@QAEXW4ImGuiMouseSource@@@Z 1002e790 f   imgui.obj
 0001:0002d7b0       ?AddMouseWheelEvent@ImGuiIO@@QAEXMM@Z 1002e7b0 f   imgui.obj
 0001:0002d840       ?AddSettingsHandler@ImGui@@YAXPBUImGuiSettingsHandler@@@Z 1002e840 f   imgui.obj
 0001:0002da90       ?Begin@ImGui@@YA_NPBDPA_NH@Z 1002ea90 f   imgui.obj
 0001:0002fef0       ?Begin@ImGuiListClipper@@QAEXHM@Z 10030ef0 f   imgui.obj
 0001:00030180       ?BeginChild@ImGui@@YA_NPBDABUImVec2@@HH@Z 10031180 f   imgui.obj
 0001:000301f0       ?BeginChildEx@ImGui@@YA_NPBDIABUImVec2@@HH@Z 100311f0 f   imgui.obj
 0001:000305e0       ?BeginDisabled@ImGui@@YAX_N@Z 100315e0 f   imgui.obj
 0001:00030650       ?BeginDragDropSource@ImGui@@YA_NH@Z 10031650 f   imgui.obj
 0001:00030930       ?BeginDragDropTarget@ImGui@@YA_NXZ 10031930 f   imgui.obj
 0001:00030a10       ?BeginGroup@ImGui@@YAXXZ   10031a10 f   imgui.obj
 0001:00030b70       ?BeginPopup@ImGui@@YA_NPBDH@Z 10031b70 f   imgui.obj
 0001:00030bf0       ?BeginPopupEx@ImGui@@YA_NIH@Z 10031bf0 f   imgui.obj
 0001:00030cb0       ?BeginTooltipEx@ImGui@@YA_NHH@Z 10031cb0 f   imgui.obj
 0001:00030e30       ?CalcFontSize@ImGuiWindow@@QBEMXZ 10031e30 f i imgui.obj
 0001:00030e70       ?CalcItemSize@ImGui@@YA?AUImVec2@@U2@MM@Z 10031e70 f   imgui.obj
 0001:00030f40       ?CalcItemWidth@ImGui@@YAMXZ 10031f40 f   imgui.obj
 0001:00031120       ?CalcTextSize@ImGui@@YA?AUImVec2@@PBD0_NM@Z 10032120 f   imgui.obj
 0001:000311f0       ?CalcTypematicRepeatAmount@ImGui@@YAHMMMM@Z 100321f0 f   imgui.obj
 0001:00031660       ?CalcWindowNextAutoFitSize@ImGui@@YA?AUImVec2@@PAUImGuiWindow@@@Z 10032660 f   imgui.obj
 0001:000317d0       ?CalcWrapWidthForPos@ImGui@@YAMABUImVec2@@M@Z 100327d0 f   imgui.obj
 0001:00031840       ?CallContextHooks@ImGui@@YAXPAUImGuiContext@@W4ImGuiContextHookType@@@Z 10032840 f   imgui.obj
 0001:000318e0       ?Clear@?$ImPool@UImGuiTabBar@@@@QAEXXZ 100328e0 f i imgui.obj
 0001:000319e0       ?Clear@?$ImPool@UImGuiTable@@@@QAEXXZ 100329e0 f i imgui.obj
 0001:00031b80       ?Clear@ImGuiKeyRoutingTable@@QAEXXZ 10032b80 f i imgui.obj
 0001:00031c00       ?ClearActiveID@ImGui@@YAXXZ 10032c00 f   imgui.obj
 0001:00031c10       ?ClearDragDrop@ImGui@@YAXXZ 10032c10 f   imgui.obj
 0001:00031d00       ?ClearEventsQueue@ImGuiIO@@QAEXXZ 10032d00 f   imgui.obj
 0001:00031d40       ?ClearInputKeys@ImGuiIO@@QAEXXZ 10032d40 f   imgui.obj
 0001:00031e10       ?ClearInputMouse@ImGuiIO@@QAEXXZ 10032e10 f   imgui.obj
 0001:00031f30       ?CloseCurrentPopup@ImGui@@YAXXZ 10032f30 f   imgui.obj
 0001:00031fe0       ?ClosePopupToLevel@ImGui@@YAXH_N@Z 10032fe0 f   imgui.obj
 0001:000320a0       ?ClosePopupsOverWindow@ImGui@@YAXPAUImGuiWindow@@_N@Z 100330a0 f   imgui.obj
 0001:00032190       ?ColorConvertFloat4ToU32@ImGui@@YAIABUImVec4@@@Z 10033190 f   imgui.obj
 0001:00032250       ?ColorConvertHSVtoRGB@ImGui@@YAXMMMAAM00@Z 10033250 f   imgui.obj
 0001:000323c0       ?ColorConvertRGBtoHSV@ImGui@@YAXMMMAAM00@Z 100333c0 f   imgui.obj
 0001:00032470       ?ColorConvertU32ToFloat4@ImGui@@YA?AUImVec4@@I@Z 10033470 f   imgui.obj
 0001:00032520       ?Contains@ImRect@@QBE_NABUImVec2@@@Z 10033520 f i imgui.obj
 0001:00032560       ?ConvertSingleModFlagToKey@ImGui@@YA?AW4ImGuiKey@@W42@@Z 10033560 f i imgui.obj
 0001:000325a0       ?CreateContext@ImGui@@YAPAUImGuiContext@@PAUImFontAtlas@@@Z 100335a0 f   imgui.obj
 0001:00032900       ?CreateNewWindowSettings@ImGui@@YAPAUImGuiWindowSettings@@PBD@Z 10033900 f   imgui.obj
 0001:000329b0       ?DebugCheckVersionAndDataLayout@ImGui@@YA_NPBDIIIIII@Z 100339b0 f   imgui.obj
 0001:00032a40       ?DebugHookIdInfo@ImGui@@YAXIHPBX0@Z 10033a40 f   imgui.obj
 0001:00032c80       ?DebugLocateItemResolveWithLastItem@ImGui@@YAXXZ 10033c80 f   imgui.obj
 0001:00032de0       ?DebugLog@ImGui@@YAXPBDZZ  10033de0 f   imgui.obj
 0001:00032e00       ?DebugLogV@ImGui@@YAXPBDPAD@Z 10033e00 f   imgui.obj
 0001:000331e0       ?DestroyContext@ImGui@@YAXPAUImGuiContext@@@Z 100341e0 f   imgui.obj
 0001:00033230       ?End@ImGui@@YAXXZ          10034230 f   imgui.obj
 0001:00033540       ?End@ImGuiListClipper@@QAEXXZ 10034540 f   imgui.obj
 0001:000335d0       ?EndChild@ImGui@@YAXXZ     100345d0 f   imgui.obj
 0001:00033790       ?EndDisabled@ImGui@@YAXXZ  10034790 f   imgui.obj
 0001:000337e0       ?EndDragDropSource@ImGui@@YAXXZ 100347e0 f   imgui.obj
 0001:00033810       ?EndDragDropTarget@ImGui@@YAXXZ 10034810 f   imgui.obj
 0001:00033830       ?EndFrame@ImGui@@YAXXZ     10034830 f   imgui.obj
 0001:00033b90       ?EndGroup@ImGui@@YAXXZ     10034b90 f   imgui.obj
 0001:00033e40       ?EndPopup@ImGui@@YAXXZ     10034e40 f   imgui.obj
 0001:00033ea0       ?EndTooltip@ImGui@@YAXXZ   10034ea0 f   imgui.obj
 0001:00033eb0       ?ErrorCheckUsingSetCursorPosToExtendParentBoundaries@ImGui@@YAXXZ 10034eb0 f   imgui.obj
 0001:00033f00       ?FindBestWindowPosForPopup@ImGui@@YA?AUImVec2@@PAUImGuiWindow@@@Z 10034f00 f   imgui.obj
 0001:000341e0       ?FindBestWindowPosForPopupEx@ImGui@@YA?AUImVec2@@ABU2@0PAW4ImGuiDir@@ABUImRect@@2W4ImGuiPopupPositionPolicy@@@Z 100351e0 f   imgui.obj
 0001:000344c0       ?FindHoveredWindowEx@ImGui@@YAXABUImVec2@@_NPAPAUImGuiWindow@@2@Z 100354c0 f   imgui.obj
 0001:00034700       ?FindRenderedTextEnd@ImGui@@YAPBDPBD0@Z 10035700 f   imgui.obj
 0001:00034730       ?FindWindowByID@ImGui@@YAPAUImGuiWindow@@I@Z 10035730 f   imgui.obj
 0001:00034790       ?FindWindowByName@ImGui@@YAPAUImGuiWindow@@PBD@Z 10035790 f   imgui.obj
 0001:00034820       ?FindWindowSettingsByID@ImGui@@YAPAUImGuiWindowSettings@@I@Z 10035820 f   imgui.obj
 0001:00034870       ?FocusTopMostWindowUnderOne@ImGui@@YAXPAUImGuiWindow@@0PAUImGuiViewport@@H@Z 10035870 f   imgui.obj
 0001:00034900       ?FocusWindow@ImGui@@YAXPAUImGuiWindow@@H@Z 10035900 f   imgui.obj
 0001:00034c90       ?GetClipboardText@ImGui@@YAPBDXZ 10035c90 f   imgui.obj
 0001:00034da0       ?GetColorU32@ImGui@@YAIABUImVec4@@@Z 10035da0 f   imgui.obj
 0001:00034e70       ?GetColorU32@ImGui@@YAIHM@Z 10035e70 f   imgui.obj
 0001:00034f50       ?GetColorU32@ImGui@@YAIIM@Z 10035f50 f   imgui.obj
 0001:00034fb0       ?GetContentRegionAvail@ImGui@@YA?AUImVec2@@XZ 10035fb0 f   imgui.obj
 0001:00035010       ?GetCurrentContext@ImGui@@YAPAUImGuiContext@@XZ 10036010 f   imgui.obj
 0001:00035020       ?GetCursorScreenPos@ImGui@@YA?AUImVec2@@XZ 10036020 f   imgui.obj
 0001:00035050       ?GetDrawData@ImGui@@YAPAUImDrawData@@XZ 10036050 f   imgui.obj
 0001:00035070       ?GetFontTexUvWhitePixel@ImGui@@YA?AUImVec2@@XZ 10036070 f   imgui.obj
 0001:00035090       ?GetForegroundDrawList@ImGui@@YAPAUImDrawList@@XZ 10036090 f   imgui.obj
 0001:000350b0       ?GetFrameHeight@ImGui@@YAMXZ 100360b0 f   imgui.obj
 0001:000350e0       ?GetID@ImGui@@YAIPBD@Z     100360e0 f   imgui.obj
 0001:00035130       ?GetID@ImGuiWindow@@QAEIH@Z 10036130 f   imgui.obj
 0001:00035190       ?GetID@ImGuiWindow@@QAEIPBD0@Z 10036190 f   imgui.obj
 0001:000351f0       ?GetID@ImGuiWindow@@QAEIPBX@Z 100361f0 f   imgui.obj
 0001:00035250       ?GetIDFromRectangle@ImGuiWindow@@QAEIABUImRect@@@Z 10036250 f   imgui.obj
 0001:000352f0       ?GetIDWithSeed@ImGui@@YAIHI@Z 100362f0 f   imgui.obj
 0001:00035340       ?GetIDWithSeed@ImGui@@YAIPBD0I@Z 10036340 f   imgui.obj
 0001:00035390       ?GetIO@ImGui@@YAAAUImGuiIO@@XZ 10036390 f   imgui.obj
 0001:000353a0       ?GetInt@ImGuiStorage@@QBEHIH@Z 100363a0 f   imgui.obj
 0001:00035410       ?GetIntRef@ImGuiStorage@@QAEPAHIH@Z 10036410 f   imgui.obj
 0001:00035490       ?GetKeyChordName@ImGui@@YAPBDH@Z 10036490 f   imgui.obj
 0001:00035560       ?GetKeyData@ImGui@@YAPAUImGuiKeyData@@PAUImGuiContext@@W4ImGuiKey@@@Z 10036560 f   imgui.obj
 0001:000355d0       ?GetKeyMagnitude2d@ImGui@@YA?AUImVec2@@W4ImGuiKey@@000@Z 100365d0 f   imgui.obj
 0001:00035640       ?GetKeyName@ImGui@@YAPBDW4ImGuiKey@@@Z 10036640 f   imgui.obj
 0001:000356a0       ?GetKeyOwnerData@ImGui@@YAPAUImGuiKeyOwnerData@@PAUImGuiContext@@W4ImGuiKey@@@Z 100366a0 f i imgui.obj
 0001:00035720       ?GetKeyPressedAmount@ImGui@@YAHW4ImGuiKey@@MM@Z 10036720 f   imgui.obj
 0001:000357c0       ?GetMainViewport@ImGui@@YAPAUImGuiViewport@@XZ 100367c0 f   imgui.obj
 0001:00035840       ?GetMouseCursor@ImGui@@YAHXZ 10036840 f   imgui.obj
 0001:00035850       ?GetMousePos@ImGui@@YA?AUImVec2@@XZ 10036850 f   imgui.obj
 0001:00035870       ?GetNavTweakPressedAmount@ImGui@@YAMW4ImGuiAxis@@@Z 10036870 f   imgui.obj
 0001:00035a60       ?GetPopupAllowedExtentRect@ImGui@@YA?AUImRect@@PAUImGuiWindow@@@Z 10036a60 f   imgui.obj
 0001:00035c50       ?GetScrollMaxY@ImGui@@YAMXZ 10036c50 f   imgui.obj
 0001:00035c70       ?GetShortcutRoutingData@ImGui@@YAPAUImGuiKeyRoutingData@@H@Z 10036c70 f   imgui.obj
 0001:00035d60       ?GetStyle@ImGui@@YAAAUImGuiStyle@@XZ 10036d60 f   imgui.obj
 0001:00035d70       ?GetTextLineHeight@ImGui@@YAMXZ 10036d70 f   imgui.obj
 0001:00035d80       ?GetTopMostPopupModal@ImGui@@YAPAUImGuiWindow@@XZ 10036d80 f   imgui.obj
 0001:00035dc0       ?GetTypematicRepeatRate@ImGui@@YAXHPAM0@Z 10036dc0 f   imgui.obj
 0001:00035f20       ?ImAlphaBlendColors@@YAIII@Z 10036f20 f   imgui.obj
 0001:00035fe0       ?ImFileOpen@@YAPAU_iobuf@@PBD0@Z 10036fe0 f   imgui.obj
 0001:00036180       ?ImFormatString@@YAHPADIPBDZZ 10037180 f   imgui.obj
 0001:000361d0       ?ImFormatStringToTempBuffer@@YAXPAPBD0PBDZZ 100371d0 f   imgui.obj
 0001:000362e0       ?ImFormatStringToTempBufferV@@YAXPAPBD0PBDPAD@Z 100372e0 f   imgui.obj
 0001:00036c10       ?ImHashStr@@YAIPBDII@Z     10037c10 f   imgui.obj
 0001:00036cb0       ?ImStrSkipBlank@@YAPBDPBD@Z 10037cb0 f   imgui.obj
 0001:00036cd0       ?ImStrTrimBlanks@@YAXPAD@Z 10037cd0 f   imgui.obj
 0001:00036d30       ?ImStrbolW@@YAPBGPBG0@Z    10037d30 f   imgui.obj
 0001:00036d50       ?ImStrncpy@@YAXPADPBDI@Z   10037d50 f   imgui.obj
 0001:00036d80       ?ImTextCharFromUtf8@@YAHPAIPBD1@Z 10037d80 f   imgui.obj
 0001:00036ef0       ?ImTextCountCharsFromUtf8@@YAHPBD0@Z 10037ef0 f   imgui.obj
 0001:00037070       ?ImTextCountUtf8BytesFromStr@@YAHPBG0@Z 10038070 f   imgui.obj
 0001:000370d0       ?ImTextStrFromUtf8@@YAHPAGHPBD1PAPBD@Z 100380d0 f   imgui.obj
 0001:000372a0       ?ImTextStrToUtf8@@YAHPADHPBG1@Z 100382a0 f   imgui.obj
 0001:00037360       ?ImTriangleBarycentricCoords@@YAXABUImVec2@@000AAM11@Z 10038360 f   imgui.obj
 0001:00037420       ?ImTriangleClosestPoint@@YA?AUImVec2@@ABU1@000@Z 10038420 f   imgui.obj
 0001:000376b0       ?ImTriangleContainsPoint@@YA_NABUImVec2@@000@Z 100386b0 f   imgui.obj
 0001:00037780       ?IncludeItemsByIndex@ImGuiListClipper@@QAEXHH@Z 10038780 f   imgui.obj
 0001:000377d0       ?Indent@ImGui@@YAXM@Z      100387d0 f   imgui.obj
 0001:00037950       ?Initialize@ImGui@@YAXXZ   10038950 f   imgui.obj
 0001:00037ef0       ?IsAnyItemHovered@ImGui@@YA_NXZ 10038ef0 f   imgui.obj
 0001:00037f10       ?IsClippedEx@ImGui@@YA_NABUImRect@@I@Z 10038f10 f   imgui.obj
 0001:00037f90       ?IsItemActive@ImGui@@YA_NXZ 10038f90 f   imgui.obj
 0001:00037fb0       ?IsItemClicked@ImGui@@YA_NH@Z 10038fb0 f   imgui.obj
 0001:00038010       ?IsItemDeactivatedAfterEdit@ImGui@@YA_NXZ 10039010 f   imgui.obj
 0001:00038070       ?IsItemHovered@ImGui@@YA_NH@Z 10039070 f   imgui.obj
 0001:00038290       ?IsKeyChordPressed@ImGui@@YA_NHHI@Z 10039290 f   imgui.obj
 0001:00038300       ?IsKeyDown@ImGui@@YA_NW4ImGuiKey@@@Z 10039300 f   imgui.obj
 0001:00038370       ?IsKeyDown@ImGui@@YA_NW4ImGuiKey@@I@Z 10039370 f   imgui.obj
 0001:000383b0       ?IsKeyPressed@ImGui@@YA_NW4ImGuiKey@@HI@Z 100393b0 f   imgui.obj
 0001:000384f0       ?IsKeyPressed@ImGui@@YA_NW4ImGuiKey@@_N@Z 100394f0 f   imgui.obj
 0001:00038510       ?IsKeyReleased@ImGui@@YA_NW4ImGuiKey@@@Z 10039510 f   imgui.obj
 0001:00038590       ?IsMouseClicked@ImGui@@YA_NHHI@Z 10039590 f   imgui.obj
 0001:00038620       ?IsMouseClicked@ImGui@@YA_NH_N@Z 10039620 f   imgui.obj
 0001:000386b0       ?IsMouseDoubleClicked@ImGui@@YA_NH@Z 100396b0 f   imgui.obj
 0001:00038710       ?IsMouseDown@ImGui@@YA_NH@Z 10039710 f   imgui.obj
 0001:00038770       ?IsMouseDown@ImGui@@YA_NHI@Z 10039770 f   imgui.obj
 0001:000387b0       ?IsMouseDragPastThreshold@ImGui@@YA_NHM@Z 100397b0 f   imgui.obj
 0001:000387f0       ?IsMouseDragging@ImGui@@YA_NHM@Z 100397f0 f   imgui.obj
 0001:00038830       ?IsMouseHoveringRect@ImGui@@YA_NABUImVec2@@0_N@Z 10039830 f   imgui.obj
 0001:000388e0       ?IsMousePosValid@ImGui@@YA_NPBUImVec2@@@Z 100398e0 f   imgui.obj
 0001:00038920       ?IsMouseReleased@ImGui@@YA_NH@Z 10039920 f   imgui.obj
 0001:00038980       ?IsMouseReleased@ImGui@@YA_NHI@Z 10039980 f   imgui.obj
 0001:000389c0       ?IsPopupOpen@ImGui@@YA_NIH@Z 100399c0 f   imgui.obj
 0001:00038a50       ?IsWindowChildOf@ImGui@@YA_NPAUImGuiWindow@@0_N@Z 10039a50 f   imgui.obj
 0001:00038aa0       ?IsWindowContentHoverable@ImGui@@YA_NPAUImGuiWindow@@H@Z 10039aa0 f   imgui.obj
 0001:00038b00       ?IsWindowWithinBeginStackOf@ImGui@@YA_NPAUImGuiWindow@@0@Z 10039b00 f   imgui.obj
 0001:00038b30       ?ItemAdd@ImGui@@YA_NABUImRect@@IPBU2@H@Z 10039b30 f   imgui.obj
 0001:00038e20       ?ItemHoverable@ImGui@@YA_NABUImRect@@IH@Z 10039e20 f   imgui.obj
 0001:00039060       ?ItemSize@ImGui@@YAXABUImVec2@@M@Z 1003a060 f   imgui.obj
 0001:000391c0       ?KeepAliveID@ImGui@@YAXI@Z 1003a1c0 f   imgui.obj
 0001:000391f0       ?LoadIniSettingsFromMemory@ImGui@@YAXPBDI@Z 1003a1f0 f   imgui.obj
 0001:00039400       ?LogRenderedText@ImGui@@YAXPBUImVec2@@PBD1@Z 1003a400 f   imgui.obj
 0001:000395c0       ?LogSetNextTextDecoration@ImGui@@YAXPBD0@Z 1003a5c0 f   imgui.obj
 0001:000395e0       ?LogText@ImGui@@YAXPBDZZ   1003a5e0 f   imgui.obj
 0001:00039690       ?MarkIniSettingsDirty@ImGui@@YAXPAUImGuiWindow@@@Z 1003a690 f   imgui.obj
 0001:000396c0       ?MarkIniSettingsDirty@ImGui@@YAXXZ 1003a6c0 f   imgui.obj
 0001:000396e0       ?MarkItemEdited@ImGui@@YAXI@Z 1003a6e0 f   imgui.obj
 0001:00039720       ?MemAlloc@ImGui@@YAPAXI@Z  1003a720 f   imgui.obj
 0001:000397c0       ?MemFree@ImGui@@YAXPAX@Z   1003a7c0 f   imgui.obj
 0001:00039b30       ?NavClearPreferredPosForAxis@ImGui@@YAXW4ImGuiAxis@@@Z 1003ab30 f   imgui.obj
 0001:00039b60       ?NavInitWindow@ImGui@@YAXPAUImGuiWindow@@_N@Z 1003ab60 f   imgui.obj
 0001:00039c70       ?NavMoveRequestApplyResult@ImGui@@YAXXZ 1003ac70 f   imgui.obj
 0001:0003a0a0       ?NavMoveRequestButNoResultYet@ImGui@@YA_NXZ 1003b0a0 f   imgui.obj
 0001:0003a0d0       ?NavMoveRequestCancel@ImGui@@YAXXZ 1003b0d0 f   imgui.obj
 0001:0003a110       ?NavMoveRequestResolveWithLastItem@ImGui@@YAXPAUImGuiNavItemData@@@Z 1003b110 f   imgui.obj
 0001:0003a160       ?NavMoveRequestResolveWithPastTreeNode@ImGui@@YAXPAUImGuiNavItemData@@PAUImGuiNavTreeNodeData@@@Z 1003b160 f   imgui.obj
 0001:0003a1f0       ?NavMoveRequestSubmit@ImGui@@YAXW4ImGuiDir@@0HH@Z 1003b1f0 f   imgui.obj
 0001:0003c440       ?NavUpdateCurrentWindowIsScrollPushableX@ImGui@@YAXXZ 1003d440 f   imgui.obj
 0001:0003d540       ?NewFrame@ImGui@@YAXXZ     1003e540 f   imgui.obj
 0001:0003e800       ?OpenPopup@ImGui@@YAXPBDH@Z 1003f800 f   imgui.obj
 0001:0003e880       ?OpenPopupEx@ImGui@@YAXIH@Z 1003f880 f   imgui.obj
 0001:0003e9e0       ?OpenPopupOnItemClick@ImGui@@YAXPBDH@Z 1003f9e0 f   imgui.obj
 0001:0003ea90       ?Overlaps@ImRect@@QBE_NABU1@@Z 1003fa90 f i imgui.obj
 0001:0003ead0       ?PathLineTo@ImDrawList@@QAEXABUImVec2@@@Z 1003fad0 f i imgui.obj
 0001:0003eb60       ?PopClipRect@ImGui@@YAXXZ  1003fb60 f   imgui.obj
 0001:0003ebd0       ?PopFont@ImGui@@YAXXZ      1003fbd0 f   imgui.obj
 0001:0003ec30       ?PopID@ImGui@@YAXXZ        1003fc30 f   imgui.obj
 0001:0003ec50       ?PopItemFlag@ImGui@@YAXXZ  1003fc50 f   imgui.obj
 0001:0003ec80       ?PopItemWidth@ImGui@@YAXXZ 1003fc80 f   imgui.obj
 0001:0003ecc0       ?PopStyleColor@ImGui@@YAXH@Z 1003fcc0 f   imgui.obj
 0001:0003ed20       ?PopStyleVar@ImGui@@YAXH@Z 1003fd20 f   imgui.obj
 0001:0003edb0       ?PopTextWrapPos@ImGui@@YAXXZ 1003fdb0 f   imgui.obj
 0001:0003edf0       ?PushClipRect@ImGui@@YAXABUImVec2@@0_N@Z 1003fdf0 f   imgui.obj
 0001:0003ee70       ?PushFont@ImGui@@YAXPAUImFont@@@Z 1003fe70 f   imgui.obj
 0001:0003ef50       ?PushID@ImGui@@YAXH@Z      1003ff50 f   imgui.obj
 0001:0003ef90       ?PushID@ImGui@@YAXPBD@Z    1003ff90 f   imgui.obj
 0001:0003f000       ?PushID@ImGui@@YAXPBX@Z    10040000 f   imgui.obj
 0001:0003f040       ?PushItemFlag@ImGui@@YAXH_N@Z 10040040 f   imgui.obj
 0001:0003f080       ?PushItemWidth@ImGui@@YAXM@Z 10040080 f   imgui.obj
 0001:0003f0d0       ?PushMultiItemsWidths@ImGui@@YAXHM@Z 100400d0 f   imgui.obj
 0001:0003f220       ?PushOverrideID@ImGui@@YAXI@Z 10040220 f   imgui.obj
 0001:0003f260       ?PushStyleColor@ImGui@@YAXHABUImVec4@@@Z 10040260 f   imgui.obj
 0001:0003f2c0       ?PushStyleColor@ImGui@@YAXHI@Z 100402c0 f   imgui.obj
 0001:0003f3c0       ?PushStyleVar@ImGui@@YAXHABUImVec2@@@Z 100403c0 f   imgui.obj
 0001:0003f440       ?PushStyleVar@ImGui@@YAXHM@Z 10040440 f   imgui.obj
 0001:0003f4b0       ?PushTextWrapPos@ImGui@@YAXM@Z 100404b0 f   imgui.obj
 0001:0003f4f0       ?Render@ImGui@@YAXXZ       100404f0 f   imgui.obj
 0001:0003fcd0       ?RenderFrame@ImGui@@YAXUImVec2@@0I_NM@Z 10040cd0 f   imgui.obj
 0001:0003fdf0       ?RenderFrameBorder@ImGui@@YAXUImVec2@@0M@Z 10040df0 f   imgui.obj
 0001:0003fee0       ?RenderMouseCursor@ImGui@@YAXUImVec2@@MHIII@Z 10040ee0 f   imgui.obj
 0001:000401d0       ?RenderNavHighlight@ImGui@@YAXABUImRect@@IH@Z 100411d0 f   imgui.obj
 0001:00040390       ?RenderText@ImGui@@YAXUImVec2@@PBD1_N@Z 10041390 f   imgui.obj
 0001:00040460       ?RenderTextClipped@ImGui@@YAXABUImVec2@@0PBD1PBU2@0PBUImRect@@@Z 10041460 f   imgui.obj
 0001:000406a0       ?RenderTextEllipsis@ImGui@@YAXPAUImDrawList@@ABUImVec2@@1MMPBD2PBU3@@Z 100416a0 f   imgui.obj
 0001:00040ad0       ?RenderTextWrapped@ImGui@@YAXUImVec2@@PBD1M@Z 10041ad0 f   imgui.obj
 0001:00041830       ?SameLine@ImGui@@YAXMM@Z   10042830 f   imgui.obj
 0001:000418f0       ?SaveIniSettingsToDisk@ImGui@@YAXPBD@Z 100428f0 f   imgui.obj
 0001:00041950       ?SaveIniSettingsToMemory@ImGui@@YAPBDPAI@Z 10042950 f   imgui.obj
 0001:00041a30       ?ScrollToRectEx@ImGui@@YA?AUImVec2@@PAUImGuiWindow@@ABUImRect@@H@Z 10042a30 f   imgui.obj
 0001:00041e20       ?SetActiveID@ImGui@@YAXIPAUImGuiWindow@@@Z 10042e20 f   imgui.obj
 0001:00041f70       ?SetActiveIdUsingAllKeyboardKeys@ImGui@@YAXXZ 10042f70 f   imgui.obj
 0001:00041fc0       ?SetClipboardText@ImGui@@YAXPBD@Z 10042fc0 f   imgui.obj
 0001:00042080       ?SetCurrentFont@ImGui@@YAXPAUImFont@@@Z 10043080 f   imgui.obj
 0001:000421f0       ?SetCursorScreenPos@ImGui@@YAXABUImVec2@@@Z 100431f0 f   imgui.obj
 0001:00042230       ?SetDragDropPayload@ImGui@@YA_NPBDPBXIH@Z 10043230 f   imgui.obj
 0001:00042300       ?SetFocusID@ImGui@@YAXIPAUImGuiWindow@@@Z 10043300 f   imgui.obj
 0001:00042430       ?SetHoveredID@ImGui@@YAXI@Z 10043430 f   imgui.obj
 0001:00042470       ?SetInt@ImGuiStorage@@QAEXIH@Z 10043470 f   imgui.obj
 0001:000424f0       ?SetItemDefaultFocus@ImGui@@YAXXZ 100434f0 f   imgui.obj
 0001:000425c0       ?SetItemTooltip@ImGui@@YAXPBDZZ 100435c0 f   imgui.obj
 0001:00042600       ?SetKeyEventNativeData@ImGuiIO@@QAEXW4ImGuiKey@@HHH@Z 10043600 f   imgui.obj
 0001:00042640       ?SetKeyOwner@ImGui@@YAXW4ImGuiKey@@IH@Z 10043640 f   imgui.obj
 0001:00042690       ?SetKeyOwnersForKeyChord@ImGui@@YAXHIH@Z 10043690 f   imgui.obj
 0001:00042920       ?SetMouseCursor@ImGui@@YAXH@Z 10043920 f   imgui.obj
 0001:00042940       ?SetNavFocusScope@ImGui@@YAXI@Z 10043940 f   imgui.obj
 0001:00042ae0       ?SetNavID@ImGui@@YAXIW4ImGuiNavLayer@@IABUImRect@@@Z 10043ae0 f   imgui.obj
 0001:00042b80       ?SetNavWindow@ImGui@@YAXPAUImGuiWindow@@@Z 10043b80 f   imgui.obj
 0001:00042c20       ?SetNextFrameWantCaptureKeyboard@ImGui@@YAX_N@Z 10043c20 f   imgui.obj
 0001:00042c40       ?SetNextFrameWantCaptureMouse@ImGui@@YAX_N@Z 10043c40 f   imgui.obj
 0001:00042c60       ?SetNextItemWidth@ImGui@@YAXM@Z 10043c60 f   imgui.obj
 0001:00042c80       ?SetNextWindowContentSize@ImGui@@YAXABUImVec2@@@Z 10043c80 f   imgui.obj
 0001:00042cc0       ?SetNextWindowFocus@ImGui@@YAXXZ 10043cc0 f   imgui.obj
 0001:00042cd0       ?SetNextWindowPos@ImGui@@YAXABUImVec2@@H0@Z 10043cd0 f   imgui.obj
 0001:00042d20       ?SetNextWindowScroll@ImGui@@YAXABUImVec2@@@Z 10043d20 f   imgui.obj
 0001:00042d50       ?SetNextWindowSize@ImGui@@YAXABUImVec2@@H@Z 10043d50 f   imgui.obj
 0001:00042d90       ?SetNextWindowSizeConstraints@ImGui@@YAXABUImVec2@@0P6AXPAUImGuiSizeCallbackData@@@ZPAX@Z 10043d90 f   imgui.obj
 0001:00042e90       ?SetScrollFromPosX@ImGui@@YAXPAUImGuiWindow@@MM@Z 10043e90 f   imgui.obj
 0001:00042ee0       ?SetScrollFromPosY@ImGui@@YAXPAUImGuiWindow@@MM@Z 10043ee0 f   imgui.obj
 0001:00042f30       ?SetScrollHereY@ImGui@@YAXM@Z 10043f30 f   imgui.obj
 0001:00042fd0       ?SetScrollY@ImGui@@YAXPAUImGuiWindow@@M@Z 10043fd0 f   imgui.obj
 0001:00043000       ?SetShortcutRouting@ImGui@@YA_NHHI@Z 10044000 f   imgui.obj
 0001:000432b0       ?SetTooltip@ImGui@@YAXPBDZZ 100442b0 f   imgui.obj
 0001:000432e0       ?SetWindowPos@ImGui@@YAXPAUImGuiWindow@@ABUImVec2@@H@Z 100442e0 f   imgui.obj
 0001:00043440       ?SetWindowSize@ImGui@@YAXPAUImGuiWindow@@ABUImVec2@@H@Z 10044440 f   imgui.obj
 0001:00043560       ?Shortcut@ImGui@@YA_NHHI@Z 10044560 f   imgui.obj
 0001:000435f0       ?Shutdown@ImGui@@YAXXZ     100445f0 f   imgui.obj
 0001:00043e60       ?StartMouseMovingWindow@ImGui@@YAXPAUImGuiWindow@@@Z 10044e60 f   imgui.obj
 0001:00043f30       ?Step@ImGuiListClipper@@QAE_NXZ 10044f30 f   imgui.obj
 0001:00044010       ?TestKeyOwner@ImGui@@YA_NW4ImGuiKey@@I@Z 10045010 f   imgui.obj
 0001:000440c0       ?Unindent@ImGui@@YAXM@Z    100450c0 f   imgui.obj
 0001:00044280       ?UpdateHoveredWindowAndCaptureFlags@ImGui@@YAXXZ 10045280 f   imgui.obj
 0001:00044510       ?UpdateInputEvents@ImGui@@YAX_N@Z 10045510 f   imgui.obj
 0001:000456f0       ?UpdateMouseMovingWindowEndFrame@ImGui@@YAXXZ 100466f0 f   imgui.obj
 0001:000474b0       ?append@ImGuiTextBuffer@@QAEXPBD0@Z 100484b0 f   imgui.obj
 0001:00047570       ?appendf@ImGuiTextBuffer@@QAAXPBDZZ 10048570 f   imgui.obj
 0001:00047590       ?appendfv@ImGuiTextBuffer@@QAEXPBDPAD@Z 10048590 f   imgui.obj
 0001:00047690       ?insert@?$ImVector@UImGuiStoragePair@@@@QAEPAUImGuiStoragePair@@PBU2@ABU2@@Z 10048690 f i imgui.obj
 0001:00047760       ?push_back@?$ImVector@H@@QAEXABH@Z 10048760 f i imgui.obj
 0001:00047760       ?push_back@?$ImVector@I@@QAEXABI@Z 10048760 f i imgui.obj
 0001:00047760       ?push_back@?$ImVector@M@@QAEXABM@Z 10048760 f i imgui.obj
 0001:00047760       ?push_back@?$ImVector@PAUImGuiWindow@@@@QAEXABQAUImGuiWindow@@@Z 10048760 f i imgui.obj
 0001:000477e0       ?push_back@?$ImVector@UImDrawCmd@@@@QAEXABUImDrawCmd@@@Z 100487e0 f i imgui.obj
 0001:000477e0       ?push_back@?$ImVector@UImGuiPopupData@@@@QAEXABUImGuiPopupData@@@Z 100487e0 f i imgui.obj
 0001:00047880       ?push_back@?$ImVector@UImGuiColorMod@@@@QAEXABUImGuiColorMod@@@Z 10048880 f i imgui.obj
 0001:00047910       ?push_back@?$ImVector@UImGuiFocusScopeData@@@@QAEXABUImGuiFocusScopeData@@@Z 10048910 f i imgui.obj
 0001:00047910       ?push_back@?$ImVector@UImVec2@@@@QAEXABUImVec2@@@Z 10048910 f i imgui.obj
 0001:000479a0       ?push_back@?$ImVector@UImGuiInputEvent@@@@QAEXABUImGuiInputEvent@@@Z 100489a0 f i imgui.obj
 0001:00047a10       ?push_back@?$ImVector@UImGuiKeyRoutingData@@@@QAEXABUImGuiKeyRoutingData@@@Z 10048a10 f i imgui.obj
 0001:00047a90       ?push_back@?$ImVector@UImGuiListClipperRange@@@@QAEXABUImGuiListClipperRange@@@Z 10048a90 f i imgui.obj
 0001:00047a90       ?push_back@?$ImVector@UImGuiStyleMod@@@@QAEXABUImGuiStyleMod@@@Z 10048a90 f i imgui.obj
 0001:00047b20       ?push_front@?$ImVector@UImDrawCmd@@@@QAEXABUImDrawCmd@@@Z 10048b20 f i imgui.obj
 0001:00047c40       ?reserve@?$ImVector@UImGuiInputEvent@@@@QAEXH@Z 10048c40 f i imgui.obj
 0001:00047ca0       ?reserve@?$ImVector@UImVec2@@@@QAEXH@Z 10048ca0 f i imgui.obj
 0001:00047cf0       ?resize@?$ImVector@D@@QAEXH@Z 10048cf0 f i imgui.obj
 0001:00047cf0       ?resize@?$ImVector@E@@QAEXH@Z 10048cf0 f i imgui.obj
 0001:00047d70       ?resize@?$ImVector@G@@QAEXH@Z 10048d70 f i imgui.obj
 0001:00047df0       ?resize@?$ImVector@I@@QAEXH@Z 10048df0 f i imgui.obj
 0001:00047df0       ?resize@?$ImVector@M@@QAEXH@Z 10048df0 f i imgui.obj
 0001:00047df0       ?resize@?$ImVector@PAUImDrawList@@@@QAEXH@Z 10048df0 f i imgui.obj
 0001:00047df0       ?resize@?$ImVector@PAUImGuiWindow@@@@QAEXH@Z 10048df0 f i imgui.obj
 0001:00047e70       ?resize@?$ImVector@UImGuiGroupData@@@@QAEXH@Z 10048e70 f i imgui.obj
 0001:00047f00       ?resize@?$ImVector@UImDrawCmd@@@@QAEXH@Z 10048f00 f i imgui_draw.obj
 0001:00047f00       ?resize@?$ImVector@UImFontGlyph@@@@QAEXH@Z 10048f00 f i imgui_draw.obj
 0001:00047f00       ?resize@?$ImVector@UImGuiPopupData@@@@QAEXH@Z 10048f00 f i imgui.obj
 0001:00047f80       ??0ImDrawListSharedData@@QAE@XZ 10048f80 f   imgui_draw.obj
 0001:000480d0       ??0ImFont@@QAE@XZ          100490d0 f   imgui_draw.obj
 0001:00048170       ??0ImFontAtlas@@QAE@XZ     10049170 f   imgui_draw.obj
 0001:00048260       ??1ImFont@@QAE@XZ          10049260 f   imgui_draw.obj
 0001:000482f0       ??1ImFontAtlas@@QAE@XZ     100492f0 f   imgui_draw.obj
 0001:00048380       ?AddCircle@ImDrawList@@QAEXABUImVec2@@MIHM@Z 10049380 f   imgui_draw.obj
 0001:00048450       ?AddCircleFilled@ImDrawList@@QAEXABUImVec2@@MIH@Z 10049450 f   imgui_draw.obj
 0001:00048510       ?AddConvexPolyFilled@ImDrawList@@QAEXPBUImVec2@@HI@Z 10049510 f   imgui_draw.obj
 0001:000488e0       ?AddDrawCmd@ImDrawList@@QAEXXZ 100498e0 f   imgui_draw.obj
 0001:00048930       ?AddDrawListToDrawDataEx@ImGui@@YAXPAUImDrawData@@PAU?$ImVector@PAUImDrawList@@@@PAUImDrawList@@@Z 10049930 f   imgui_draw.obj
 0001:000489f0       ?AddFont@ImFontAtlas@@QAEPAUImFont@@PBUImFontConfig@@@Z 100499f0 f   imgui_draw.obj
 0001:00048c90       ?AddFontDefault@ImFontAtlas@@QAEPAUImFont@@PBUImFontConfig@@@Z 10049c90 f   imgui_draw.obj
 0001:00048ee0       ?AddFontFromMemoryCompressedTTF@ImFontAtlas@@QAEPAUImFont@@PBXHMPBUImFontConfig@@PBG@Z 10049ee0 f   imgui_draw.obj
 0001:000490c0       ?AddGlyph@ImFont@@QAEXPBUImFontConfig@@GMMMMMMMMM@Z 1004a0c0 f   imgui_draw.obj
 0001:000492a0       ?AddImage@ImDrawList@@QAEXPAXABUImVec2@@111I@Z 1004a2a0 f   imgui_draw.obj
 0001:00049330       ?AddLine@ImDrawList@@QAEXABUImVec2@@0IM@Z 1004a330 f   imgui_draw.obj
 0001:000493e0       ?AddPolyline@ImDrawList@@QAEXPBUImVec2@@HIHM@Z 1004a3e0 f   imgui_draw.obj
 0001:0004a0a0       ?AddRect@ImDrawList@@QAEXABUImVec2@@0IMHM@Z 1004b0a0 f   imgui_draw.obj
 0001:0004a190       ?AddRectFilled@ImDrawList@@QAEXABUImVec2@@0IMH@Z 1004b190 f   imgui_draw.obj
 0001:0004a300       ?AddRectFilledMultiColor@ImDrawList@@QAEXABUImVec2@@0IIII@Z 1004b300 f   imgui_draw.obj
 0001:0004a480       ?AddText@ImDrawList@@QAEXPBUImFont@@MABUImVec2@@IPBD2MPBUImVec4@@@Z 1004b480 f   imgui_draw.obj
 0001:0004a570       ?AddTriangle@ImDrawList@@QAEXABUImVec2@@00IM@Z 1004b570 f   imgui_draw.obj
 0001:0004a5d0       ?AddTriangleFilled@ImDrawList@@QAEXABUImVec2@@00I@Z 1004b5d0 f   imgui_draw.obj
 0001:0004a620       ?BuildLookupTable@ImFont@@QAEXXZ 1004b620 f   imgui_draw.obj
 0001:0004ab80       ?CalcTextSizeA@ImFont@@QBE?AUImVec2@@MMMPBD0PAPBD@Z 1004bb80 f   imgui_draw.obj
 0001:0004ad90       ?CalcWordWrapPositionA@ImFont@@QBEPBDMPBD0M@Z 1004bd90 f   imgui_draw.obj
 0001:0004af30       ?Clear@ImDrawData@@QAEXXZ  1004bf30 f   imgui_draw.obj
 0001:0004afe0       ?Clear@ImFontAtlas@@QAEXXZ 1004bfe0 f   imgui_draw.obj
 0001:0004b1c0       ?ClearFreeMemory@ImDrawListSplitter@@QAEXXZ 1004c1c0 f   imgui_draw.obj
 0001:0004b2a0       ?ClearOutputData@ImFont@@QAEXXZ 1004c2a0 f   imgui_draw.obj
 0001:0004b350       ?FindGlyph@ImFont@@QBEPBUImFontGlyph@@G@Z 1004c350 f   imgui_draw.obj
 0001:0004b390       ?GetMouseCursorTexData@ImFontAtlas@@QAE_NHPAUImVec2@@0QAU2@1@Z 1004c390 f   imgui_draw.obj
 0001:0004b4b0       ?GetTexDataAsRGBA32@ImFontAtlas@@QAEXPAPAEPAH11@Z 1004c4b0 f   imgui_draw.obj
 0001:0004b570       ?GrowIndex@ImFont@@QAEXH@Z 1004c570 f   imgui_draw.obj
 0001:0004b6e0       ?ImFontAtlasBuildFinish@@YAXPAUImFontAtlas@@@Z 1004c6e0 f   imgui_draw.obj
 0001:0004d150       ?Merge@ImDrawListSplitter@@QAEXPAUImDrawList@@@Z 1004e150 f   imgui_draw.obj
 0001:0004d620       ?PathArcTo@ImDrawList@@QAEXABUImVec2@@MMMH@Z 1004e620 f   imgui_draw.obj
 0001:0004d970       ?PathArcToFast@ImDrawList@@QAEXABUImVec2@@MHH@Z 1004e970 f   imgui_draw.obj
 0001:0004d9c0       ?PathRect@ImDrawList@@QAEXABUImVec2@@0MH@Z 1004e9c0 f   imgui_draw.obj
 0001:0004dc80       ?PopClipRect@ImDrawList@@QAEXXZ 1004ec80 f   imgui_draw.obj
 0001:0004dcc0       ?PopTextureID@ImDrawList@@QAEXXZ 1004ecc0 f   imgui_draw.obj
 0001:0004dcf0       ?PrimRectUV@ImDrawList@@QAEXABUImVec2@@000I@Z 1004ecf0 f   imgui_draw.obj
 0001:0004de10       ?PrimReserve@ImDrawList@@QAEXHH@Z 1004ee10 f   imgui_draw.obj
 0001:0004dee0       ?PushClipRect@ImDrawList@@QAEXABUImVec2@@0_N@Z 1004eee0 f   imgui_draw.obj
 0001:0004e010       ?PushClipRectFullScreen@ImDrawList@@QAEXXZ 1004f010 f   imgui_draw.obj
 0001:0004e0d0       ?PushTextureID@ImDrawList@@QAEXPAX@Z 1004f0d0 f   imgui_draw.obj
 0001:0004e170       ?RenderArrow@ImGui@@YAXPAUImDrawList@@UImVec2@@IW4ImGuiDir@@M@Z 1004f170 f   imgui_draw.obj
 0001:0004e310       ?RenderArrowPointingAt@ImGui@@YAXPAUImDrawList@@UImVec2@@1W4ImGuiDir@@I@Z 1004f310 f   imgui_draw.obj
 0001:0004e450       ?RenderBullet@ImGui@@YAXPAUImDrawList@@UImVec2@@I@Z 1004f450 f   imgui_draw.obj
 0001:0004e4c0       ?RenderChar@ImFont@@QBEXPAUImDrawList@@MABUImVec2@@IG@Z 1004f4c0 f   imgui_draw.obj
 0001:0004e600       ?RenderCheckMark@ImGui@@YAXPAUImDrawList@@UImVec2@@IM@Z 1004f600 f   imgui_draw.obj
 0001:0004e730       ?RenderColorRectWithAlphaCheckerboard@ImGui@@YAXPAUImDrawList@@UImVec2@@1IM1MH@Z 1004f730 f   imgui_draw.obj
 0001:0004e990       ?RenderText@ImFont@@QBEXPAUImDrawList@@MABUImVec2@@IABUImVec4@@PBD3M_N@Z 1004f990 f   imgui_draw.obj
 0001:0004ef70       ?SetCircleTessellationMaxError@ImDrawListSharedData@@QAEXM@Z 1004ff70 f   imgui_draw.obj
 0001:0004f090       ?SetCurrentChannel@ImDrawListSplitter@@QAEXPAUImDrawList@@H@Z 10050090 f   imgui_draw.obj
 0001:0004f1c0       ?ShadeVertsLinearColorGradientKeepAlpha@ImGui@@YAXPAUImDrawList@@HHUImVec2@@1II@Z 100501c0 f   imgui_draw.obj
 0001:0004f330       ?Split@ImDrawListSplitter@@QAEXPAUImDrawList@@H@Z 10050330 f   imgui_draw.obj
 0001:0004f4f0       ?StyleColorsDark@ImGui@@YAXPAUImGuiStyle@@@Z 100504f0 f   imgui_draw.obj
 0001:0004ff00       ?_CalcCircleAutoSegmentCount@ImDrawList@@QBEHM@Z 10050f00 f   imgui_draw.obj
 0001:0004ffc0       ?_ClearFreeMemory@ImDrawList@@QAEXXZ 10050fc0 f   imgui_draw.obj
 0001:000500d0       ?_OnChangedClipRect@ImDrawList@@QAEXXZ 100510d0 f   imgui_draw.obj
 0001:00050210       ?_OnChangedTextureID@ImDrawList@@QAEXXZ 10051210 f   imgui_draw.obj
 0001:00050320       ?_PathArcToFastEx@ImDrawList@@QAEXABUImVec2@@MHHH@Z 10051320 f   imgui_draw.obj
 0001:00050540       ?_PathArcToN@ImDrawList@@QAEXABUImVec2@@MMMH@Z 10051540 f   imgui_draw.obj
 0001:000506e0       ?_PopUnusedDrawCmd@ImDrawList@@QAEXXZ 100516e0 f   imgui_draw.obj
 0001:00050710       ?_ResetForNewFrame@ImDrawList@@QAEXXZ 10051710 f   imgui_draw.obj
 0001:00050890       ?push_back@?$ImVector@UImFontAtlasCustomRect@@@@QAEXABUImFontAtlasCustomRect@@@Z 10051890 f i imgui_draw.obj
 0001:000509b0       ?reserve_discard@?$ImVector@UImVec2@@@@QAEXH@Z 100519b0 f i imgui_draw.obj
 0001:000509f0       ?resize@?$ImVector@UImDrawVert@@@@QAEXH@Z 100519f0 f i imgui_draw.obj
 0001:00050a70       ?resize@?$ImVector@UImVec2@@@@QAEXH@Z 10051a70 f i imgui_draw.obj
 0001:00057d00       ??0ImGuiTable@@QAE@XZ      10058d00 f i imgui_tables.obj
 0001:00057f80       ?BeginTable@ImGui@@YA_NPBDHHABUImVec2@@M@Z 10058f80 f   imgui_tables.obj
 0001:00057fb0       ?BeginTableEx@ImGui@@YA_NPBDIHHABUImVec2@@M@Z 10058fb0 f   imgui_tables.obj
 0001:00059130       ?EndColumns@ImGui@@YAXXZ   1005a130 f   imgui_tables.obj
 0001:00059530       ?EndTable@ImGui@@YAXXZ     1005a530 f   imgui_tables.obj
 0001:00059ce0       ?PopColumnsBackground@ImGui@@YAXXZ 1005ace0 f   imgui_tables.obj
 0001:00059d80       ?PushColumnsBackground@ImGui@@YAXXZ 1005ad80 f   imgui_tables.obj
 0001:00059e30       ?SetColumnOffset@ImGui@@YAXHM@Z 1005ae30 f   imgui_tables.obj
 0001:00059f40       ?TableBeginApplyRequests@ImGui@@YAXPAUImGuiTable@@@Z 1005af40 f   imgui_tables.obj
 0001:0005a100       ?TableBeginCell@ImGui@@YAXPAUImGuiTable@@H@Z 1005b100 f   imgui_tables.obj
 0001:0005a2a0       ?TableDrawBorders@ImGui@@YAXPAUImGuiTable@@@Z 1005b2a0 f   imgui_tables.obj
 0001:0005a6f0       ?TableDrawDefaultContextMenu@ImGui@@YAXPAUImGuiTable@@H@Z 1005b6f0 f   imgui_tables.obj
 0001:0005a940       ?TableEndCell@ImGui@@YAXPAUImGuiTable@@@Z 1005b940 f   imgui_tables.obj
 0001:0005a9e0       ?TableEndRow@ImGui@@YAXPAUImGuiTable@@@Z 1005b9e0 f   imgui_tables.obj
 0001:0005b060       ?TableGcCompactSettings@ImGui@@YAXXZ 1005c060 f   imgui_tables.obj
 0001:0005b240       ?TableGcCompactTransientBuffers@ImGui@@YAXPAUImGuiTable@@@Z 1005c240 f   imgui_tables.obj
 0001:0005b310       ?TableGcCompactTransientBuffers@ImGui@@YAXPAUImGuiTableTempData@@@Z 1005c310 f   imgui_tables.obj
 0001:0005b3b0       ?TableGetMaxColumnWidth@ImGui@@YAMPBUImGuiTable@@H@Z 1005c3b0 f   imgui_tables.obj
 0001:0005b4a0       ?TableGetSortSpecs@ImGui@@YAPAUImGuiTableSortSpecs@@XZ 1005c4a0 f   imgui_tables.obj
 0001:0005b4e0       ?TableHeader@ImGui@@YAXPBD@Z 1005c4e0 f   imgui_tables.obj
 0001:0005bcf0       ?TableHeadersRow@ImGui@@YAXXZ 1005ccf0 f   imgui_tables.obj
 0001:0005bfa0       ?TableLoadSettings@ImGui@@YAXPAUImGuiTable@@@Z 1005cfa0 f   imgui_tables.obj
 0001:0005c1a0       ?TableMergeDrawChannels@ImGui@@YAXPAUImGuiTable@@@Z 1005d1a0 f   imgui_tables.obj
 0001:0005cb60       ?TableNextColumn@ImGui@@YA_NXZ 1005db60 f   imgui_tables.obj
 0001:0005cbd0       ?TableNextRow@ImGui@@YAXHM@Z 1005dbd0 f   imgui_tables.obj
 0001:0005cd90       ?TableOpenContextMenu@ImGui@@YAXH@Z 1005dd90 f   imgui_tables.obj
 0001:0005cdf0       ?TablePopBackgroundChannel@ImGui@@YAXXZ 1005ddf0 f   imgui_tables.obj
 0001:0005cea0       ?TablePushBackgroundChannel@ImGui@@YAXXZ 1005dea0 f   imgui_tables.obj
 0001:0005cf60       ?TableSaveSettings@ImGui@@YAXPAUImGuiTable@@@Z 1005df60 f   imgui_tables.obj
 0001:0005d110       ?TableSetBgColor@ImGui@@YAXHIH@Z 1005e110 f   imgui_tables.obj
 0001:0005d1e0       ?TableSetColumnIndex@ImGui@@YA_NH@Z 1005e1e0 f   imgui_tables.obj
 0001:0005d230       ?TableSetColumnWidth@ImGui@@YAXHM@Z 1005e230 f   imgui_tables.obj
 0001:0005d3b0       ?TableSettingsAddSettingsHandler@ImGui@@YAXXZ 1005e3b0 f   imgui_tables.obj
 0001:0005d420       ?TableSettingsCreate@ImGui@@YAPAUImGuiTableSettings@@IH@Z 1005e420 f   imgui_tables.obj
 0001:0005d480       ?TableSettingsFindByID@ImGui@@YAPAUImGuiTableSettings@@I@Z 1005e480 f   imgui_tables.obj
 0001:0005db80       ?TableSetupColumn@ImGui@@YAXPBDHMI@Z 1005eb80 f   imgui_tables.obj
 0001:0005de70       ?TableSetupDrawChannels@ImGui@@YAXPAUImGuiTable@@@Z 1005ee70 f   imgui_tables.obj
 0001:0005e030       ?TableSetupScrollFreeze@ImGui@@YAXHH@Z 1005f030 f   imgui_tables.obj
 0001:0005e160       ?TableSortSpecsBuild@ImGui@@YAXPAUImGuiTable@@@Z 1005f160 f   imgui_tables.obj
 0001:0005e2d0       ?TableSortSpecsSanitize@ImGui@@YAXPAUImGuiTable@@@Z 1005f2d0 f   imgui_tables.obj
 0001:0005e550       ?TableUpdateBorders@ImGui@@YAXPAUImGuiTable@@@Z 1005f550 f   imgui_tables.obj
 0001:0005e7f0       ?TableUpdateLayout@ImGui@@YAXPAUImGuiTable@@@Z 1005f7f0 f   imgui_tables.obj
 0001:0005f7e0       ??$DragBehaviorT@HHM@ImGui@@YA_NHPAHMHHPBDH@Z 100607e0 f i imgui_widgets.obj
 0001:0005fca0       ??$DragBehaviorT@IHM@ImGui@@YA_NHPAIMIIPBDH@Z 10060ca0 f i imgui_widgets.obj
 0001:00060180       ??$DragBehaviorT@MMM@ImGui@@YA_NHPAMMMMPBDH@Z 10061180 f i imgui_widgets.obj
 0001:000606e0       ??$DragBehaviorT@NNN@ImGui@@YA_NHPANMNNPBDH@Z 100616e0 f i imgui_widgets.obj
 0001:00060c70       ??$DragBehaviorT@_J_JN@ImGui@@YA_NHPA_JM_J1PBDH@Z 10061c70 f i imgui_widgets.obj
 0001:00061260       ??$DragBehaviorT@_K_JN@ImGui@@YA_NHPA_KM_K1PBDH@Z 10062260 f i imgui_widgets.obj
 0001:00061890       ??$RoundScalarWithFormatT@H@ImGui@@YAHPBDHH@Z 10062890 f i imgui_widgets.obj
 0001:00061930       ??$RoundScalarWithFormatT@I@ImGui@@YAIPBDHI@Z 10062930 f i imgui_widgets.obj
 0001:000619e0       ??$RoundScalarWithFormatT@M@ImGui@@YAMPBDHM@Z 100629e0 f i imgui_widgets.obj
 0001:00061a90       ??$RoundScalarWithFormatT@N@ImGui@@YANPBDHN@Z 10062a90 f i imgui_widgets.obj
 0001:00061b30       ??$RoundScalarWithFormatT@_J@ImGui@@YA_JPBDH_J@Z 10062b30 f i imgui_widgets.obj
 0001:00061be0       ??$RoundScalarWithFormatT@_K@ImGui@@YA_KPBDH_K@Z 10062be0 f i imgui_widgets.obj
 0001:00061c90       ??$ScaleRatioFromValueT@HHM@ImGui@@YAMHHHH_NMM@Z 10062c90 f i imgui_widgets.obj
 0001:00061fe0       ??$ScaleRatioFromValueT@IHM@ImGui@@YAMHIII_NMM@Z 10062fe0 f i imgui_widgets.obj
 0001:00062390       ??$ScaleRatioFromValueT@MMM@ImGui@@YAMHMMM_NMM@Z 10063390 f i imgui_widgets.obj
 0001:000626c0       ??$ScaleRatioFromValueT@NNN@ImGui@@YAMHNNN_NMM@Z 100636c0 f i imgui_widgets.obj
 0001:000629e0       ??$ScaleRatioFromValueT@_J_JN@ImGui@@YAMH_J00_NMM@Z 100639e0 f i imgui_widgets.obj
 0001:00062e10       ??$ScaleRatioFromValueT@_K_JN@ImGui@@YAMH_K00_NMM@Z 10063e10 f i imgui_widgets.obj
 0001:00063240       ??$ScaleValueFromRatioT@HHM@ImGui@@YAHHMHH_NMM@Z 10064240 f i imgui_widgets.obj
 0001:00063510       ??$ScaleValueFromRatioT@IHM@ImGui@@YAIHMII_NMM@Z 10064510 f i imgui_widgets.obj
 0001:00063840       ??$ScaleValueFromRatioT@MMM@ImGui@@YAMHMMM_NMM@Z 10064840 f i imgui_widgets.obj
 0001:00063af0       ??$ScaleValueFromRatioT@NNN@ImGui@@YANHMNN_NMM@Z 10064af0 f i imgui_widgets.obj
 0001:00063dc0       ??$ScaleValueFromRatioT@_J_JN@ImGui@@YA_JHM_J0_NMM@Z 10064dc0 f i imgui_widgets.obj
 0001:00064180       ??$ScaleValueFromRatioT@_K_JN@ImGui@@YA_KHM_K0_NMM@Z 10065180 f i imgui_widgets.obj
 0001:00064540       ??$SliderBehaviorT@HHM@ImGui@@YA_NABUImRect@@IHPAHHHPBDHPAU1@@Z 10065540 f i imgui_widgets.obj
 0001:00064c90       ??$SliderBehaviorT@IHM@ImGui@@YA_NABUImRect@@IHPAIIIPBDHPAU1@@Z 10065c90 f i imgui_widgets.obj
 0001:000653f0       ??$SliderBehaviorT@MMM@ImGui@@YA_NABUImRect@@IHPAMMMPBDHPAU1@@Z 100663f0 f i imgui_widgets.obj
 0001:00065c10       ??$SliderBehaviorT@NNN@ImGui@@YA_NABUImRect@@IHPANNNPBDHPAU1@@Z 10066c10 f i imgui_widgets.obj
 0001:00066430       ??$SliderBehaviorT@_J_JN@ImGui@@YA_NABUImRect@@IHPA_J_J2PBDHPAU1@@Z 10067430 f i imgui_widgets.obj
 0001:00066bd0       ??$SliderBehaviorT@_K_JN@ImGui@@YA_NABUImRect@@IHPA_K_K2PBDHPAU1@@Z 10067bd0 f i imgui_widgets.obj
 0001:00067370       ?Add@?$ImPool@UImGuiTabBar@@@@QAEPAUImGuiTabBar@@XZ 10068370 f i imgui_widgets.obj
 0001:000674c0       ?ArrowButtonEx@ImGui@@YA_NPBDW4ImGuiDir@@UImVec2@@H@Z 100684c0 f   imgui_widgets.obj
 0001:000676c0       ?BeginCombo@ImGui@@YA_NPBD0H@Z 100686c0 f   imgui_widgets.obj
 0001:00067bf0       ?BeginComboPopup@ImGui@@YA_NIABUImRect@@H@Z 10068bf0 f   imgui_widgets.obj
 0001:00067e70       ?BeginTabBar@ImGui@@YA_NPBDH@Z 10068e70 f   imgui_widgets.obj
 0001:00067f90       ?BeginTabBarEx@ImGui@@YA_NPAUImGuiTabBar@@ABUImRect@@H@Z 10068f90 f   imgui_widgets.obj
 0001:000682a0       ?BeginTabItem@ImGui@@YA_NPBDPA_NH@Z 100692a0 f   imgui_widgets.obj
 0001:00068310       ?Button@ImGui@@YA_NPBDABUImVec2@@@Z 10069310 f   imgui_widgets.obj
 0001:00068330       ?ButtonBehavior@ImGui@@YA_NABUImRect@@IPA_N1H@Z 10069330 f   imgui_widgets.obj
 0001:00068980       ?ButtonEx@ImGui@@YA_NPBDABUImVec2@@H@Z 10069980 f   imgui_widgets.obj
 0001:00068be0       ?CalcNextTotalWidth@ImGuiMenuColumns@@QAEX_N@Z 10069be0 f   imgui_widgets.obj
 0001:00068cb0       ?Checkbox@ImGui@@YA_NPBDPA_N@Z 10069cb0 f   imgui_widgets.obj
 0001:00069060       ?CloseButton@ImGui@@YA_NIABUImVec2@@@Z 1006a060 f   imgui_widgets.obj
 0001:00069360       ?CollapseButton@ImGui@@YA_NIABUImVec2@@@Z 1006a360 f   imgui_widgets.obj
 0001:00069500       ?CollapsingHeader@ImGui@@YA_NPBDH@Z 1006a500 f   imgui_widgets.obj
 0001:00069550       ?ColorButton@ImGui@@YA_NPBDABUImVec4@@HABUImVec2@@@Z 1006a550 f   imgui_widgets.obj
 0001:00069ac0       ?ColorEdit4@ImGui@@YA_NPBDQAMH@Z 1006aac0 f   imgui_widgets.obj
 0001:0006a880       ?ColorEditOptionsPopup@ImGui@@YAXPBMH@Z 1006b880 f   imgui_widgets.obj
 0001:0006ad10       ?ColorPicker4@ImGui@@YA_NPBDQAMHPBM@Z 1006bd10 f   imgui_widgets.obj
 0001:0006c980       ?ColorPickerOptionsPopup@ImGui@@YAXPBMH@Z 1006d980 f   imgui_widgets.obj
 0001:0006cbc0       ?ColorTooltip@ImGui@@YAXPBDPBMH@Z 1006dbc0 f   imgui_widgets.obj
 0001:0006ced0       ?Combo@ImGui@@YA_NPBDPAH0H@Z 1006ded0 f   imgui_widgets.obj
 0001:0006cf20       ?Combo@ImGui@@YA_NPBDPAHP6APBDPAXH@Z2HH@Z 1006df20 f   imgui_widgets.obj
 0001:0006d120       ?CursorClamp@ImGuiInputTextState@@QAEXXZ 1006e120 f i imgui_widgets.obj
 0001:0006d150       ?DataTypeApplyFromText@ImGui@@YA_NPBDHPAX01@Z 1006e150 f   imgui_widgets.obj
 0001:0006d3a0       ?DataTypeApplyOp@ImGui@@YAXHHPAXPBX1@Z 1006e3a0 f   imgui_widgets.obj
 0001:0006da10       ?DataTypeCompare@ImGui@@YAHHPBX0@Z 1006ea10 f   imgui_widgets.obj
 0001:0006db90       ?DataTypeFormatString@ImGui@@YAHPADHHPBXPBD@Z 1006eb90 f   imgui_widgets.obj
 0001:0006dcb0       ?DeclColumns@ImGuiMenuColumns@@QAEMMMMM@Z 1006ecb0 f   imgui_widgets.obj
 0001:0006dd60       ?DragBehavior@ImGui@@YA_NIHPAXMPBX1PBDH@Z 1006ed60 f   imgui_widgets.obj
 0001:0006e160       ?DragScalar@ImGui@@YA_NPBDHPAXMPBX20H@Z 1006f160 f   imgui_widgets.obj
 0001:0006e640       ?EndTabBar@ImGui@@YAXXZ    1006f640 f   imgui_widgets.obj
 0001:0006e740       ?EndTabItem@ImGui@@YAXXZ   1006f740 f   imgui_widgets.obj
 0001:0006e7a0       ?ImParseFormatFindEnd@@YAPBDPBD@Z 1006f7a0 f   imgui_widgets.obj
 0001:0006e800       ?ImParseFormatPrecision@@YAHPBDH@Z 1006f800 f   imgui_widgets.obj
 0001:0006e8d0       ?ImParseFormatSanitizeForPrinting@@YAXPBDPADI@Z 1006f8d0 f   imgui_widgets.obj
 0001:0006e950       ?InputInt2@ImGui@@YA_NPBDQAHH@Z 1006f950 f   imgui_widgets.obj
 0001:0006e980       ?InputInt@ImGui@@YA_NPBDPAHHHH@Z 1006f980 f   imgui_widgets.obj
 0001:0006e9c0       ?InputScalar@ImGui@@YA_NPBDHPAXPBX20H@Z 1006f9c0 f   imgui_widgets.obj
 0001:0006ed70       ?InputScalarN@ImGui@@YA_NPBDHPAXHPBX20H@Z 1006fd70 f   imgui_widgets.obj
 0001:0006eea0       ?InputText@ImGui@@YA_NPBDPADIHP6AHPAUImGuiInputTextCallbackData@@@ZPAX@Z 1006fea0 f   imgui_widgets.obj
 0001:0006eee0       ?InputTextDeactivateHook@ImGui@@YAXI@Z 1006fee0 f   imgui_widgets.obj
 0001:0006ef50       ?InputTextEx@ImGui@@YA_NPBD0PADHABUImVec2@@HP6AHPAUImGuiInputTextCallbackData@@@ZPAX@Z 1006ff50 f   imgui_widgets.obj
 0001:00072270       ?InputTextMultiline@ImGui@@YA_NPBDPADIABUImVec2@@HP6AHPAUImGuiInputTextCallbackData@@@ZPAX@Z 10073270 f   imgui_widgets.obj
 0001:000723d0       ?InputTextWithHint@ImGui@@YA_NPBD0PADIHP6AHPAUImGuiInputTextCallbackData@@@ZPAX@Z 100733d0 f   imgui_widgets.obj
 0001:00072410       ?InvisibleButton@ImGui@@YA_NPBDABUImVec2@@H@Z 10073410 f   imgui_widgets.obj
 0001:000725a0       ?MenuItem@ImGui@@YA_NPBD0_N1@Z 100735a0 f   imgui_widgets.obj
 0001:000725c0       ?MenuItemEx@ImGui@@YA_NPBD00_N1@Z 100735c0 f   imgui_widgets.obj
 0001:00072a60       ?OnKeyPressed@ImGuiInputTextState@@QAEXH@Z 10073a60 f   imgui_widgets.obj
 0001:00072a90       ?RadioButton@ImGui@@YA_NPBD_N@Z 10073a90 f   imgui_widgets.obj
 0001:00073420       ?Scrollbar@ImGui@@YAXW4ImGuiAxis@@@Z 10074420 f   imgui_widgets.obj
 0001:000735a0       ?ScrollbarEx@ImGui@@YA_NABUImRect@@IW4ImGuiAxis@@PA_J_J3H@Z 100745a0 f   imgui_widgets.obj
 0001:00073b70       ?Selectable@ImGui@@YA_NPBD_NHABUImVec2@@@Z 10074b70 f   imgui_widgets.obj
 0001:000740b0       ?Separator@ImGui@@YAXXZ    100750b0 f   imgui_widgets.obj
 0001:00074100       ?SeparatorEx@ImGui@@YAXHM@Z 10075100 f   imgui_widgets.obj
 0001:00074340       ?SeparatorText@ImGui@@YAXPBD@Z 10075340 f   imgui_widgets.obj
 0001:00074390       ?SeparatorTextEx@ImGui@@YAXIPBD0M@Z 10075390 f   imgui_widgets.obj
 0001:00074720       ?ShrinkWidths@ImGui@@YAXPAUImGuiShrinkWidthItem@@HM@Z 10075720 f   imgui_widgets.obj
 0001:00074920       ?SliderBehavior@ImGui@@YA_NABUImRect@@IHPAXPBX2PBDHPAU2@@Z 10075920 f   imgui_widgets.obj
 0001:00074b80       ?SliderInt@ImGui@@YA_NPBDPAHHH0H@Z 10075b80 f   imgui_widgets.obj
 0001:00074bb0       ?SliderScalar@ImGui@@YA_NPBDHPAXPBX20H@Z 10075bb0 f   imgui_widgets.obj
 0001:00075020       ?Spacing@ImGui@@YAXXZ      10076020 f   imgui_widgets.obj
 0001:00075ec0       ?TabBarQueueReorderFromMousePos@ImGui@@YAXPAUImGuiTabBar@@PAUImGuiTabItem@@UImVec2@@@Z 10076ec0 f   imgui_widgets.obj
 0001:00076220       ?TabItemBackground@ImGui@@YAXPAUImDrawList@@ABUImRect@@HI@Z 10077220 f   imgui_widgets.obj
 0001:00076480       ?TabItemCalcSize@ImGui@@YA?AUImVec2@@PBD_N@Z 10077480 f   imgui_widgets.obj
 0001:00076590       ?TabItemEx@ImGui@@YA_NPAUImGuiTabBar@@PBDPA_NHPAUImGuiWindow@@@Z 10077590 f   imgui_widgets.obj
 0001:00076f60       ?TabItemLabelAndCloseButton@ImGui@@YAXPAUImDrawList@@ABUImRect@@HUImVec2@@PBDII_NPA_N5@Z 10077f60 f   imgui_widgets.obj
 0001:000772b0       ?TempInputScalar@ImGui@@YA_NABUImRect@@IPBDHPAX1PBX3@Z 100782b0 f   imgui_widgets.obj
 0001:00077700       ?Text@ImGui@@YAXPBDZZ      10078700 f   imgui_widgets.obj
 0001:00077760       ?TextColored@ImGui@@YAXABUImVec4@@PBDZZ 10078760 f   imgui_widgets.obj
 0001:000777d0       ?TextDisabled@ImGui@@YAXPBDZZ 100787d0 f   imgui_widgets.obj
 0001:00077850       ?TextEx@ImGui@@YAXPBD0H@Z  10078850 f   imgui_widgets.obj
 0001:00077c40       ?TextUnformatted@ImGui@@YAXPBD0@Z 10078c40 f   imgui_widgets.obj
 0001:00077c60       ?TextV@ImGui@@YAXPBDPAD@Z  10078c60 f   imgui_widgets.obj
 0001:00077cb0       ?TextWrapped@ImGui@@YAXPBDZZ 10078cb0 f   imgui_widgets.obj
 0001:00077d40       ?TreeNode@ImGui@@YA_NPBD@Z 10078d40 f   imgui_widgets.obj
 0001:00077d90       ?TreeNodeBehavior@ImGui@@YA_NIHPBD0@Z 10078d90 f   imgui_widgets.obj
 0001:00078840       ?TreeNodeEx@ImGui@@YA_NPBDH0ZZ 10079840 f   imgui_widgets.obj
 0001:00078860       ?TreeNodeExV@ImGui@@YA_NPBDH0PAD@Z 10079860 f   imgui_widgets.obj
 0001:000788d0       ?TreeNodeSetOpen@ImGui@@YAXI_N@Z 100798d0 f   imgui_widgets.obj
 0001:00078900       ?TreePop@ImGui@@YAXXZ      10079900 f   imgui_widgets.obj
 0001:000789b0       ?TreePushOverrideID@ImGui@@YAXI@Z 100799b0 f   imgui_widgets.obj
 0001:000789e0       ?Update@ImGuiMenuColumns@@QAEXM_N@Z 100799e0 f   imgui_widgets.obj
 0001:0007a240       ?ImGui_ImplDX9_CreateDeviceObjects@@YA_NXZ 1007b240 f   imgui_impl_dx9.obj
 0001:0007a4a0       ?ImGui_ImplDX9_Init@@YA_NPAUIDirect3DDevice9@@@Z 1007b4a0 f   imgui_impl_dx9.obj
 0001:0007a520       ?ImGui_ImplDX9_InvalidateDeviceObjects@@YAXXZ 1007b520 f   imgui_impl_dx9.obj
 0001:0007a590       ?ImGui_ImplDX9_NewFrame@@YAXXZ 1007b590 f   imgui_impl_dx9.obj
 0001:0007a5d0       ?ImGui_ImplDX9_RenderDrawData@@YAXPAUImDrawData@@@Z 1007b5d0 f   imgui_impl_dx9.obj
 0001:0007aeb0       ?ImGui_ImplDX9_Shutdown@@YAXXZ 1007beb0 f   imgui_impl_dx9.obj
 0001:0007afc0       ?ImGui_ImplWin32_Init@@YA_NPAX@Z 1007bfc0 f   imgui_impl_win32.obj
 0001:0007b140       ?ImGui_ImplWin32_NewFrame@@YAXXZ 1007c140 f   imgui_impl_win32.obj
 0001:0007b400       ?ImGui_ImplWin32_Shutdown@@YAXXZ 1007c400 f   imgui_impl_win32.obj
 0001:0007c110       ?ImGui_ImplWin32_WndProcHandler@@YAJPAUHWND__@@IIJ@Z 1007d110 f   imgui_impl_win32.obj
 0001:0007cd70       _MH_CreateHook@12          1007dd70 f   minhook:hook.obj
 0001:0007cf80       _MH_DisableHook@4          1007df80 f   minhook:hook.obj
 0001:0007cfa0       _MH_EnableHook@4           1007dfa0 f   minhook:hook.obj
 0001:0007cfc0       _MH_Initialize@0           1007dfc0 f   minhook:hook.obj
 0001:0007d010       _MH_Uninitialize@0         1007e010 f   minhook:hook.obj
 0001:0007d260       _AllocateBuffer            1007e260 f   minhook:buffer.obj
 0001:0007d2e0       _FreeBuffer                1007e2e0 f   minhook:buffer.obj
 0001:0007d350       _IsExecutableAddress       1007e350 f   minhook:buffer.obj
 0001:0007d390       _UninitializeBuffer        1007e390 f   minhook:buffer.obj
 0001:0007d3d0       _CreateTrampolineFunction  1007e3d0 f   minhook:trampoline.obj
 0001:0007d6f0       _hde32_disasm              1007e6f0 f   minhook:hde32.obj
 0001:0007de3c       _GdipAlloc@4               1007ee3c f   gdiplus:gdiplus.dll
 0001:0007de42       _GdipFree@4                1007ee42 f   gdiplus:gdiplus.dll
 0001:0007de48       _GdiplusStartup@12         1007ee48 f   gdiplus:gdiplus.dll
 0001:0007de4e       _GdiplusShutdown@4         1007ee4e f   gdiplus:gdiplus.dll
 0001:0007de54       _GdipCloneImage@8          1007ee54 f   gdiplus:gdiplus.dll
 0001:0007de5a       _GdipDisposeImage@4        1007ee5a f   gdiplus:gdiplus.dll
 0001:0007de60       _GdipCreateBitmapFromScan0@24 1007ee60 f   gdiplus:gdiplus.dll
 0001:0007de66       _GdipBitmapLockBits@20     1007ee66 f   gdiplus:gdiplus.dll
 0001:0007de6c       _GdipBitmapUnlockBits@8    1007ee6c f   gdiplus:gdiplus.dll
 0001:0007de72       _GdipCreateFromHDC@8       1007ee72 f   gdiplus:gdiplus.dll
 0001:0007de78       _GdipDeleteGraphics@4      1007ee78 f   gdiplus:gdiplus.dll
 0001:0007de7e       _GdipSetInterpolationMode@8 1007ee7e f   gdiplus:gdiplus.dll
 0001:0007de84       _GdipDrawImageRectI@24     1007ee84 f   gdiplus:gdiplus.dll
 0001:0007de8a       _CreateToolhelp32Snapshot@8 1007ee8a f   kernel32:KERNEL32.dll
 0001:0007de90       _Thread32First@8           1007ee90 f   kernel32:KERNEL32.dll
 0001:0007de96       _Thread32Next@8            1007ee96 f   kernel32:KERNEL32.dll
 0001:0007de9c       __Query_perf_counter       1007ee9c f   libcpmt:xtime.obj
 0001:0007deb3       __Query_perf_frequency     1007eeb3 f   libcpmt:xtime.obj
 0001:0007def8       __Timespec64_get_sys       1007eef8 f   libcpmt:xtime.obj
 0001:0007df36       __Xtime_get_ticks          1007ef36 f   libcpmt:xtime.obj
 0001:0007df5d       __Thrd_sleep_for@4         1007ef5d f   libcpmt:sharedmutex.obj
 0001:0007df63       ??0bad_alloc@std@@QAE@XZ   1007ef63 f i libcpmt:xthrow.obj
 0001:0007df81       ??0bad_function_call@std@@QAE@ABV01@@Z 1007ef81 f i libcpmt:xthrow.obj
 0001:0007df9c       ??0bad_function_call@std@@QAE@XZ 1007ef9c f i libcpmt:xthrow.obj
 0001:0007dfb3       ??0length_error@std@@QAE@ABV01@@Z 1007efb3 f i libcpmt:xthrow.obj
 0001:0007dfce       ??0length_error@std@@QAE@PBD@Z 1007efce f i libcpmt:xthrow.obj
 0001:0007dff0       ??0logic_error@std@@QAE@ABV01@@Z 1007eff0 f i libcpmt:xthrow.obj
 0001:0007e00b       ??0out_of_range@std@@QAE@ABV01@@Z 1007f00b f i libcpmt:xthrow.obj
 0001:0007e026       ??0out_of_range@std@@QAE@PBD@Z 1007f026 f i libcpmt:xthrow.obj
 0001:0007e045       ??0runtime_error@std@@QAE@PBD@Z 1007f045 f i libcpmt:xthrow.obj
 0001:0007e064       ??_Ebad_exception@std@@UAEPAXI@Z 1007f064 f i libvcruntime:frame.obj
 0001:0007e064       ??_Ebad_function_call@std@@UAEPAXI@Z 1007f064 f i libcpmt:xthrow.obj
 0001:0007e064       ??_Elength_error@std@@UAEPAXI@Z 1007f064 f i libcpmt:xthrow.obj
 0001:0007e064       ??_Elogic_error@std@@UAEPAXI@Z 1007f064 f i libcpmt:xthrow.obj
 0001:0007e064       ??_Eout_of_range@std@@UAEPAXI@Z 1007f064 f i libcpmt:xthrow.obj
 0001:0007e064       ??_Gbad_exception@std@@UAEPAXI@Z 1007f064 f i libvcruntime:frame.obj
 0001:0007e064       ??_Gbad_function_call@std@@UAEPAXI@Z 1007f064 f i libcpmt:xthrow.obj
 0001:0007e064       ??_Glength_error@std@@UAEPAXI@Z 1007f064 f i libcpmt:xthrow.obj
 0001:0007e064       ??_Glogic_error@std@@UAEPAXI@Z 1007f064 f i libcpmt:xthrow.obj
 0001:0007e064       ??_Gout_of_range@std@@UAEPAXI@Z 1007f064 f i libcpmt:xthrow.obj
 0001:0007e091       ?_Xbad_alloc@std@@YAXXZ    1007f091 f   libcpmt:xthrow.obj
 0001:0007e091       ?__scrt_throw_std_bad_alloc@@YAXXZ 1007f091 f   LIBCMT:throw_bad_alloc.obj
 0001:0007e0ae       ?_Xbad_function_call@std@@YAXXZ 1007f0ae f   libcpmt:xthrow.obj
 0001:0007e0cb       ?_Xlength_error@std@@YAXPBD@Z 1007f0cb f   libcpmt:xthrow.obj
 0001:0007e0eb       ?_Xout_of_range@std@@YAXPBD@Z 1007f0eb f   libcpmt:xthrow.obj
 0001:0007e10b       ?_Xruntime_error@std@@YAXPBD@Z 1007f10b f   libcpmt:xthrow.obj
 0001:0007e12b       ?what@bad_function_call@std@@UBEPBDXZ 1007f12b f i libcpmt:xthrow.obj
 0001:0007e131       ___std_init_once_link_alternate_names_and_abort@0 1007f131 f   libcpmt:xonce2.obj
 0001:0007e136       __Mtx_lock                 1007f136 f   libcpmt:mutex.obj
 0001:0007e147       __Mtx_unlock               1007f147 f   libcpmt:mutex.obj
 0001:0007e295       ??0system_error@std@@QAE@HABVerror_category@1@PBD@Z 1007f295 f i libcpmt:thread0.obj
 0001:0007e2e5       ??_E_Generic_error_category@std@@UAEPAXI@Z 1007f2e5 f i libcpmt:thread0.obj
 0001:0007e2e5       ??_G_Generic_error_category@std@@UAEPAXI@Z 1007f2e5 f i libcpmt:thread0.obj
 0001:0007e302       ?_Throw_Cpp_error@std@@YAXH@Z 1007f302 f   libcpmt:thread0.obj
 0001:0007e337       ?generic_category@std@@YAABVerror_category@1@XZ 1007f337 f i libcpmt:thread0.obj
 0001:0007e33d       ?message@_Generic_error_category@std@@UBE?AV?$basic_string@DU?$char_traits@D@std@@V?$allocator@D@2@@2@H@Z 1007f33d f i libcpmt:thread0.obj
 0001:0007e35a       ?name@_Generic_error_category@std@@UBEPBDXZ 1007f35a f i libcpmt:thread0.obj
 0001:0007f150       ___std_find_last_of_trivial_pos_1@16 10080150 f   libcpmt:vector_algorithms.obj
 0001:0007f170       ___std_find_trivial_1@12   10080170 f   libcpmt:vector_algorithms.obj
 0001:0007f180       ___std_reverse_trivially_swappable_8 10080180 f   libcpmt:vector_algorithms.obj
 0001:0007f260       ___std_search_1@16         10080260 f   libcpmt:vector_algorithms.obj
 0001:0007f270       ___std_search_2@16         10080270 f   libcpmt:vector_algorithms.obj
 0001:0007f279       ??0_Init_locks@std@@QAE@XZ 10080279 f   libcpmt:xlock.obj
 0001:0007f2a6       ??0_Lockit@std@@QAE@H@Z    100802a6 f   libcpmt:xlock.obj
 0001:0007f2d7       ??1_Init_locks@std@@QAE@XZ 100802d7 f   libcpmt:xlock.obj
 0001:0007f2fe       ??1_Lockit@std@@QAE@XZ     100802fe f   libcpmt:xlock.obj
 0001:0007f31d       ?uncaught_exception@std@@YA_NXZ 1008031d f   libcpmt:uncaught_exception.obj
 0001:0007f322       ?_Syserror_map@std@@YAPBDH@Z 10080322 f   libcpmt:syserror.obj
 0001:0007f347       ??0_Locimp@locale@std@@AAE@_N@Z 10080347 f i libcpmt:locale0.obj
 0001:0007f388       ??1_Fac_node@std@@QAE@XZ   10080388 f i libcpmt:locale0.obj
 0001:0007f3b9       ??1_Fac_tidy_reg_t@std@@QAE@XZ 100803b9 f i libcpmt:locale0.obj
 0001:0007f3dd       ??1_Locimp@locale@std@@MAE@XZ 100803dd f i libcpmt:locale0.obj
 0001:0007f3fd       ??4?$_Yarn@D@std@@QAEAAV01@PBD@Z 100803fd f i libcpmt:locale0.obj
 0001:0007f446       ??_E_Locimp@locale@std@@MAEPAXI@Z 10080446 f i libcpmt:locale0.obj
 0001:0007f446       ??_G_Locimp@locale@std@@MAEPAXI@Z 10080446 f i libcpmt:locale0.obj
 0001:0007f468       ?_Facet_Register@std@@YAXPAV_Facet_base@1@@Z 10080468 f   libcpmt:locale0.obj
 0001:0007f495       ?_Getgloballocale@locale@std@@CAPAV_Locimp@12@XZ 10080495 f   libcpmt:locale0.obj
 0001:0007f49b       ?_Init@locale@std@@CAPAV_Locimp@12@_N@Z 1008049b f   libcpmt:locale0.obj
 0001:0007f528       ?_Locimp_dtor@_Locimp@locale@std@@CAXPAV123@@Z 10080528 f   libcpmt:locale0.obj
 0001:0007f599       ?_Locinfo_ctor@_Locinfo@std@@SAXPAV12@PBD@Z 10080599 f   libcpmt:locale0.obj
 0001:0007f5e5       ?_Locinfo_dtor@_Locinfo@std@@SAXPAV12@@Z 100805e5 f   libcpmt:locale0.obj
 0001:0007f5ff       ?_New_Locimp@_Locimp@locale@std@@CAPAV123@_N@Z 100805ff f   libcpmt:locale0.obj
 0001:0007f622       ?_Setgloballocale@locale@std@@CAXPAX@Z 10080622 f   libcpmt:locale0.obj
 0001:0007f64a       __Deletegloballocale       1008064a f   libcpmt:locale0.obj
 0001:0007f6b2       __Getctype                 100806b2 f   libcpmt:_tolower.obj
 0001:0007f720       __Tolower                  10080720 f   libcpmt:_tolower.obj
 0001:0007f80c       __Getcvt                   1008080c f   libcpmt:xwctomb.obj
 0001:0007f87f       __Toupper                  1008087f f   libcpmt:_toupper.obj
 0001:0007f96b       ?_Addstd@ios_base@std@@SAXPAV12@@Z 1008096b f   libcpmt:ios.obj
 0001:0007f9b7       ?_Callfns@ios_base@std@@AAEXW4event@12@@Z 100809b7 f i libcpmt:ios.obj
 0001:0007f9ea       ?_Ios_base_dtor@ios_base@std@@CAXPAV12@@Z 100809ea f   libcpmt:ios.obj
 0001:0007fa2a       ?_Tidy@ios_base@std@@AAEXXZ 10080a2a f i libcpmt:ios.obj
 0001:0007fb30       ?_Fiopen@std@@YAPAU_iobuf@@PBDHH@Z 10080b30 f   libcpmt:fiopen.obj
 0001:0007fb39       ?setw@std@@YA?AU?$_Smanip@_J@1@_J@Z 10080b39 f   libcpmt:iomanip.obj
 0001:0007fb9b       ___crtGetSystemTimePreciseAsFileTime 10080b9b f   libcpmt:winapisupp.obj
 0001:0007fbf0       __Mtxdst                   10080bf0 f   libcpmt:xmtx.obj
 0001:0007fbfe       __Mtxinit                  10080bfe f   libcpmt:xmtx.obj
 0001:0007fc13       __Mtxlock                  10080c13 f   libcpmt:xmtx.obj
 0001:0007fc21       __Mtxunlock                10080c21 f   libcpmt:xmtx.obj
 0001:0007fc2f       ??1_Init_atexit@@QAE@XZ    10080c2f f i libcpmt:iosptrs.obj
 0001:0007fc97       ?_Atexit@@YAXP6AXXZ@Z      10080c97 f   libcpmt:iosptrs.obj
 0001:0007fcc6       ??1?$__crt_scoped_stack_ptr@_W@@QAE@XZ 10080cc6 f i libcpmt:StlLCMapStringA.obj
 0001:0007fcdf       ___crtLCMapStringA         10080cdf f   libcpmt:StlLCMapStringA.obj
 0001:0007feaf       __freea_crt                10080eaf f i libcpmt:StlLCMapStringA.obj
 0001:0007fed0       __alldiv                   10080ed0 f   LIBCMT:lldiv.obj
 0001:0007ff80       __alldvrm                  10080f80 f   LIBCMT:lldvrm.obj
 0001:00080060       __allmul                   10081060 f   LIBCMT:llmul.obj
 0001:00080094       ??_V@YAXPAX@Z              10081094 f   LIBCMT:delete_array.obj
 0001:00080099       @__security_check_cookie@4 10081099 f   LIBCMT:secchk.obj
 0001:000800a7       ??2@YAPAXI@Z               100810a7 f   LIBCMT:new_scalar.obj
 0001:000800d7       ??3@YAXPAXI@Z              100810d7 f   LIBCMT:delete_scalar_size.obj
 0001:00080127       ___scrt_acquire_startup_lock 10081127 f   LIBCMT:utility.obj
 0001:00080159       ___scrt_dllmain_after_initialize_c 10081159 f   LIBCMT:utility.obj
 0001:00080184       ___scrt_dllmain_before_initialize_c 10081184 f   LIBCMT:utility.obj
 0001:00080192       ___scrt_dllmain_crt_thread_attach 10081192 f   LIBCMT:utility.obj
 0001:000801b1       ___scrt_dllmain_crt_thread_detach 100811b1 f   LIBCMT:utility.obj
 0001:000801be       ___scrt_dllmain_exception_filter 100811be f   LIBCMT:utility.obj
 0001:000801f2       ___scrt_dllmain_uninitialize_c 100811f2 f   LIBCMT:utility.obj
 0001:00080215       ___scrt_dllmain_uninitialize_critical 10081215 f   LIBCMT:utility.obj
 0001:00080222       ___scrt_initialize_crt     10081222 f   LIBCMT:utility.obj
 0001:0008025b       ___scrt_initialize_onexit_tables 1008125b f   LIBCMT:utility.obj
 0001:000802e2       ___scrt_is_nonwritable_in_current_image 100812e2 f   LIBCMT:utility.obj
 0001:00080379       ___scrt_release_startup_lock 10081379 f   LIBCMT:utility.obj
 0001:00080396       ___scrt_uninitialize_crt   10081396 f   LIBCMT:utility.obj
 0001:000803be       __onexit                   100813be f   LIBCMT:utility.obj
 0001:000803ec       _atexit                    100813ec f   LIBCMT:utility.obj
 0001:00080401       ??_Etype_info@@UAEPAXI@Z   10081401 f i LIBCMT:std_type_info_static.obj
 0001:00080401       ??_Gtype_info@@UAEPAXI@Z   10081401 f i LIBCMT:std_type_info_static.obj
 0001:00080430       __aullrem                  10081430 f   LIBCMT:ullrem.obj
 0001:000804a5       ___dyn_tls_init@12         100814a5 f   LIBCMT:tlsdyn.obj
 0001:00080529       ___dyn_tls_on_demand_init  10081529 f   LIBCMT:tlsdyn.obj
 0001:00080535       ??3@YAXPAX@Z               10081535 f   LIBCMT:delete_scalar.obj
 0001:0008053a       ??2@YAPAXIABUnothrow_t@std@@@Z 1008153a f   LIBCMT:new_scalar_nothrow.obj
 0001:000805a0       __alloca_probe             100815a0 f   LIBCMT:chkstk.obj
 0001:000805a0       __chkstk                   100815a0 f   LIBCMT:chkstk.obj
 0001:000805cb       __Init_thread_footer       100815cb f   LIBCMT:thread_safe_statics.obj
 0001:0008061c       __Init_thread_header       1008161c f   LIBCMT:thread_safe_statics.obj
 0001:0008066e       __Init_thread_wait_v2      1008166e f   LIBCMT:thread_safe_statics.obj
 0001:00080690       __ftoul3                   10081690 f   LIBCMT:ftol3.obj
 0001:00080700       __ftoul3_legacy            10081700 f   LIBCMT:ftol3.obj
 0001:00080730       __ftol3                    10081730 f   LIBCMT:ftol3.obj
 0001:000807a0       __dtoul3                   100817a0 f   LIBCMT:ftol3.obj
 0001:00080850       __dtoul3_legacy            10081850 f   LIBCMT:ftol3.obj
 0001:00080880       __dtol3                    10081880 f   LIBCMT:ftol3.obj
 0001:00080930       __ultod3                   10081930 f   LIBCMT:ftol3.obj
 0001:00080980       __ltod3                    10081980 f   LIBCMT:ftol3.obj
 0001:000809d0       __ultof3                   100819d0 f   LIBCMT:ftol3.obj
 0001:00080a50       __ltof3                    10081a50 f   LIBCMT:ftol3.obj
 0001:00080a96       ___raise_securityfailure   10081a96 f   LIBCMT:gs_report.obj
 0001:00080abe       ___report_gsfailure        10081abe f   LIBCMT:gs_report.obj
 0001:00080bb9       ___report_rangecheckfailure 10081bb9 f   LIBCMT:gs_report.obj
 0001:00080bc6       ___report_securityfailure  10081bc6 f   LIBCMT:gs_report.obj
 0001:00080c96       ___isa_available_init      10081c96 f   LIBCMT:cpu_disp.obj
 0001:000812fd       __DllMainCRTStartup@12     100822fd f   LIBCMT:dll_dllmain.obj
 0001:00081320       __aulldiv                  10082320 f   LIBCMT:ulldiv.obj
 0001:00081388       __EH_epilog3               10082388 f   LIBCMT:ehprolg3.obj
 0001:0008139c       __EH_epilog3_GS            1008239c f   LIBCMT:ehprolg3.obj
 0001:000813ab       __EH_prolog3               100823ab f   LIBCMT:ehprolg3.obj
 0001:000813de       __EH_prolog3_GS            100823de f   LIBCMT:ehprolg3.obj
 0001:00081414       __EH_prolog3_catch         10082414 f   LIBCMT:ehprolg3.obj
 0001:00081450       __alloca_probe_16          10082450 f   LIBCMT:alloca16.obj
 0001:00081466       __alloca_probe_8           10082466     LIBCMT:alloca16.obj
 0001:0008147c       __get_startup_argv_mode    1008247c f   LIBCMT:argv_mode.obj
 0001:00081480       ___scrt_is_ucrt_dll_in_use 10082480 f   LIBCMT:ucrt_detection.obj
 0001:0008148c       ___scrt_fastfail           1008248c f   LIBCMT:utility_desktop.obj
 0001:000815a1       __crt_debugger_hook        100825a1 f   LIBCMT:utility_desktop.obj
 0001:000815b0       __SEH_prolog4              100825b0 f   LIBCMT:sehprolg4.obj
 0001:00081642       ___security_init_cookie    10082642 f   LIBCMT:gs_support.obj
 0001:0008168d       ?__scrt_initialize_type_info@@YAXXZ 1008268d f   LIBCMT:tncleanup.obj
 0001:00081699       ?__scrt_uninitialize_type_info@@YAXXZ 10082699 f   LIBCMT:tncleanup.obj
 0001:000816a5       ___scrt_initialize_default_local_stdio_options 100826a5 f   LIBCMT:default_local_stdio_options.obj
 0001:000816c2       ___scrt_get_dyn_tls_init_callback 100826c2 f   LIBCMT:dyn_tls_init.obj
 0001:000816c8       __RTC_Initialize           100826c8 f   LIBCMT:initsect.obj
 0001:000816f4       __RTC_Terminate            100826f4 f   LIBCMT:initsect.obj
 0001:00081720       _ImmGetContext@4           10082720 f   imm32:IMM32.dll
 0001:00081726       _ImmReleaseContext@8       10082726 f   imm32:IMM32.dll
 0001:0008172c       _ImmSetCompositionWindow@8 1008272c f   imm32:IMM32.dll
 0001:00081732       _ImmSetCandidateWindow@8   10082732 f   imm32:IMM32.dll
 0001:00081738       ?GetRangeOfTrysToCheck@__FrameHandler3@@SA?AU?$pair@Viterator@TryBlockMap@__FrameHandler3@@V123@@std@@AAVTryBlockMap@1@HPAXPBU_s_FuncInfo@@H@Z 10082738 f   libvcruntime:trnsctrl.obj
 0001:000817a7       ?_CallCatchBlock2@@YAPAXPAUEHRegistrationNode@@PBU_s_FuncInfo@@PAXHK@Z 100827a7 f   libvcruntime:trnsctrl.obj
 0001:00081807       ?_CallSETranslator@@YAHPAUEHExceptionRecord@@PAUEHRegistrationNode@@PAX2PBU_s_FuncInfo@@H1@Z 10082807 f   libvcruntime:trnsctrl.obj
 0001:00081906       ?_JumpToContinuation@@YGXPAXPAUEHRegistrationNode@@@Z 10082906 f   libvcruntime:trnsctrl.obj
 0001:00081936       ?_UnwindNestedFrames@@YGXPAUEHRegistrationNode@@PAUEHExceptionRecord@@@Z 10082936 f   libvcruntime:trnsctrl.obj
 0001:0008198a       __CatchGuardHandler        1008298a f   libvcruntime:trnsctrl.obj
 0001:000819bb       __CreateFrameInfo          100829bb f   libvcruntime:trnsctrl.obj
 0001:000819df       __FindAndUnlinkFrame       100829df f   libvcruntime:trnsctrl.obj
 0001:00081a27       __TranslatorGuardHandler   10082a27 f   libvcruntime:trnsctrl.obj
 0001:00081ac6       ___CxxFrameHandler3        10082ac6 f   libvcruntime:trnsctrl.obj
 0001:00081b00       _memcpy                    10082b00 f   libvcruntime:memcpy.obj
 0001:00081b00       _memmove                   10082b00 f   libvcruntime:memmove.obj
 0001:00082074       ___std_exception_copy      10083074 f   libvcruntime:std_exception.obj
 0001:000820d7       ___std_exception_destroy   100830d7 f   libvcruntime:std_exception.obj
 0001:000820f9       __CxxThrowException@8      100830f9 f   libvcruntime:throw.obj
 0001:00082170       _memset                    10083170 f   libvcruntime:memset.obj
 0001:000822ca       ___DestructExceptionObject 100832ca f   libvcruntime:ehhelpers.obj
 0001:00082372       ?_CallMemberFunction0@@YGXQAX0@Z 10083372 f i libvcruntime:ehhelpers.obj
 0001:000823d7       __IsExceptionObjectToBeDestroyed 100833d7 f   libvcruntime:ehhelpers.obj
 0001:000823fd       ___AdjustPointer           100833fd f   libvcruntime:ehhelpers.obj
 0001:00082422       ___FrameUnwindFilter       10083422 f   libvcruntime:ehhelpers.obj
 0001:00082478       ___std_terminate           10083478 f   libvcruntime:ehhelpers.obj
 0001:000824c0       __except_handler4          100834c0 f   libvcruntime:chandler4.obj
 0001:00082620       _strrchr                   10083620 f   libvcruntime:strrchr.obj
 0001:00082760       _strstr                    10083760 f   libvcruntime:strstr.obj
 0001:000829cb       _wcschr                    100839cb f   libvcruntime:wcschr.obj
 0001:00082a65       _wcsstr                    10083a65 f   libvcruntime:wcsstr.obj
 0001:00082d00       _memchr                    10083d00 f   libvcruntime:memchr.obj
 0001:00082dad       __get_purecall_handler     10083dad f   libvcruntime:purevirt.obj
 0001:00082db4       __purecall                 10083db4 f   libvcruntime:purevirt.obj
 0001:00082dd0       _strchr                    10083dd0 f   libvcruntime:strchr.obj
 0001:00082e3e       ___from_strstr_to_strchr   10083e3e     libvcruntime:strchr.obj
 0001:00082efb       ___uncaught_exception      10083efb f   libvcruntime:uncaught_exception.obj
 0001:00082f0f       _memcmp                    10083f0f f   libvcruntime:memcmp.obj
 0001:000842d3       ___vcrt_initialize         100852d3 f   libvcruntime:initialization.obj
 0001:000842f2       ___vcrt_thread_attach      100852f2 f   libvcruntime:initialization.obj
 0001:000842fd       ___vcrt_thread_detach      100852fd f   libvcruntime:initialization.obj
 0001:00084305       ___vcrt_uninitialize       10085305 f   libvcruntime:initialization.obj
 0001:0008431c       ___vcrt_uninitialize_critical 1008531c f   libvcruntime:initialization.obj
 0001:00084324       ___std_type_info_compare   10085324 f   libvcruntime:std_type_info.obj
 0001:00084360       ___std_type_info_destroy_list 10085360 f   libvcruntime:std_type_info.obj
 0001:00084383       ___vcrt_freefls@4          10085383 f   libvcruntime:per_thread_data.obj
 0001:0008439f       ___vcrt_freeptd_for_this_thread 1008539f f   libvcruntime:per_thread_data.obj
 0001:000843ca       ___vcrt_getptd             100853ca f   libvcruntime:per_thread_data.obj
 0001:000843d8       ___vcrt_getptd_noexit      100853d8 f   libvcruntime:per_thread_data.obj
 0001:0008446a       ___vcrt_getptd_noinit      1008546a f   libvcruntime:per_thread_data.obj
 0001:000844a2       ___vcrt_initialize_ptd     100854a2 f   libvcruntime:per_thread_data.obj
 0001:000844d5       ___vcrt_uninitialize_ptd   100854d5 f   libvcruntime:per_thread_data.obj
 0001:00084c27       ??$TypeMatchHelper@V__FrameHandler3@@@@YAHPBU_s_HandlerType@@PBU_s_CatchableType@@PBU_s_ThrowInfo@@@Z 10085c27 f i libvcruntime:frame.obj
 0001:00084cb5       ??$__InternalCxxFrameHandler@V__FrameHandler3@@@@YA?AW4_EXCEPTION_DISPOSITION@@PAUEHExceptionRecord@@PAUEHRegistrationNode@@PAU_CONTEXT@@PAXPBU_s_FuncInfo@@H1E@Z 10085cb5 f i libvcruntime:frame.obj
 0001:00084db7       ??$__InternalCxxFrameHandlerWrapper@V__FrameHandler3@@@@YA?AW4_EXCEPTION_DISPOSITION@@PAUEHExceptionRecord@@PAUEHRegistrationNode@@PAU_CONTEXT@@PAXPBU_s_FuncInfo@@H1E@Z 10085db7 f i libvcruntime:frame.obj
 0001:00084dc0       ??0bad_exception@std@@QAE@ABV01@@Z 10085dc0 f i libvcruntime:frame.obj
 0001:00084ddb       ??0bad_exception@std@@QAE@XZ 10085ddb f i libvcruntime:frame.obj
 0001:00084df9       ??8type_info@@QBE_NABV0@@Z 10085df9 f i libvcruntime:frame.obj
 0001:00085073       ?FrameUnwindToEmptyState@__FrameHandler3@@SAXPAUEHRegistrationNode@@PAXPBU_s_FuncInfo@@@Z 10086073 f   libvcruntime:frame.obj
 0001:0008508b       ?FrameUnwindToState@__FrameHandler3@@SAXPAUEHRegistrationNode@@PAXPBU_s_FuncInfo@@H@Z 1008608b f   libvcruntime:frame.obj
 0001:00085213       ?_CallMemberFunction1@@YGXQAX00@Z 10086213 f i libvcruntime:frame.obj
 0001:00085223       ?_CallMemberFunction2@@YGXQAX00H@Z 10086223 f i libvcruntime:frame.obj
 0001:00085236       ?getESTypes@__FrameHandler3@@SAPBU_s_ESTypeList@@PBU_s_FuncInfo@@@Z 10086236 f i libvcruntime:frame.obj
 0001:00085250       __CallSettingFrame@12      10086250 f   libvcruntime:lowhelpr.obj
 0001:00085277       __NLG_Return               10086277     libvcruntime:lowhelpr.obj
 0001:0008529c       ___except_validate_context_record 1008629c f   libvcruntime:jbcxrval.obj
 0001:000852d0       __local_unwind4            100862d0 f   libvcruntime:exsup4.obj
 0001:000853c0       @_EH4_CallFilterFunc@8     100863c0 f   libvcruntime:exsup4.obj
 0001:000853e0       @_EH4_TransferToHandler@8  100863e0 f   libvcruntime:exsup4.obj
 0001:00085400       @_EH4_GlobalUnwind2@8      10086400 f   libvcruntime:exsup4.obj
 0001:00085420       @_EH4_LocalUnwind@16       10086420 f   libvcruntime:exsup4.obj
 0001:00085437       ___vcrt_initialize_locks   10086437 f   libvcruntime:locks.obj
 0001:00085473       ___vcrt_uninitialize_locks 10086473 f   libvcruntime:locks.obj
 0001:0008558d       ___vcrt_FlsAlloc           1008658d f   libvcruntime:winapi_downlevel.obj
 0001:000855c8       ___vcrt_FlsFree            100865c8 f   libvcruntime:winapi_downlevel.obj
 0001:00085603       ___vcrt_FlsGetValue        10086603 f   libvcruntime:winapi_downlevel.obj
 0001:0008563e       ___vcrt_FlsSetValue        1008663e f   libvcruntime:winapi_downlevel.obj
 0001:0008567c       ___vcrt_InitializeCriticalSectionEx 1008667c f   libvcruntime:winapi_downlevel.obj
 0001:000856c3       _unexpected                100866c3 f   libvcruntime:unexpected.obj
 0001:000856e0       ?GetCurrentState@__FrameHandler3@@SAHPAUEHRegistrationNode@@PAXPBU_s_FuncInfo@@@Z 100866e0 f   libvcruntime:ehstate.obj
 0001:000856fd       ?SetState@__FrameHandler3@@SAXPAUEHRegistrationNode@@PBU_s_FuncInfo@@H@Z 100866fd f   libvcruntime:ehstate.obj
 0001:00085710       __NLG_Notify1              10086710 f   libvcruntime:exsup.obj
 0001:00085720       __NLG_Notify               10086720 f   libvcruntime:exsup.obj
 0001:00085737       __NLG_Dispatch             10086737     libvcruntime:exsup.obj
 0001:00085737       __NLG_Dispatch2            10086737     libvcruntime:exsup.obj
 0001:00085740       __NLG_Call                 10086740 f   libvcruntime:exsup.obj
 0001:00085742       __NLG_Return2              10086742     libvcruntime:exsup.obj
 0001:00085743       ??0__crt_cached_ptd_host@@QAE@QAU__crt_locale_pointers@@@Z 10086743 f i libucrt:invalid_parameter.obj
 0001:0008578b       ??1__crt_cached_ptd_host@@QAE@XZ 1008678b f i libucrt:invalid_parameter.obj
 0001:000857c7       ?check_synchronize_global_state_index@__crt_cached_ptd_host@@AAEIXZ 100867c7 f i libucrt:invalid_parameter.obj
 0001:000857f0       ?force_synchronize_per_thread_data@__crt_cached_ptd_host@@AAEPAU__acrt_ptd@@XZ 100867f0 f i libucrt:invalid_parameter.obj
 0001:00085836       ?get_raw_ptd@__crt_cached_ptd_host@@QAEPAU__acrt_ptd@@XZ 10086836 f i libucrt:invalid_parameter.obj
 0001:00085853       ___acrt_call_reportfault   10086853 f   libucrt:invalid_parameter.obj
 0001:0008598c       ___acrt_initialize_invalid_parameter_handler 1008698c f   libucrt:invalid_parameter.obj
 0001:0008599b       __invalid_parameter        1008699b f   libucrt:invalid_parameter.obj
 0001:000859d2       __invalid_parameter_internal 100869d2 f   libucrt:invalid_parameter.obj
 0001:00085a4f       __invalid_parameter_noinfo 10086a4f f   libucrt:invalid_parameter.obj
 0001:00085a5f       __invoke_watson            10086a5f f   libucrt:invalid_parameter.obj
 0001:00085a93       _abort                     10086a93 f   libucrt:abort.obj
 0001:000860d6       ??$count@D@formatting_buffer@__crt_stdio_output@@QBEIXZ 100870d6 f i libucrt:output.obj
 0001:000860ee       ??$count@_W@formatting_buffer@__crt_stdio_output@@QBEIXZ 100870ee f i libucrt:output.obj
 0001:00086107       ??$ensure_buffer_is_big_enough@D@formatting_buffer@__crt_stdio_output@@QAE_NIAAV__crt_cached_ptd_host@@@Z 10087107 f i libucrt:output.obj
 0001:00086187       ??$ensure_buffer_is_big_enough@_W@formatting_buffer@__crt_stdio_output@@QAE_NIAAV__crt_cached_ptd_host@@@Z 10087187 f i libucrt:output.obj
 0001:00086208       ??$is_overflow_condition@K@__crt_strtox@@YA_NIK@Z 10087208 f i libucrt:output.obj
 0001:0008623c       ??$is_wide_character_specifier@D@__crt_stdio_output@@YA_N_KDW4length_modifier@0@@Z 1008723c f i libucrt:output.obj
 0001:0008626d       ??$is_wide_character_specifier@_W@__crt_stdio_output@@YA_N_K_WW4length_modifier@0@@Z 1008726d f i libucrt:output.obj
 0001:000862bb       ??$make_c_string_character_source@DPAPAD@__crt_strtox@@YA?AV?$c_string_character_source@D@0@QBDQAPAD@Z 100872bb f i libucrt:output.obj
 0001:000862bb       ??$make_c_string_character_source@_WPAPA_W@__crt_strtox@@YA?AV?$c_string_character_source@_W@0@QB_WQAPA_W@Z 100872bb f i libucrt:output.obj
 0001:000862d6       ??$parse_integer@KV?$c_string_character_source@D@__crt_strtox@@$0A@@__crt_strtox@@YAKAAV__crt_cached_ptd_host@@V?$c_string_character_source@D@0@H_N@Z 100872d6 f i libucrt:output.obj
 0001:000864e9       ??$parse_integer@KV?$c_string_character_source@_W@__crt_strtox@@$0A@@__crt_strtox@@YAKAAV__crt_cached_ptd_host@@V?$c_string_character_source@_W@0@H_N@Z 100874e9 f i libucrt:output.obj
 0001:00086acd       ??$scratch_data@D@formatting_buffer@__crt_stdio_output@@QAEPADXZ 10087acd f i libucrt:output.obj
 0001:00086aeb       ??$type_case_integer@$07@?$output_processor@DV?$stream_output_adapter@D@__crt_stdio_output@@V?$standard_base@DV?$stream_output_adapter@D@__crt_stdio_output@@@2@@__crt_stdio_output@@AAE_N_N@Z 10087aeb f i libucrt:output.obj
 0001:00086aeb       ??$type_case_integer@$07@?$output_processor@DV?$string_output_adapter@D@__crt_stdio_output@@V?$format_validation_base@DV?$string_output_adapter@D@__crt_stdio_output@@@2@@__crt_stdio_output@@AAE_N_N@Z 10087aeb f i libucrt:output.obj
 0001:00086aeb       ??$type_case_integer@$07@?$output_processor@DV?$string_output_adapter@D@__crt_stdio_output@@V?$standard_base@DV?$string_output_adapter@D@__crt_stdio_output@@@2@@__crt_stdio_output@@AAE_N_N@Z 10087aeb f i libucrt:output.obj
 0001:00086c78       ??$type_case_integer@$07@?$output_processor@_WV?$string_output_adapter@_W@__crt_stdio_output@@V?$format_validation_base@_WV?$string_output_adapter@_W@__crt_stdio_output@@@2@@__crt_stdio_output@@AAE_N_N@Z 10087c78 f i libucrt:output.obj
 0001:00086e0a       ??$type_case_integer@$09@?$output_processor@DV?$stream_output_adapter@D@__crt_stdio_output@@V?$standard_base@DV?$stream_output_adapter@D@__crt_stdio_output@@@2@@__crt_stdio_output@@AAE_N_N@Z 10087e0a f i libucrt:output.obj
 0001:00086e0a       ??$type_case_integer@$09@?$output_processor@DV?$string_output_adapter@D@__crt_stdio_output@@V?$format_validation_base@DV?$string_output_adapter@D@__crt_stdio_output@@@2@@__crt_stdio_output@@AAE_N_N@Z 10087e0a f i libucrt:output.obj
 0001:00086e0a       ??$type_case_integer@$09@?$output_processor@DV?$string_output_adapter@D@__crt_stdio_output@@V?$standard_base@DV?$string_output_adapter@D@__crt_stdio_output@@@2@@__crt_stdio_output@@AAE_N_N@Z 10087e0a f i libucrt:output.obj
 0001:00086f97       ??$type_case_integer@$09@?$output_processor@_WV?$string_output_adapter@_W@__crt_stdio_output@@V?$format_validation_base@_WV?$string_output_adapter@_W@__crt_stdio_output@@@2@@__crt_stdio_output@@AAE_N_N@Z 10087f97 f i libucrt:output.obj
 0001:00087129       ??$type_case_integer@$0BA@@?$output_processor@DV?$stream_output_adapter@D@__crt_stdio_output@@V?$standard_base@DV?$stream_output_adapter@D@__crt_stdio_output@@@2@@__crt_stdio_output@@AAE_N_N@Z 10088129 f i libucrt:output.obj
 0001:00087129       ??$type_case_integer@$0BA@@?$output_processor@DV?$string_output_adapter@D@__crt_stdio_output@@V?$format_validation_base@DV?$string_output_adapter@D@__crt_stdio_output@@@2@@__crt_stdio_output@@AAE_N_N@Z 10088129 f i libucrt:output.obj
 0001:00087129       ??$type_case_integer@$0BA@@?$output_processor@DV?$string_output_adapter@D@__crt_stdio_output@@V?$standard_base@DV?$string_output_adapter@D@__crt_stdio_output@@@2@@__crt_stdio_output@@AAE_N_N@Z 10088129 f i libucrt:output.obj
 0001:000872b6       ??$type_case_integer@$0BA@@?$output_processor@_WV?$string_output_adapter@_W@__crt_stdio_output@@V?$format_validation_base@_WV?$string_output_adapter@_W@__crt_stdio_output@@@2@@__crt_stdio_output@@AAE_N_N@Z 100882b6 f i libucrt:output.obj
 0001:00087448       ??$type_case_integer_parse_into_buffer@I$07@?$output_processor@DV?$stream_output_adapter@D@__crt_stdio_output@@V?$standard_base@DV?$stream_output_adapter@D@__crt_stdio_output@@@2@@__crt_stdio_output@@AAEXI_N@Z 10088448 f i libucrt:output.obj
 0001:00087448       ??$type_case_integer_parse_into_buffer@I$07@?$output_processor@DV?$string_output_adapter@D@__crt_stdio_output@@V?$format_validation_base@DV?$string_output_adapter@D@__crt_stdio_output@@@2@@__crt_stdio_output@@AAEXI_N@Z 10088448 f i libucrt:output.obj
 0001:00087448       ??$type_case_integer_parse_into_buffer@I$07@?$output_processor@DV?$string_output_adapter@D@__crt_stdio_output@@V?$standard_base@DV?$string_output_adapter@D@__crt_stdio_output@@@2@@__crt_stdio_output@@AAEXI_N@Z 10088448 f i libucrt:output.obj
 0001:000874aa       ??$type_case_integer_parse_into_buffer@I$07@?$output_processor@_WV?$string_output_adapter@_W@__crt_stdio_output@@V?$format_validation_base@_WV?$string_output_adapter@_W@__crt_stdio_output@@@2@@__crt_stdio_output@@AAEXI_N@Z 100884aa f i libucrt:output.obj
 0001:0008751b       ??$type_case_integer_parse_into_buffer@I$09@?$output_processor@DV?$stream_output_adapter@D@__crt_stdio_output@@V?$standard_base@DV?$stream_output_adapter@D@__crt_stdio_output@@@2@@__crt_stdio_output@@AAEXI_N@Z 1008851b f i libucrt:output.obj
 0001:0008751b       ??$type_case_integer_parse_into_buffer@I$09@?$output_processor@DV?$string_output_adapter@D@__crt_stdio_output@@V?$format_validation_base@DV?$string_output_adapter@D@__crt_stdio_output@@@2@@__crt_stdio_output@@AAEXI_N@Z 1008851b f i libucrt:output.obj
 0001:0008751b       ??$type_case_integer_parse_into_buffer@I$09@?$output_processor@DV?$string_output_adapter@D@__crt_stdio_output@@V?$standard_base@DV?$string_output_adapter@D@__crt_stdio_output@@@2@@__crt_stdio_output@@AAEXI_N@Z 1008851b f i libucrt:output.obj
 0001:0008759a       ??$type_case_integer_parse_into_buffer@I$09@?$output_processor@_WV?$string_output_adapter@_W@__crt_stdio_output@@V?$format_validation_base@_WV?$string_output_adapter@_W@__crt_stdio_output@@@2@@__crt_stdio_output@@AAEXI_N@Z 1008859a f i libucrt:output.obj
 0001:0008762f       ??$type_case_integer_parse_into_buffer@I$0BA@@?$output_processor@DV?$stream_output_adapter@D@__crt_stdio_output@@V?$standard_base@DV?$stream_output_adapter@D@__crt_stdio_output@@@2@@__crt_stdio_output@@AAEXI_N@Z 1008862f f i libucrt:output.obj
 0001:0008762f       ??$type_case_integer_parse_into_buffer@I$0BA@@?$output_processor@DV?$string_output_adapter@D@__crt_stdio_output@@V?$format_validation_base@DV?$string_output_adapter@D@__crt_stdio_output@@@2@@__crt_stdio_output@@AAEXI_N@Z 1008862f f i libucrt:output.obj
 0001:0008762f       ??$type_case_integer_parse_into_buffer@I$0BA@@?$output_processor@DV?$string_output_adapter@D@__crt_stdio_output@@V?$standard_base@DV?$string_output_adapter@D@__crt_stdio_output@@@2@@__crt_stdio_output@@AAEXI_N@Z 1008862f f i libucrt:output.obj
 0001:000876ab       ??$type_case_integer_parse_into_buffer@I$0BA@@?$output_processor@_WV?$string_output_adapter@_W@__crt_stdio_output@@V?$format_validation_base@_WV?$string_output_adapter@_W@__crt_stdio_output@@@2@@__crt_stdio_output@@AAEXI_N@Z 100886ab f i libucrt:output.obj
 0001:00087736       ??$type_case_integer_parse_into_buffer@_K$07@?$output_processor@DV?$stream_output_adapter@D@__crt_stdio_output@@V?$standard_base@DV?$stream_output_adapter@D@__crt_stdio_output@@@2@@__crt_stdio_output@@AAEX_K_N@Z 10088736 f i libucrt:output.obj
 0001:00087736       ??$type_case_integer_parse_into_buffer@_K$07@?$output_processor@DV?$string_output_adapter@D@__crt_stdio_output@@V?$format_validation_base@DV?$string_output_adapter@D@__crt_stdio_output@@@2@@__crt_stdio_output@@AAEX_K_N@Z 10088736 f i libucrt:output.obj
 0001:00087736       ??$type_case_integer_parse_into_buffer@_K$07@?$output_processor@DV?$string_output_adapter@D@__crt_stdio_output@@V?$standard_base@DV?$string_output_adapter@D@__crt_stdio_output@@@2@@__crt_stdio_output@@AAEX_K_N@Z 10088736 f i libucrt:output.obj
 0001:000877aa       ??$type_case_integer_parse_into_buffer@_K$07@?$output_processor@_WV?$string_output_adapter@_W@__crt_stdio_output@@V?$format_validation_base@_WV?$string_output_adapter@_W@__crt_stdio_output@@@2@@__crt_stdio_output@@AAEX_K_N@Z 100887aa f i libucrt:output.obj
 0001:0008782a       ??$type_case_integer_parse_into_buffer@_K$09@?$output_processor@DV?$stream_output_adapter@D@__crt_stdio_output@@V?$standard_base@DV?$stream_output_adapter@D@__crt_stdio_output@@@2@@__crt_stdio_output@@AAEX_K_N@Z 1008882a f i libucrt:output.obj
 0001:0008782a       ??$type_case_integer_parse_into_buffer@_K$09@?$output_processor@DV?$string_output_adapter@D@__crt_stdio_output@@V?$format_validation_base@DV?$string_output_adapter@D@__crt_stdio_output@@@2@@__crt_stdio_output@@AAEX_K_N@Z 1008882a f i libucrt:output.obj
 0001:0008782a       ??$type_case_integer_parse_into_buffer@_K$09@?$output_processor@DV?$string_output_adapter@D@__crt_stdio_output@@V?$standard_base@DV?$string_output_adapter@D@__crt_stdio_output@@@2@@__crt_stdio_output@@AAEX_K_N@Z 1008882a f i libucrt:output.obj
 0001:000878bc       ??$type_case_integer_parse_into_buffer@_K$09@?$output_processor@_WV?$string_output_adapter@_W@__crt_stdio_output@@V?$format_validation_base@_WV?$string_output_adapter@_W@__crt_stdio_output@@@2@@__crt_stdio_output@@AAEX_K_N@Z 100888bc f i libucrt:output.obj
 0001:00087961       ??$type_case_integer_parse_into_buffer@_K$0BA@@?$output_processor@DV?$stream_output_adapter@D@__crt_stdio_output@@V?$standard_base@DV?$stream_output_adapter@D@__crt_stdio_output@@@2@@__crt_stdio_output@@AAEX_K_N@Z 10088961 f i libucrt:output.obj
 0001:00087961       ??$type_case_integer_parse_into_buffer@_K$0BA@@?$output_processor@DV?$string_output_adapter@D@__crt_stdio_output@@V?$format_validation_base@DV?$string_output_adapter@D@__crt_stdio_output@@@2@@__crt_stdio_output@@AAEX_K_N@Z 10088961 f i libucrt:output.obj
 0001:00087961       ??$type_case_integer_parse_into_buffer@_K$0BA@@?$output_processor@DV?$string_output_adapter@D@__crt_stdio_output@@V?$standard_base@DV?$string_output_adapter@D@__crt_stdio_output@@@2@@__crt_stdio_output@@AAEX_K_N@Z 10088961 f i libucrt:output.obj
 0001:000879e7       ??$type_case_integer_parse_into_buffer@_K$0BA@@?$output_processor@_WV?$string_output_adapter@_W@__crt_stdio_output@@V?$format_validation_base@_WV?$string_output_adapter@_W@__crt_stdio_output@@@2@@__crt_stdio_output@@AAEX_K_N@Z 100889e7 f i libucrt:output.obj
 0001:00087a79       ??0?$output_adapter_data@DV?$stream_output_adapter@D@__crt_stdio_output@@@__crt_stdio_output@@IAE@ABV?$stream_output_adapter@D@1@_KQBDAAV__crt_cached_ptd_host@@QAD@Z 10088a79 f i libucrt:output.obj
 0001:00087a79       ??0?$output_adapter_data@DV?$string_output_adapter@D@__crt_stdio_output@@@__crt_stdio_output@@IAE@ABV?$string_output_adapter@D@1@_KQBDAAV__crt_cached_ptd_host@@QAD@Z 10088a79 f i libucrt:output.obj
 0001:00087ae0       ??0?$output_adapter_data@_WV?$string_output_adapter@_W@__crt_stdio_output@@@__crt_stdio_output@@IAE@ABV?$string_output_adapter@_W@1@_KQB_WAAV__crt_cached_ptd_host@@QAD@Z 10088ae0 f i libucrt:output.obj
 0001:00087b4c       ??1formatting_buffer@__crt_stdio_output@@QAE@XZ 10088b4c f i libucrt:output.obj
 0001:00087b66       ??4?$__crt_unique_heap_ptr@DU__crt_internal_free_policy@@@@QAEAAV0@$$QAV0@@Z 10088b66 f i libucrt:output.obj
 0001:00087b66       ??4?$__crt_unique_heap_ptr@EU__crt_internal_free_policy@@@@QAEAAV0@$$QAV0@@Z 10088b66 f i libucrt:input.obj
 0001:00087c26       ?crop_zeroes@__crt_stdio_output@@YAXPADQAU__crt_locale_pointers@@@Z 10088c26 f i libucrt:output.obj
 0001:00087c90       ?find_next_state@?$output_processor@DV?$stream_output_adapter@D@__crt_stdio_output@@V?$standard_base@DV?$stream_output_adapter@D@__crt_stdio_output@@@2@@__crt_stdio_output@@ABE?AW4state@2@DW432@@Z 10088c90 f i libucrt:output.obj
 0001:00087c90       ?find_next_state@?$output_processor@DV?$string_output_adapter@D@__crt_stdio_output@@V?$standard_base@DV?$string_output_adapter@D@__crt_stdio_output@@@2@@__crt_stdio_output@@ABE?AW4state@2@DW432@@Z 10088c90 f i libucrt:output.obj
 0001:00087ccb       ?find_next_state@?$output_processor@DV?$string_output_adapter@D@__crt_stdio_output@@V?$format_validation_base@DV?$string_output_adapter@D@__crt_stdio_output@@@2@@__crt_stdio_output@@ABE?AW4state@2@DW432@@Z 10088ccb f i libucrt:output.obj
 0001:00087d08       ?find_next_state@?$output_processor@_WV?$string_output_adapter@_W@__crt_stdio_output@@V?$format_validation_base@_WV?$string_output_adapter@_W@__crt_stdio_output@@@2@@__crt_stdio_output@@ABE?AW4state@2@_WW432@@Z 10088d08 f i libucrt:output.obj
 0001:00087d44       ?force_decimal_point@__crt_stdio_output@@YAXPADQAU__crt_locale_pointers@@@Z 10088d44 f i libucrt:output.obj
 0001:00087da6       ?parse_int_from_format_string@?$output_processor@DV?$stream_output_adapter@D@__crt_stdio_output@@V?$standard_base@DV?$stream_output_adapter@D@__crt_stdio_output@@@2@@__crt_stdio_output@@AAE_NQAH@Z 10088da6 f i libucrt:output.obj
 0001:00087da6       ?parse_int_from_format_string@?$output_processor@DV?$string_output_adapter@D@__crt_stdio_output@@V?$format_validation_base@DV?$string_output_adapter@D@__crt_stdio_output@@@2@@__crt_stdio_output@@AAE_NQAH@Z 10088da6 f i libucrt:output.obj
 0001:00087da6       ?parse_int_from_format_string@?$output_processor@DV?$string_output_adapter@D@__crt_stdio_output@@V?$standard_base@DV?$string_output_adapter@D@__crt_stdio_output@@@2@@__crt_stdio_output@@AAE_NQAH@Z 10088da6 f i libucrt:output.obj
 0001:00087e1e       ?parse_int_from_format_string@?$output_processor@_WV?$string_output_adapter@_W@__crt_stdio_output@@V?$format_validation_base@_WV?$string_output_adapter@_W@__crt_stdio_output@@@2@@__crt_stdio_output@@AAE_NQAH@Z 10088e1e f i libucrt:output.obj
 0001:00087e98       ?process@?$output_processor@DV?$stream_output_adapter@D@__crt_stdio_output@@V?$standard_base@DV?$stream_output_adapter@D@__crt_stdio_output@@@2@@__crt_stdio_output@@QAEHXZ 10088e98 f i libucrt:output.obj
 0001:00088140       ?process@?$output_processor@DV?$string_output_adapter@D@__crt_stdio_output@@V?$format_validation_base@DV?$string_output_adapter@D@__crt_stdio_output@@@2@@__crt_stdio_output@@QAEHXZ 10089140 f i libucrt:output.obj
 0001:00088428       ?process@?$output_processor@DV?$string_output_adapter@D@__crt_stdio_output@@V?$standard_base@DV?$string_output_adapter@D@__crt_stdio_output@@@2@@__crt_stdio_output@@QAEHXZ 10089428 f i libucrt:output.obj
 0001:000886fc       ?process@?$output_processor@_WV?$string_output_adapter@_W@__crt_stdio_output@@V?$format_validation_base@_WV?$string_output_adapter@_W@__crt_stdio_output@@@2@@__crt_stdio_output@@QAEHXZ 100896fc f i libucrt:output.obj
 0001:00088954       ?state_case_size@?$output_processor@DV?$stream_output_adapter@D@__crt_stdio_output@@V?$standard_base@DV?$stream_output_adapter@D@__crt_stdio_output@@@2@@__crt_stdio_output@@AAE_NXZ 10089954 f i libucrt:output.obj
 0001:00088aad       ?state_case_size@?$output_processor@DV?$string_output_adapter@D@__crt_stdio_output@@V?$format_validation_base@DV?$string_output_adapter@D@__crt_stdio_output@@@2@@__crt_stdio_output@@AAE_NXZ 10089aad f i libucrt:output.obj
 0001:00088aad       ?state_case_size@?$output_processor@DV?$string_output_adapter@D@__crt_stdio_output@@V?$standard_base@DV?$string_output_adapter@D@__crt_stdio_output@@@2@@__crt_stdio_output@@AAE_NXZ 10089aad f i libucrt:output.obj
 0001:00088c06       ?state_case_size@?$output_processor@_WV?$string_output_adapter@_W@__crt_stdio_output@@V?$format_validation_base@_WV?$string_output_adapter@_W@__crt_stdio_output@@@2@@__crt_stdio_output@@AAE_NXZ 10089c06 f i libucrt:output.obj
 0001:00088d90       ?state_case_type@?$output_processor@DV?$stream_output_adapter@D@__crt_stdio_output@@V?$standard_base@DV?$stream_output_adapter@D@__crt_stdio_output@@@2@@__crt_stdio_output@@AAE_NXZ 10089d90 f i libucrt:output.obj
 0001:00089187       ?state_case_type@?$output_processor@DV?$string_output_adapter@D@__crt_stdio_output@@V?$format_validation_base@DV?$string_output_adapter@D@__crt_stdio_output@@@2@@__crt_stdio_output@@AAE_NXZ 1008a187 f i libucrt:output.obj
 0001:00089187       ?state_case_type@?$output_processor@DV?$string_output_adapter@D@__crt_stdio_output@@V?$standard_base@DV?$string_output_adapter@D@__crt_stdio_output@@@2@@__crt_stdio_output@@AAE_NXZ 1008a187 f i libucrt:output.obj
 0001:000895c6       ?state_case_type@?$output_processor@_WV?$string_output_adapter@_W@__crt_stdio_output@@V?$format_validation_base@_WV?$string_output_adapter@_W@__crt_stdio_output@@@2@@__crt_stdio_output@@AAE_NXZ 1008a5c6 f i libucrt:output.obj
 0001:00089adc       ?to_integer_size@__crt_stdio_output@@YAIW4length_modifier@1@@Z 1008aadc f i libucrt:output.obj
 0001:00089b30       ?type_case_Z@?$output_processor@DV?$stream_output_adapter@D@__crt_stdio_output@@V?$standard_base@DV?$stream_output_adapter@D@__crt_stdio_output@@@2@@__crt_stdio_output@@AAE_NXZ 1008ab30 f i libucrt:output.obj
 0001:00089b30       ?type_case_Z@?$output_processor@DV?$string_output_adapter@D@__crt_stdio_output@@V?$format_validation_base@DV?$string_output_adapter@D@__crt_stdio_output@@@2@@__crt_stdio_output@@AAE_NXZ 1008ab30 f i libucrt:output.obj
 0001:00089b30       ?type_case_Z@?$output_processor@DV?$string_output_adapter@D@__crt_stdio_output@@V?$standard_base@DV?$string_output_adapter@D@__crt_stdio_output@@@2@@__crt_stdio_output@@AAE_NXZ 1008ab30 f i libucrt:output.obj
 0001:00089ba3       ?type_case_Z@?$output_processor@_WV?$string_output_adapter@_W@__crt_stdio_output@@V?$format_validation_base@_WV?$string_output_adapter@_W@__crt_stdio_output@@@2@@__crt_stdio_output@@AAE_NXZ 1008aba3 f i libucrt:output.obj
 0001:00089c17       ?type_case_a@?$output_processor@DV?$stream_output_adapter@D@__crt_stdio_output@@V?$standard_base@DV?$stream_output_adapter@D@__crt_stdio_output@@@2@@__crt_stdio_output@@AAE_NXZ 1008ac17 f i libucrt:output.obj
 0001:00089c17       ?type_case_a@?$output_processor@DV?$string_output_adapter@D@__crt_stdio_output@@V?$format_validation_base@DV?$string_output_adapter@D@__crt_stdio_output@@@2@@__crt_stdio_output@@AAE_NXZ 1008ac17 f i libucrt:output.obj
 0001:00089c17       ?type_case_a@?$output_processor@DV?$string_output_adapter@D@__crt_stdio_output@@V?$standard_base@DV?$string_output_adapter@D@__crt_stdio_output@@@2@@__crt_stdio_output@@AAE_NXZ 1008ac17 f i libucrt:output.obj
 0001:00089dce       ?type_case_a@?$output_processor@_WV?$string_output_adapter@_W@__crt_stdio_output@@V?$format_validation_base@_WV?$string_output_adapter@_W@__crt_stdio_output@@@2@@__crt_stdio_output@@AAE_NXZ 1008adce f i libucrt:output.obj
 0001:00089f9b       ?type_case_c_tchar@?$output_processor@DV?$stream_output_adapter@D@__crt_stdio_output@@V?$standard_base@DV?$stream_output_adapter@D@__crt_stdio_output@@@2@@__crt_stdio_output@@AAE_ND@Z 1008af9b f i libucrt:output.obj
 0001:00089f9b       ?type_case_c_tchar@?$output_processor@DV?$string_output_adapter@D@__crt_stdio_output@@V?$format_validation_base@DV?$string_output_adapter@D@__crt_stdio_output@@@2@@__crt_stdio_output@@AAE_ND@Z 1008af9b f i libucrt:output.obj
 0001:00089f9b       ?type_case_c_tchar@?$output_processor@DV?$string_output_adapter@D@__crt_stdio_output@@V?$standard_base@DV?$string_output_adapter@D@__crt_stdio_output@@@2@@__crt_stdio_output@@AAE_ND@Z 1008af9b f i libucrt:output.obj
 0001:0008a027       ?type_case_c_tchar@?$output_processor@_WV?$string_output_adapter@_W@__crt_stdio_output@@V?$format_validation_base@_WV?$string_output_adapter@_W@__crt_stdio_output@@@2@@__crt_stdio_output@@AAE_N_W@Z 1008b027 f i libucrt:output.obj
 0001:0008a0cc       ?type_case_n@?$output_processor@DV?$stream_output_adapter@D@__crt_stdio_output@@V?$standard_base@DV?$stream_output_adapter@D@__crt_stdio_output@@@2@@__crt_stdio_output@@AAE_NXZ 1008b0cc f i libucrt:output.obj
 0001:0008a0cc       ?type_case_n@?$output_processor@DV?$string_output_adapter@D@__crt_stdio_output@@V?$format_validation_base@DV?$string_output_adapter@D@__crt_stdio_output@@@2@@__crt_stdio_output@@AAE_NXZ 1008b0cc f i libucrt:output.obj
 0001:0008a0cc       ?type_case_n@?$output_processor@DV?$string_output_adapter@D@__crt_stdio_output@@V?$standard_base@DV?$string_output_adapter@D@__crt_stdio_output@@@2@@__crt_stdio_output@@AAE_NXZ 1008b0cc f i libucrt:output.obj
 0001:0008a0cc       ?type_case_n@?$output_processor@_WV?$string_output_adapter@_W@__crt_stdio_output@@V?$format_validation_base@_WV?$string_output_adapter@_W@__crt_stdio_output@@@2@@__crt_stdio_output@@AAE_NXZ 1008b0cc f i libucrt:output.obj
 0001:0008a151       ?type_case_o@?$output_processor@DV?$stream_output_adapter@D@__crt_stdio_output@@V?$standard_base@DV?$stream_output_adapter@D@__crt_stdio_output@@@2@@__crt_stdio_output@@AAE_NXZ 1008b151 f i libucrt:output.obj
 0001:0008a151       ?type_case_o@?$output_processor@DV?$string_output_adapter@D@__crt_stdio_output@@V?$format_validation_base@DV?$string_output_adapter@D@__crt_stdio_output@@@2@@__crt_stdio_output@@AAE_NXZ 1008b151 f i libucrt:output.obj
 0001:0008a151       ?type_case_o@?$output_processor@DV?$string_output_adapter@D@__crt_stdio_output@@V?$standard_base@DV?$string_output_adapter@D@__crt_stdio_output@@@2@@__crt_stdio_output@@AAE_NXZ 1008b151 f i libucrt:output.obj
 0001:0008a16e       ?type_case_o@?$output_processor@_WV?$string_output_adapter@_W@__crt_stdio_output@@V?$format_validation_base@_WV?$string_output_adapter@_W@__crt_stdio_output@@@2@@__crt_stdio_output@@AAE_NXZ 1008b16e f i libucrt:output.obj
 0001:0008a18b       ?type_case_p@?$output_processor@DV?$stream_output_adapter@D@__crt_stdio_output@@V?$standard_base@DV?$stream_output_adapter@D@__crt_stdio_output@@@2@@__crt_stdio_output@@AAE_NXZ 1008b18b f i libucrt:output.obj
 0001:0008a18b       ?type_case_p@?$output_processor@DV?$string_output_adapter@D@__crt_stdio_output@@V?$format_validation_base@DV?$string_output_adapter@D@__crt_stdio_output@@@2@@__crt_stdio_output@@AAE_NXZ 1008b18b f i libucrt:output.obj
 0001:0008a18b       ?type_case_p@?$output_processor@DV?$string_output_adapter@D@__crt_stdio_output@@V?$standard_base@DV?$string_output_adapter@D@__crt_stdio_output@@@2@@__crt_stdio_output@@AAE_NXZ 1008b18b f i libucrt:output.obj
 0001:0008a1a1       ?type_case_p@?$output_processor@_WV?$string_output_adapter@_W@__crt_stdio_output@@V?$format_validation_base@_WV?$string_output_adapter@_W@__crt_stdio_output@@@2@@__crt_stdio_output@@AAE_NXZ 1008b1a1 f i libucrt:output.obj
 0001:0008a1b7       ?type_case_s@?$output_processor@DV?$stream_output_adapter@D@__crt_stdio_output@@V?$standard_base@DV?$stream_output_adapter@D@__crt_stdio_output@@@2@@__crt_stdio_output@@AAE_NXZ 1008b1b7 f i libucrt:output.obj
 0001:0008a1b7       ?type_case_s@?$output_processor@DV?$string_output_adapter@D@__crt_stdio_output@@V?$format_validation_base@DV?$string_output_adapter@D@__crt_stdio_output@@@2@@__crt_stdio_output@@AAE_NXZ 1008b1b7 f i libucrt:output.obj
 0001:0008a1b7       ?type_case_s@?$output_processor@DV?$string_output_adapter@D@__crt_stdio_output@@V?$standard_base@DV?$string_output_adapter@D@__crt_stdio_output@@@2@@__crt_stdio_output@@AAE_NXZ 1008b1b7 f i libucrt:output.obj
 0001:0008a22a       ?type_case_s@?$output_processor@_WV?$string_output_adapter@_W@__crt_stdio_output@@V?$format_validation_base@_WV?$string_output_adapter@_W@__crt_stdio_output@@@2@@__crt_stdio_output@@AAE_NXZ 1008b22a f i libucrt:output.obj
 0001:0008a29f       ?type_case_s_compute_narrow_string_length@?$output_processor@_WV?$string_output_adapter@_W@__crt_stdio_output@@V?$format_validation_base@_WV?$string_output_adapter@_W@__crt_stdio_output@@@2@@__crt_stdio_output@@AAEHH_W@Z 1008b29f f i libucrt:output.obj
 0001:0008a365       ?unget@?$c_string_character_source@D@__crt_strtox@@QAEXD@Z 1008b365 f i libucrt:output.obj
 0001:0008a38e       ?unget@?$c_string_character_source@_W@__crt_strtox@@QAEX_W@Z 1008b38e f i libucrt:output.obj
 0001:0008a3c0       ?update_locale_slow@__crt_cached_ptd_host@@AAEXXZ 1008b3c0 f i libucrt:output.obj
 0001:0008a41b       ?validate@?$c_string_character_source@D@__crt_strtox@@QBE_NXZ 1008b41b f i libucrt:output.obj
 0001:0008a41b       ?validate@?$c_string_character_source@_W@__crt_strtox@@QBE_NXZ 1008b41b f i libucrt:output.obj
 0001:0008a436       ?validate@?$stream_output_adapter@D@__crt_stdio_output@@QBE_NAAV__crt_cached_ptd_host@@@Z 1008b436 f i libucrt:output.obj
 0001:0008a46e       ?validate@?$string_output_adapter@D@__crt_stdio_output@@QBE_NAAV__crt_cached_ptd_host@@@Z 1008b46e f i libucrt:output.obj
 0001:0008a46e       ?validate@?$string_output_adapter@_W@__crt_stdio_output@@QBE_NAAV__crt_cached_ptd_host@@@Z 1008b46e f i libucrt:output.obj
 0001:0008a49f       ?validate_stream_is_ansi_if_required@?$__acrt_stdio_char_traits@D@@SA_NQAU_iobuf@@@Z 1008b49f f i libucrt:output.obj
 0001:0008a526       ?write_character@?$output_adapter_common@DV?$stream_output_adapter@D@__crt_stdio_output@@@__crt_stdio_output@@QBEXDQAHAAV__crt_cached_ptd_host@@@Z 1008b526 f i libucrt:output.obj
 0001:0008a548       ?write_character_without_count_update@?$stream_output_adapter@D@__crt_stdio_output@@QBE_NDAAV__crt_cached_ptd_host@@@Z 1008b548 f i libucrt:output.obj
 0001:0008a582       ?write_string@?$stream_output_adapter@D@__crt_stdio_output@@QBEXQBDHQAHAAV__crt_cached_ptd_host@@@Z 1008b582 f i libucrt:output.obj
 0001:0008a5ae       ?write_string@?$string_output_adapter@D@__crt_stdio_output@@QBEXQBDHQAHAAV__crt_cached_ptd_host@@@Z 1008b5ae f i libucrt:output.obj
 0001:0008a61d       ?write_string@?$string_output_adapter@_W@__crt_stdio_output@@QBEXQB_WHQAHAAV__crt_cached_ptd_host@@@Z 1008b61d f i libucrt:output.obj
 0001:0008a696       ?write_string_impl@?$output_adapter_common@DV?$stream_output_adapter@D@__crt_stdio_output@@@__crt_stdio_output@@IBEXQBDHQAHAAV__crt_cached_ptd_host@@@Z 1008b696 f i libucrt:output.obj
 0001:0008a715       ___acrt_locale_get_ctype_array_value 1008b715 f i libucrt:output.obj
 0001:0008a737       ___stdio_common_vfprintf   1008b737 f   libucrt:output.obj
 0001:0008a7db       ___stdio_common_vsprintf   1008b7db f   libucrt:output.obj
 0001:0008a81c       ___stdio_common_vsprintf_s 1008b81c f   libucrt:output.obj
 0001:0008a85d       ___stdio_common_vswprintf_s 1008b85d f   libucrt:output.obj
 0001:0008a89e       _rand                      1008b89e f   libucrt:rand.obj
 0001:0008a8bf       ??$assemble_floating_point_snan@N@__crt_strtox@@YAX_NAAN@Z 1008b8bf f i libucrt:input.obj
 0001:0008a8e0       ??$assemble_floating_point_value_t@M@__crt_strtox@@YA?AW4SLD_STATUS@@_NH_KAAM@Z 1008b8e0 f i libucrt:input.obj
 0001:0008a91f       ??$assemble_floating_point_value_t@N@__crt_strtox@@YA?AW4SLD_STATUS@@_NH_KAAN@Z 1008b91f f i libucrt:input.obj
 0001:0008aaae       ??$convert_decimal_string_to_floating_type@M@__crt_strtox@@YA?AW4SLD_STATUS@@ABUfloating_point_string@0@AAM@Z 1008baae f i libucrt:input.obj
 0001:0008aacf       ??$convert_decimal_string_to_floating_type@N@__crt_strtox@@YA?AW4SLD_STATUS@@ABUfloating_point_string@0@AAN@Z 1008bacf f i libucrt:input.obj
 0001:0008aaf0       ??$convert_hexadecimal_string_to_floating_type@M@__crt_strtox@@YA?AW4SLD_STATUS@@ABUfloating_point_string@0@AAM@Z 1008baf0 f i libucrt:input.obj
 0001:0008ab11       ??$convert_hexadecimal_string_to_floating_type@N@__crt_strtox@@YA?AW4SLD_STATUS@@ABUfloating_point_string@0@AAN@Z 1008bb11 f i libucrt:input.obj
 0001:0008ab32       ??$is_overflow_condition@_K@__crt_strtox@@YA_NI_K@Z 1008bb32 f i libucrt:input.obj
 0001:0008ab73       ??$make_input_adapter_character_source@V?$string_input_adapter@D@__crt_stdio_input@@@__crt_strtox@@YA?AV?$input_adapter_character_source@V?$string_input_adapter@D@__crt_stdio_input@@@0@QAV?$string_input_adapter@D@__crt_stdio_input@@_KQA_N@Z 1008bb73 f i libucrt:input.obj
 0001:0008ab73       ??$make_input_adapter_character_source@V?$string_input_adapter@_W@__crt_stdio_input@@@__crt_strtox@@YA?AV?$input_adapter_character_source@V?$string_input_adapter@_W@__crt_stdio_input@@@0@QAV?$string_input_adapter@_W@__crt_stdio_input@@_KQA_N@Z 1008bb73 f i libucrt:input.obj
 0001:0008ab91       ??$parse_floating_point@V?$input_adapter_character_source@V?$string_input_adapter@D@__crt_stdio_input@@@__crt_strtox@@M@__crt_strtox@@YA?AW4SLD_STATUS@@QAU__crt_locale_pointers@@V?$input_adapter_character_source@V?$string_input_adapter@D@__crt_stdio_input@@@0@QAM@Z 1008bb91 f i libucrt:input.obj
 0001:0008ac1b       ??$parse_floating_point@V?$input_adapter_character_source@V?$string_input_adapter@D@__crt_stdio_input@@@__crt_strtox@@N@__crt_strtox@@YA?AW4SLD_STATUS@@QAU__crt_locale_pointers@@V?$input_adapter_character_source@V?$string_input_adapter@D@__crt_stdio_input@@@0@QAN@Z 1008bc1b f i libucrt:input.obj
 0001:0008aca5       ??$parse_floating_point@V?$input_adapter_character_source@V?$string_input_adapter@_W@__crt_stdio_input@@@__crt_strtox@@M@__crt_strtox@@YA?AW4SLD_STATUS@@QAU__crt_locale_pointers@@V?$input_adapter_character_source@V?$string_input_adapter@_W@__crt_stdio_input@@@0@QAM@Z 1008bca5 f i libucrt:input.obj
 0001:0008ad2f       ??$parse_floating_point@V?$input_adapter_character_source@V?$string_input_adapter@_W@__crt_stdio_input@@@__crt_strtox@@N@__crt_strtox@@YA?AW4SLD_STATUS@@QAU__crt_locale_pointers@@V?$input_adapter_character_source@V?$string_input_adapter@_W@__crt_stdio_input@@@0@QAN@Z 1008bd2f f i libucrt:input.obj
 0001:0008adb9       ??$parse_floating_point_from_source@V?$input_adapter_character_source@V?$string_input_adapter@D@__crt_stdio_input@@@__crt_strtox@@@__crt_strtox@@YA?AW4floating_point_parse_result@0@QAU__crt_locale_pointers@@AAV?$input_adapter_character_source@V?$string_input_adapter@D@__crt_stdio_input@@@0@AAUfloating_point_string@0@@Z 1008bdb9 f i libucrt:input.obj
 0001:0008b226       ??$parse_floating_point_from_source@V?$input_adapter_character_source@V?$string_input_adapter@_W@__crt_stdio_input@@@__crt_strtox@@@__crt_strtox@@YA?AW4floating_point_parse_result@0@QAU__crt_locale_pointers@@AAV?$input_adapter_character_source@V?$string_input_adapter@_W@__crt_stdio_input@@@0@AAUfloating_point_string@0@@Z 1008c226 f i libucrt:input.obj
 0001:0008bd2e       ??$parse_floating_point_possible_infinity@DV?$input_adapter_character_source@V?$string_input_adapter@D@__crt_stdio_input@@@__crt_strtox@@_K@__crt_strtox@@YA?AW4floating_point_parse_result@0@AADAAV?$input_adapter_character_source@V?$string_input_adapter@D@__crt_stdio_input@@@0@_K@Z 1008cd2e f i libucrt:input.obj
 0001:0008bde9       ??$parse_floating_point_possible_infinity@_WV?$input_adapter_character_source@V?$string_input_adapter@_W@__crt_stdio_input@@@__crt_strtox@@_K@__crt_strtox@@YA?AW4floating_point_parse_result@0@AA_WAAV?$input_adapter_character_source@V?$string_input_adapter@_W@__crt_stdio_input@@@0@_K@Z 1008cde9 f i libucrt:input.obj
 0001:0008beb8       ??$parse_floating_point_possible_nan@DV?$input_adapter_character_source@V?$string_input_adapter@D@__crt_stdio_input@@@__crt_strtox@@_K@__crt_strtox@@YA?AW4floating_point_parse_result@0@AADAAV?$input_adapter_character_source@V?$string_input_adapter@D@__crt_stdio_input@@@0@_K@Z 1008ceb8 f i libucrt:input.obj
 0001:0008bfc0       ??$parse_floating_point_possible_nan@_WV?$input_adapter_character_source@V?$string_input_adapter@_W@__crt_stdio_input@@@__crt_strtox@@_K@__crt_strtox@@YA?AW4floating_point_parse_result@0@AA_WAAV?$input_adapter_character_source@V?$string_input_adapter@_W@__crt_stdio_input@@@0@_K@Z 1008cfc0 f i libucrt:input.obj
 0001:0008c0e1       ??$parse_floating_point_possible_nan_is_ind@DV?$input_adapter_character_source@V?$string_input_adapter@D@__crt_stdio_input@@@__crt_strtox@@@__crt_strtox@@YA_NAADAAV?$input_adapter_character_source@V?$string_input_adapter@D@__crt_stdio_input@@@0@@Z 1008d0e1 f i libucrt:input.obj
 0001:0008c11b       ??$parse_floating_point_possible_nan_is_ind@_WV?$input_adapter_character_source@V?$string_input_adapter@_W@__crt_stdio_input@@@__crt_strtox@@@__crt_strtox@@YA_NAA_WAAV?$input_adapter_character_source@V?$string_input_adapter@_W@__crt_stdio_input@@@0@@Z 1008d11b f i libucrt:input.obj
 0001:0008c15b       ??$parse_floating_point_possible_nan_is_snan@DV?$input_adapter_character_source@V?$string_input_adapter@D@__crt_stdio_input@@@__crt_strtox@@@__crt_strtox@@YA_NAADAAV?$input_adapter_character_source@V?$string_input_adapter@D@__crt_stdio_input@@@0@@Z 1008d15b f i libucrt:input.obj
 0001:0008c195       ??$parse_floating_point_possible_nan_is_snan@_WV?$input_adapter_character_source@V?$string_input_adapter@_W@__crt_stdio_input@@@__crt_strtox@@@__crt_strtox@@YA_NAA_WAAV?$input_adapter_character_source@V?$string_input_adapter@_W@__crt_stdio_input@@@0@@Z 1008d195 f i libucrt:input.obj
 0001:0008c1d5       ??$parse_floating_point_write_result@M@__crt_strtox@@YA?AW4SLD_STATUS@@W4floating_point_parse_result@0@ABUfloating_point_string@0@QAM@Z 1008d1d5 f i libucrt:input.obj
 0001:0008c31d       ??$parse_floating_point_write_result@N@__crt_strtox@@YA?AW4SLD_STATUS@@W4floating_point_parse_result@0@ABUfloating_point_string@0@QAN@Z 1008d31d f i libucrt:input.obj
 0001:0008c441       ??$parse_integer@_KV?$input_adapter_character_source@V?$string_input_adapter@D@__crt_stdio_input@@@__crt_strtox@@$00@__crt_strtox@@YA_KAAV__crt_cached_ptd_host@@V?$input_adapter_character_source@V?$string_input_adapter@D@__crt_stdio_input@@@0@H_N@Z 1008d441 f i libucrt:input.obj
 0001:0008c735       ??$parse_integer@_KV?$input_adapter_character_source@V?$string_input_adapter@D@__crt_stdio_input@@@__crt_strtox@@@__crt_strtox@@YA_KQAU__crt_locale_pointers@@V?$input_adapter_character_source@V?$string_input_adapter@D@__crt_stdio_input@@@0@H_N@Z 1008d735 f i libucrt:input.obj
 0001:0008c791       ??$parse_integer@_KV?$input_adapter_character_source@V?$string_input_adapter@_W@__crt_stdio_input@@@__crt_strtox@@$00@__crt_strtox@@YA_KAAV__crt_cached_ptd_host@@V?$input_adapter_character_source@V?$string_input_adapter@_W@__crt_stdio_input@@@0@H_N@Z 1008d791 f i libucrt:input.obj
 0001:0008cdc0       ??$parse_integer@_KV?$input_adapter_character_source@V?$string_input_adapter@_W@__crt_stdio_input@@@__crt_strtox@@@__crt_strtox@@YA_KQAU__crt_locale_pointers@@V?$input_adapter_character_source@V?$string_input_adapter@_W@__crt_stdio_input@@@0@H_N@Z 1008ddc0 f i libucrt:input.obj
 0001:0008ce1c       ??$process_floating_point_specifier_t@M@?$input_processor@DV?$string_input_adapter@D@__crt_stdio_input@@@__crt_stdio_input@@AAE_NXZ 1008de1c f i libucrt:input.obj
 0001:0008ce84       ??$process_floating_point_specifier_t@M@?$input_processor@_WV?$string_input_adapter@_W@__crt_stdio_input@@@__crt_stdio_input@@AAE_NXZ 1008de84 f i libucrt:input.obj
 0001:0008ceec       ??$process_floating_point_specifier_t@N@?$input_processor@DV?$string_input_adapter@D@__crt_stdio_input@@@__crt_stdio_input@@AAE_NXZ 1008deec f i libucrt:input.obj
 0001:0008cf58       ??$process_floating_point_specifier_t@N@?$input_processor@_WV?$string_input_adapter@_W@__crt_stdio_input@@@__crt_stdio_input@@AAE_NXZ 1008df58 f i libucrt:input.obj
 0001:0008cfc4       ??$process_string_specifier_tchar@D@?$input_processor@DV?$string_input_adapter@D@__crt_stdio_input@@@__crt_stdio_input@@AAE_NW4conversion_mode@1@D@Z 1008dfc4 f i libucrt:input.obj
 0001:0008d130       ??$process_string_specifier_tchar@D@?$input_processor@_WV?$string_input_adapter@_W@__crt_stdio_input@@@__crt_stdio_input@@AAE_NW4conversion_mode@1@D@Z 1008e130 f i libucrt:input.obj
 0001:0008d2a5       ??$process_string_specifier_tchar@_W@?$input_processor@DV?$string_input_adapter@D@__crt_stdio_input@@@__crt_stdio_input@@AAE_NW4conversion_mode@1@_W@Z 1008e2a5 f i libucrt:input.obj
 0001:0008d41d       ??$process_string_specifier_tchar@_W@?$input_processor@_WV?$string_input_adapter@_W@__crt_stdio_input@@@__crt_stdio_input@@AAE_NW4conversion_mode@1@_W@Z 1008e41d f i libucrt:input.obj
 0001:0008d595       ??$skip_whitespace@Vstring_input_adapter@__crt_stdio_input@@D@__crt_stdio_input@@YAHAAV?$string_input_adapter@D@0@QAU__crt_locale_pointers@@@Z 1008e595 f i libucrt:input.obj
 0001:0008d5c4       ??$skip_whitespace@Vstring_input_adapter@__crt_stdio_input@@_W@__crt_stdio_input@@YAGAAV?$string_input_adapter@_W@0@QAU__crt_locale_pointers@@@Z 1008e5c4 f i libucrt:input.obj
 0001:0008d5f3       ??$write_floating_point@M@?$input_processor@DV?$string_input_adapter@D@__crt_stdio_input@@@__crt_stdio_input@@AAE_NABM@Z 1008e5f3 f i libucrt:input.obj
 0001:0008d628       ??$write_floating_point@M@?$input_processor@_WV?$string_input_adapter@_W@__crt_stdio_input@@@__crt_stdio_input@@AAE_NABM@Z 1008e628 f i libucrt:input.obj
 0001:0008d65d       ??$write_floating_point@N@?$input_processor@DV?$string_input_adapter@D@__crt_stdio_input@@@__crt_stdio_input@@AAE_NABN@Z 1008e65d f i libucrt:input.obj
 0001:0008d698       ??$write_floating_point@N@?$input_processor@_WV?$string_input_adapter@_W@__crt_stdio_input@@@__crt_stdio_input@@AAE_NABN@Z 1008e698 f i libucrt:input.obj
 0001:0008d6d3       ??0?$format_string_parser@D@__crt_stdio_input@@QAE@_KQBE@Z 1008e6d3 f i libucrt:input.obj
 0001:0008d71d       ??0?$format_string_parser@_W@__crt_stdio_input@@QAE@_KQB_W@Z 1008e71d f i libucrt:input.obj
 0001:0008d75b       ??0?$input_adapter_character_source@V?$string_input_adapter@D@__crt_stdio_input@@@__crt_strtox@@QAE@$$QAV01@@Z 1008e75b f i libucrt:input.obj
 0001:0008d75b       ??0?$input_adapter_character_source@V?$string_input_adapter@_W@__crt_stdio_input@@@__crt_strtox@@QAE@$$QAV01@@Z 1008e75b f i libucrt:input.obj
 0001:0008d798       ??0?$input_adapter_character_source@V?$string_input_adapter@D@__crt_stdio_input@@@__crt_strtox@@QAE@QAV?$string_input_adapter@D@__crt_stdio_input@@_KQA_N@Z 1008e798 f i libucrt:input.obj
 0001:0008d798       ??0?$input_adapter_character_source@V?$string_input_adapter@_W@__crt_stdio_input@@@__crt_strtox@@QAE@QAV?$string_input_adapter@_W@__crt_stdio_input@@_KQA_N@Z 1008e798 f i libucrt:input.obj
 0001:0008d7c9       ??0?$input_processor@DV?$string_input_adapter@D@__crt_stdio_input@@@__crt_stdio_input@@QAE@ABV?$string_input_adapter@D@1@_KQBDQAU__crt_locale_pointers@@QAD@Z 1008e7c9 f i libucrt:input.obj
 0001:0008d80d       ??0?$input_processor@_WV?$string_input_adapter@_W@__crt_stdio_input@@@__crt_stdio_input@@QAE@ABV?$string_input_adapter@_W@1@_KQB_WQAU__crt_locale_pointers@@QAD@Z 1008e80d f i libucrt:input.obj
 0001:0008d851       ??0_LocaleUpdate@@QAE@QAU__crt_locale_pointers@@@Z 1008e851 f i libucrt:input.obj
 0001:0008d8d3       ??R<lambda_448605b25275ab87d3c5d4aa7a38a0aa>@@QBE@XZ 1008e8d3 f i libucrt:input.obj
 0001:0008d8d3       ??R<lambda_e5165159ec566db3a71156c9b71536ca>@@QBE@XZ 1008e8d3 f i libucrt:input.obj
 0001:0008d8d3       ??R<lambda_fd76cae15b6f790020ebaa7b78a868c2>@@QBE@XZ 1008e8d3 f i libucrt:input.obj
 0001:0008d8ff       ??R<lambda_644f8ab42ed3fd1d660977a2364b3a7d>@@QBE@XZ 1008e8ff f i libucrt:input.obj
 0001:0008d8ff       ??R<lambda_f1fa4c266c18b246f3ed9c36247dab4f>@@QBE@XZ 1008e8ff f i libucrt:input.obj
 0001:0008d8ff       ??R<lambda_f765c90ab33e8386abf09c0f079d37e9>@@QBE@XZ 1008e8ff f i libucrt:input.obj
 0001:0008d929       ?advance@?$format_string_parser@D@__crt_stdio_input@@QAE_NXZ 1008e929 f i libucrt:input.obj
 0001:0008da41       ?advance@?$format_string_parser@_W@__crt_stdio_input@@QAE_NXZ 1008ea41 f i libucrt:input.obj
 0001:0008db42       ?as_double@floating_point_value@__crt_strtox@@QBEAANXZ 1008eb42 f i libucrt:input.obj
 0001:0008db67       ?as_float@floating_point_value@__crt_strtox@@QBEAAMXZ 1008eb67 f i libucrt:input.obj
 0001:0008db8c       ?assemble_floating_point_infinity@__crt_strtox@@YAX_NABVfloating_point_value@1@@Z 1008eb8c f i libucrt:input.obj
 0001:0008dbcc       ?assemble_floating_point_value@__crt_strtox@@YA?AW4SLD_STATUS@@_KH_N1ABVfloating_point_value@1@@Z 1008ebcc f i libucrt:input.obj
 0001:0008df65       ?assemble_floating_point_value_from_big_integer@__crt_strtox@@YA?AW4SLD_STATUS@@ABUbig_integer@1@I_N1ABVfloating_point_value@1@@Z 1008ef65 f i libucrt:input.obj
 0001:0008e102       ?assemble_floating_point_zero@__crt_strtox@@YAX_NABVfloating_point_value@1@@Z 1008f102 f i libucrt:input.obj
 0001:0008e137       ?convert_decimal_string_to_floating_type_common@__crt_strtox@@YA?AW4SLD_STATUS@@ABUfloating_point_string@1@ABVfloating_point_value@1@@Z 1008f137 f i libucrt:input.obj
 0001:0008fe36       ?convert_hexadecimal_string_to_floating_type_common@__crt_strtox@@YA?AW4SLD_STATUS@@ABUfloating_point_string@1@ABVfloating_point_value@1@@Z 10090e36 f i libucrt:input.obj
 0001:0008fee7       ?data@?$scanset_storage@$01@__crt_stdio_input@@QBEPAEXZ 10090ee7 f i libucrt:input.obj
 0001:0008ff1f       ?denormal_mantissa_mask@floating_point_value@__crt_strtox@@QBE_KXZ 10090f1f f i libucrt:input.obj
 0001:0008ff40       ?divide@__crt_strtox@@YA_KAAUbig_integer@1@ABU21@@Z 10090f40 f i libucrt:input.obj
 0001:00090417       ?get@?$input_adapter_character_source@V?$string_input_adapter@D@__crt_stdio_input@@@__crt_strtox@@QAEDXZ 10091417 f i libucrt:input.obj
 0001:00090458       ?get@?$input_adapter_character_source@V?$string_input_adapter@_W@__crt_stdio_input@@@__crt_strtox@@QAE_WXZ 10091458 f i libucrt:input.obj
 0001:0009049e       ?get@?$string_input_adapter@D@__crt_stdio_input@@QAEHXZ 1009149e f i libucrt:input.obj
 0001:000904b4       ?get@?$string_input_adapter@_W@__crt_stdio_input@@QAEGXZ 100914b4 f i libucrt:input.obj
 0001:000904ce       ?invert@?$scanset_buffer@_W@__crt_stdio_input@@QAEXXZ 100914ce f i libucrt:input.obj
 0001:000904e3       ?is_character_allowed_in_string@?$input_processor@DV?$string_input_adapter@D@__crt_stdio_input@@@__crt_stdio_input@@ABE_NW4conversion_mode@2@H@Z 100914e3 f i libucrt:input.obj
 0001:00090533       ?is_character_allowed_in_string@?$input_processor@_WV?$string_input_adapter@_W@__crt_stdio_input@@@__crt_stdio_input@@ABE_NW4conversion_mode@2@G@Z 10091533 f i libucrt:input.obj
 0001:0009057d       ?length@?$format_string_parser@D@__crt_stdio_input@@QBEIXZ 1009157d f i libucrt:input.obj
 0001:000905cb       ?length@?$format_string_parser@_W@__crt_stdio_input@@QBEIXZ 100915cb f i libucrt:input.obj
 0001:00090619       ?normal_mantissa_mask@floating_point_value@__crt_strtox@@QBE_KXZ 10091619 f i libucrt:input.obj
 0001:00090630       ?process@?$input_processor@DV?$string_input_adapter@D@__crt_stdio_input@@@__crt_stdio_input@@QAEHXZ 10091630 f i libucrt:input.obj
 0001:000906b5       ?process@?$input_processor@_WV?$string_input_adapter@_W@__crt_stdio_input@@@__crt_stdio_input@@QAEHXZ 100916b5 f i libucrt:input.obj
 0001:00090743       ?process_character_count_specifier@?$input_processor@DV?$string_input_adapter@D@__crt_stdio_input@@@__crt_stdio_input@@AAE_NXZ 10091743 f i libucrt:input.obj
 0001:0009075b       ?process_character_count_specifier@?$input_processor@_WV?$string_input_adapter@_W@__crt_stdio_input@@@__crt_stdio_input@@AAE_NXZ 1009175b f i libucrt:input.obj
 0001:00090775       ?process_conversion_specifier@?$input_processor@DV?$string_input_adapter@D@__crt_stdio_input@@@__crt_stdio_input@@AAE_NXZ 10091775 f i libucrt:input.obj
 0001:000907e9       ?process_conversion_specifier@?$input_processor@_WV?$string_input_adapter@_W@__crt_stdio_input@@@__crt_stdio_input@@AAE_NXZ 100917e9 f i libucrt:input.obj
 0001:0009085d       ?process_floating_point_specifier@?$input_processor@DV?$string_input_adapter@D@__crt_stdio_input@@@__crt_stdio_input@@AAE_NXZ 1009185d f i libucrt:input.obj
 0001:0009088d       ?process_floating_point_specifier@?$input_processor@_WV?$string_input_adapter@_W@__crt_stdio_input@@@__crt_stdio_input@@AAE_NXZ 1009188d f i libucrt:input.obj
 0001:000908bd       ?process_integer_specifier@?$input_processor@DV?$string_input_adapter@D@__crt_stdio_input@@@__crt_stdio_input@@AAE_NI_N@Z 100918bd f i libucrt:input.obj
 0001:00090922       ?process_integer_specifier@?$input_processor@_WV?$string_input_adapter@_W@__crt_stdio_input@@@__crt_stdio_input@@AAE_NI_N@Z 10091922 f i libucrt:input.obj
 0001:00090987       ?process_literal_character@?$input_processor@DV?$string_input_adapter@D@__crt_stdio_input@@@__crt_stdio_input@@AAE_NXZ 10091987 f i libucrt:input.obj
 0001:000909bd       ?process_literal_character@?$input_processor@_WV?$string_input_adapter@_W@__crt_stdio_input@@@__crt_stdio_input@@AAE_NXZ 100919bd f i libucrt:input.obj
 0001:000909f2       ?process_literal_character_tchar@?$input_processor@DV?$string_input_adapter@D@__crt_stdio_input@@@__crt_stdio_input@@AAE_ND@Z 100919f2 f i libucrt:input.obj
 0001:00090a40       ?process_state@?$input_processor@DV?$string_input_adapter@D@__crt_stdio_input@@@__crt_stdio_input@@AAE_NXZ 10091a40 f i libucrt:input.obj
 0001:00090a82       ?process_state@?$input_processor@_WV?$string_input_adapter@_W@__crt_stdio_input@@@__crt_stdio_input@@AAE_NXZ 10091a82 f i libucrt:input.obj
 0001:00090ac4       ?process_string_specifier@?$input_processor@DV?$string_input_adapter@D@__crt_stdio_input@@@__crt_stdio_input@@AAE_NW4conversion_mode@2@@Z 10091ac4 f i libucrt:input.obj
 0001:00090b0c       ?process_string_specifier@?$input_processor@_WV?$string_input_adapter@_W@__crt_stdio_input@@@__crt_stdio_input@@AAE_NW4conversion_mode@2@@Z 10091b0c f i libucrt:input.obj
 0001:00090b54       ?process_whitespace@?$input_processor@DV?$string_input_adapter@D@__crt_stdio_input@@@__crt_stdio_input@@AAE_NXZ 10091b54 f i libucrt:input.obj
 0001:00090b71       ?process_whitespace@?$input_processor@_WV?$string_input_adapter@_W@__crt_stdio_input@@@__crt_stdio_input@@AAE_NXZ 10091b71 f i libucrt:input.obj
 0001:00090b91       ?reset@?$scanset_buffer@_W@__crt_stdio_input@@QAEXXZ 10091b91 f i libucrt:input.obj
 0001:00090bab       ?reset_token_state_for_error@?$format_string_parser@_W@__crt_stdio_input@@AAEXH@Z 10091bab f i libucrt:input.obj
 0001:00090bd6       ?restore_state@?$input_adapter_character_source@V?$string_input_adapter@D@__crt_stdio_input@@@__crt_strtox@@QAE_N_K@Z 10091bd6 f i libucrt:input.obj
 0001:00090bd6       ?restore_state@?$input_adapter_character_source@V?$string_input_adapter@_W@__crt_stdio_input@@@__crt_strtox@@QAE_N_K@Z 10091bd6 f i libucrt:input.obj
 0001:00090bfb       ?scan_conversion_specifier@?$format_string_parser@D@__crt_stdio_input@@AAE_NXZ 10091bfb f i libucrt:input.obj
 0001:00090d77       ?scan_conversion_specifier@?$format_string_parser@_W@__crt_stdio_input@@AAE_NXZ 10091d77 f i libucrt:input.obj
 0001:00090ed7       ?scan_optional_assignment_suppressor@?$format_string_parser@_W@__crt_stdio_input@@AAEXXZ 10091ed7 f i libucrt:input.obj
 0001:00090eeb       ?scan_optional_field_width@?$format_string_parser@D@__crt_stdio_input@@AAE_NXZ 10091eeb f i libucrt:input.obj
 0001:00090f7f       ?scan_optional_field_width@?$format_string_parser@_W@__crt_stdio_input@@AAE_NXZ 10091f7f f i libucrt:input.obj
 0001:0009117a       ?scan_optional_length_modifier@?$format_string_parser@D@__crt_stdio_input@@AAEXXZ 1009217a f i libucrt:input.obj
 0001:0009128f       ?scan_optional_length_modifier@?$format_string_parser@_W@__crt_stdio_input@@AAEXXZ 1009228f f i libucrt:input.obj
 0001:000913c3       ?scan_optional_literal_character_trail_bytes_tchar@?$format_string_parser@D@__crt_stdio_input@@AAE_ND@Z 100923c3 f i libucrt:input.obj
 0001:00091415       ?scan_optional_wide_modifier@?$format_string_parser@D@__crt_stdio_input@@AAEXXZ 10092415 f i libucrt:input.obj
 0001:00091433       ?scan_optional_wide_modifier@?$format_string_parser@_W@__crt_stdio_input@@AAEXXZ 10092433 f i libucrt:input.obj
 0001:0009145d       ?scan_scanset_range@?$format_string_parser@D@__crt_stdio_input@@AAE_NXZ 1009245d f i libucrt:input.obj
 0001:000915ad       ?scan_scanset_range@?$format_string_parser@_W@__crt_stdio_input@@AAE_NXZ 100925ad f i libucrt:input.obj
 0001:00091719       ?set@?$scanset_buffer@E@__crt_stdio_input@@QAEXE@Z 10092719 f i libucrt:input.obj
 0001:00091744       ?set@?$scanset_buffer@_W@__crt_stdio_input@@QAEX_W@Z 10092744 f i libucrt:input.obj
 0001:00091774       ?set_wide_for_c_s_or_scanset@?$format_string_parser@D@__crt_stdio_input@@AAEXXZ 10092774 f i libucrt:input.obj
 0001:00091795       ?set_wide_for_c_s_or_scanset@?$format_string_parser@_W@__crt_stdio_input@@AAEXXZ 10092795 f i libucrt:input.obj
 0001:000917b6       ?should_default_to_wide@?$format_string_parser@_W@__crt_stdio_input@@AAE_N_W@Z 100927b6 f i libucrt:input.obj
 0001:000917ea       ?test@?$scanset_buffer@_W@__crt_stdio_input@@QBE_N_W@Z 100927ea f i libucrt:input.obj
 0001:0009181f       ?to_floating_point_length@__crt_stdio_input@@YAIW4length_modifier@1@@Z 1009281f f i libucrt:input.obj
 0001:00091842       ?to_integer_length@__crt_stdio_input@@YAIW4length_modifier@1@@Z 10092842 f i libucrt:input.obj
 0001:00091895       ?unget@?$input_adapter_character_source@V?$string_input_adapter@D@__crt_stdio_input@@@__crt_strtox@@QAEXD@Z 10092895 f i libucrt:input.obj
 0001:000918dc       ?unget@?$input_adapter_character_source@V?$string_input_adapter@_W@__crt_stdio_input@@@__crt_strtox@@QAEX_W@Z 100928dc f i libucrt:input.obj
 0001:00091927       ?unget@?$string_input_adapter@D@__crt_stdio_input@@QAEXH@Z 10092927 f i libucrt:input.obj
 0001:00091946       ?unget@?$string_input_adapter@_W@__crt_stdio_input@@QAEXG@Z 10092946 f i libucrt:input.obj
 0001:0009196c       ?validate@?$format_string_parser@D@__crt_stdio_input@@QBE_NXZ 1009296c f i libucrt:input.obj
 0001:0009196c       ?validate@?$format_string_parser@_W@__crt_stdio_input@@QBE_NXZ 1009296c f i libucrt:input.obj
 0001:00091988       ?validate@?$input_adapter_character_source@V?$string_input_adapter@D@__crt_stdio_input@@@__crt_strtox@@QBE_NXZ 10092988 f i libucrt:input.obj
 0001:00091988       ?validate@?$input_adapter_character_source@V?$string_input_adapter@_W@__crt_stdio_input@@@__crt_strtox@@QBE_NXZ 10092988 f i libucrt:input.obj
 0001:000919a9       ?validate@?$string_input_adapter@D@__crt_stdio_input@@QAE_NXZ 100929a9 f i libucrt:input.obj
 0001:000919a9       ?validate@?$string_input_adapter@_W@__crt_stdio_input@@QAE_NXZ 100929a9 f i libucrt:input.obj
 0001:000919cb       ?write_character@?$input_processor@DV?$string_input_adapter@D@__crt_stdio_input@@@__crt_stdio_input@@AAE_NQA_WIAAPA_WAAID@Z 100929cb f i libucrt:input.obj
 0001:00091a38       ?write_character@?$input_processor@_WV?$string_input_adapter@_W@__crt_stdio_input@@@__crt_stdio_input@@AAE_NQADIAAPADAAI_W@Z 10092a38 f i libucrt:input.obj
 0001:00091abe       ?write_integer@?$input_processor@DV?$string_input_adapter@D@__crt_stdio_input@@@__crt_stdio_input@@AAE_N_K@Z 10092abe f i libucrt:input.obj
 0001:00091b2d       ?write_integer@?$input_processor@_WV?$string_input_adapter@_W@__crt_stdio_input@@@__crt_stdio_input@@AAE_N_K@Z 10092b2d f i libucrt:input.obj
 0001:00091b9c       ___stdio_common_vsscanf    10092b9c f   libucrt:input.obj
 0001:00091bc0       ___stdio_common_vswscanf   10092bc0 f   libucrt:input.obj
 0001:00091be4       __ischartype_l             10092be4 f i libucrt:input.obj
 0001:00091e29       __fsopen                   10092e29 f   libucrt:fopen.obj
 0001:00091e34       __wfopen                   10092e34 f   libucrt:fopen.obj
 0001:00091e4b       _fopen_s                   10092e4b f   libucrt:fopen.obj
 0001:00091fb7       __fclose_nolock            10092fb7 f   libucrt:fclose.obj
 0001:00091fe7       _fclose                    10092fe7 f   libucrt:fclose.obj
 0001:0009224f       ___acrt_stdio_flush_nolock 1009324f f   libucrt:fflush.obj
 0001:000922b8       __fflush_nolock            100932b8 f   libucrt:fflush.obj
 0001:0009231d       __flushall                 1009331d f   libucrt:fflush.obj
 0001:00092326       _fflush                    10093326 f   libucrt:fflush.obj
 0001:000924ad       __fputc_nolock_internal    100934ad f   libucrt:fputc.obj
 0001:000924da       _fputc                     100934da f   libucrt:fputc.obj
 0001:000926cd       _fputs                     100936cd f   libucrt:fputs.obj
 0001:00092710       _strncpy                   10093710 f   libucrt:strncpy.obj
 0001:00092834       ??$parse_integer@KV?$c_string_character_source@D@__crt_strtox@@$00@__crt_strtox@@YAKAAV__crt_cached_ptd_host@@V?$c_string_character_source@D@0@H_N@Z 10093834 f i libucrt:strtox.obj
 0001:00092a7f       ??$parse_integer@KV?$c_string_character_source@_W@__crt_strtox@@$00@__crt_strtox@@YAKAAV__crt_cached_ptd_host@@V?$c_string_character_source@_W@0@H_N@Z 10093a7f f i libucrt:strtox.obj
 0001:000930a2       ??$parse_integer@_KV?$c_string_character_source@D@__crt_strtox@@$00@__crt_strtox@@YA_KAAV__crt_cached_ptd_host@@V?$c_string_character_source@D@0@H_N@Z 100940a2 f i libucrt:strtox.obj
 0001:00093352       ??$parse_integer@_KV?$c_string_character_source@_W@__crt_strtox@@$00@__crt_strtox@@YA_KAAV__crt_cached_ptd_host@@V?$c_string_character_source@_W@0@H_N@Z 10094352 f i libucrt:strtox.obj
 0001:00093921       _strtoul                   10094921 f   libucrt:strtox.obj
 0001:00093967       _strtoull                  10094967 f   libucrt:strtox.obj
 0001:000939b3       _wcstoull                  100949b3 f   libucrt:strtox.obj
 0001:00093a00       _islower                   10094a00 f   libucrt:_ctype.obj
 0001:00093a90       _isspace                   10094a90 f   libucrt:_ctype.obj
 0001:00093b20       _isupper                   10094b20 f   libucrt:_ctype.obj
 0001:00093ba4       __tolower_l                10094ba4 f   libucrt:tolower_toupper.obj
 0001:00093ca2       __toupper_l                10094ca2 f   libucrt:tolower_toupper.obj
 0001:00093da0       _tolower                   10094da0 f   libucrt:tolower_toupper.obj
 0001:00093dd0       _toupper                   10094dd0 f   libucrt:tolower_toupper.obj
 0001:00093e00       ___acrt_initialize_stdio   10094e00 f   libucrt:_file.obj
 0001:00093ec8       ___acrt_iob_func           10094ec8 f   libucrt:_file.obj
 0001:00093ed8       ___acrt_uninitialize_stdio 10094ed8 f   libucrt:_file.obj
 0001:00093f24       __get_stream_buffer_pointers 10094f24 f   libucrt:_file.obj
 0001:00093f6a       __lock_file                10094f6a f   libucrt:_file.obj
 0001:00093f7e       __unlock_file              10094f7e f   libucrt:_file.obj
 0001:0009409a       _freopen_s                 1009509a f   libucrt:freopen.obj
 0001:000940c0       _strcspn                   100950c0 f   libucrt:strcspn.obj
 0001:00094140       __stricmp                  10095140 f   libucrt:stricmp.obj
 0001:000941c0       __stricmp_l                100951c0 f   libucrt:stricmp.obj
 0001:000942e0       _strncat                   100952e0 f   libucrt:strncat.obj
 0001:00094420       _calloc                    10095420 f   libucrt:calloc.obj
 0001:00094430       _free                      10095430 f   libucrt:free.obj
 0001:00094435       __wtol                     10095435 f   libucrt:atox.obj
 0001:00094474       _atoi                      10095474 f   libucrt:atox.obj
 0001:000944c0       __decomp                   100954c0 f i libucrt:frexp.obj
 0001:000945d0       __sptype                   100955d0 f i libucrt:frexp.obj
 0001:00094650       _frexp                     10095650 f   libucrt:frexp.obj
 0001:00094811       __fgetc_nolock             10095811 f   libucrt:fgetc.obj
 0001:0009484d       _fgetc                     1009584d f   libucrt:fgetc.obj
 0001:00094966       _fgetpos                   10095966 f   libucrt:fgetpos.obj
 0001:000949bf       __fread_nolock_s           100959bf f   libucrt:fread.obj
 0001:00094b93       _fread                     10095b93 f   libucrt:fread.obj
 0001:00094bb0       _fread_s                   10095bb0 f   libucrt:fread.obj
 0001:00094c4d       _fsetpos                   10095c4d f   libucrt:fsetpos.obj
 0001:00094c88       ?LongLongSub@@YAJ_J0PA_J@Z 10095c88 f i libucrt:fseek.obj
 0001:00094f79       __fseeki64                 10095f79 f   libucrt:fseek.obj
 0001:00094fb3       _fseek                     10095fb3 f   libucrt:fseek.obj
 0001:00095094       __fwrite_internal          10096094 f   libucrt:fwrite.obj
 0001:0009510b       __fwrite_nolock_internal   1009610b f   libucrt:fwrite.obj
 0001:0009529f       _fwrite                    1009629f f   libucrt:fwrite.obj
 0001:0009549d       _setvbuf                   1009649d f   libucrt:setvbuf.obj
 0001:000954d7       __ungetc_nolock            100964d7 f   libucrt:ungetc.obj
 0001:000955cb       _ungetc                    100965cb f   libucrt:ungetc.obj
 0001:0009563e       _localeconv                1009663e f   libucrt:localeconv.obj
 0001:00095670       __dclass                   10096670 f i libucrt:nan.obj
 0001:00095670       __ldclass                  10096670 f i libucrt:nanl.obj
 0001:00095690       __ceil_no_sse41            10096690 f   libucrt:ceil_pentium4.obj
 0001:000956d0       _ceil                      100966d0 f   libucrt:ceil_pentium4.obj
 0001:000956f0       __ceil_pentium4            100966f0 f   libucrt:ceil_pentium4.obj
 0001:000957d0       _strncmp                   100967d0 f   libucrt:strncmp.obj
 0001:00095850       __libm_sse2_cos_precise    10096850 f   libucrt:cos_sse2_precise.obj
 0001:00095a10       __libm_sse2_sin_precise    10096a10 f   libucrt:sin_sse2_precise.obj
 0001:000962b8       __ftelli64                 100972b8 f   libucrt:ftell.obj
 0001:000962ee       __ftelli64_nolock_internal 100972ee f   libucrt:ftell.obj
 0001:000962f9       _ftell                     100972f9 f   libucrt:ftell.obj
 0001:00096330       _malloc                    10097330 f   libucrt:malloc.obj
 0001:00096340       _qsort                     10097340 f   libucrt:qsort.obj
 0001:00096780       __CIfmod                   10097780 f   libucrt:87fmod_impl.obj
 0001:00096790       __fFMOD                    10097790 f   libucrt:87fmod_impl.obj
 0001:000967a0       __libm_sse2_sqrt_precise   100977a0 f   libucrt:sqrt_sse2_precise.obj
 0001:000968a0       __libm_sse2_acos_precise   100978a0 f   libucrt:acos_sse2_precise.obj
 0001:00096e31       ??$parse_floating_point@V?$c_string_character_source@D@__crt_strtox@@N@__crt_strtox@@YA?AW4SLD_STATUS@@QAU__crt_locale_pointers@@V?$c_string_character_source@D@0@QAN@Z 10097e31 f i libucrt:atof.obj
 0001:00096eb1       ??$parse_floating_point_from_source@V?$c_string_character_source@D@__crt_strtox@@@__crt_strtox@@YA?AW4floating_point_parse_result@0@QAU__crt_locale_pointers@@AAV?$c_string_character_source@D@0@AAUfloating_point_string@0@@Z 10097eb1 f i libucrt:atof.obj
 0001:000972d9       ??$parse_floating_point_possible_infinity@DV?$c_string_character_source@D@__crt_strtox@@PBD@__crt_strtox@@YA?AW4floating_point_parse_result@0@AADAAV?$c_string_character_source@D@0@PBD@Z 100982d9 f i libucrt:atof.obj
 0001:0009738b       ??$parse_floating_point_possible_nan@DV?$c_string_character_source@D@__crt_strtox@@PBD@__crt_strtox@@YA?AW4floating_point_parse_result@0@AADAAV?$c_string_character_source@D@0@PBD@Z 1009838b f i libucrt:atof.obj
 0001:0009748f       ??$parse_floating_point_possible_nan_is_ind@DV?$c_string_character_source@D@__crt_strtox@@@__crt_strtox@@YA_NAADAAV?$c_string_character_source@D@0@@Z 1009848f f i libucrt:atof.obj
 0001:000974cb       ??$parse_floating_point_possible_nan_is_snan@DV?$c_string_character_source@D@__crt_strtox@@@__crt_strtox@@YA_NAADAAV?$c_string_character_source@D@0@@Z 100984cb f i libucrt:atof.obj
 0001:00097507       ??R<lambda_32aa245da1b5b882fa96db788295c8b2>@@QBE@XZ 10098507 f i libucrt:atof.obj
 0001:00097507       ??R<lambda_690cf26ff5d754c94c32cf642e9f01bc>@@QBE@XZ 10098507 f i libucrt:atof.obj
 0001:00097507       ??R<lambda_e51f7abad2595a5950d3223319845217>@@QBE@XZ 10098507 f i libucrt:atof.obj
 0001:0009752d       _atof                      1009852d f   libucrt:atof.obj
 0001:00097540       __CIatan2                  10098540 f   libucrt:87ctriga.obj
 0001:00097550       __libm_sse2_log_precise    10098550 f   libucrt:log_sse2_precise.obj
 0001:000977e0       __libm_sse2_pow_precise    100987e0 f   libucrt:pow_sse2_precise.obj
 0001:00098330       ___acrt_initialize_locks   10099330 f   libucrt:locks.obj
 0001:00098371       ___acrt_lock               10099371 f   libucrt:locks.obj
 0001:00098388       ___acrt_uninitialize_locks 10099388 f   libucrt:locks.obj
 0001:000983b9       ___acrt_unlock             100993b9 f   libucrt:locks.obj
 0001:000983d0       __lock_locales             100993d0 f   libucrt:locks.obj
 0001:000983de       __unlock_locales           100993de f   libucrt:locks.obj
 0001:0009863c       _setlocale                 1009963c f   libucrt:setlocale.obj
 0001:00098674       ___pctype_func             10099674 f   libucrt:ctype.obj
 0001:00098698       ____lc_codepage_func       10099698 f   libucrt:initctype.obj
 0001:000986bd       ____lc_locale_name_func    100996bd f   libucrt:initctype.obj
 0001:000986e4       ____mb_cur_max_func        100996e4 f   libucrt:initctype.obj
 0001:00098709       ___acrt_locale_initialize_ctype 10099709 f   libucrt:initctype.obj
 0001:00098b70       __wcsdup                   10099b70 f   libucrt:wcsdup.obj
 0001:00098c54       ___acrt_errno_from_os_error 10099c54 f   libucrt:errno.obj
 0001:00098cb3       ___acrt_errno_map_os_error 10099cb3 f   libucrt:errno.obj
 0001:00098cd6       ___acrt_errno_map_os_error_ptd 10099cd6 f   libucrt:errno.obj
 0001:00098cfa       ___doserrno                10099cfa f   libucrt:errno.obj
 0001:00098d0f       __errno                    10099d0f f   libucrt:errno.obj
 0001:00098d30       _realloc                   10099d30 f   libucrt:realloc.obj
 0001:00098d40       ___strncnt                 10099d40 f   libucrt:strncnt.obj
 0001:00098d5e       ??$__acrt_convert_wcs_mbs_cp@D_WV<lambda_62f6974d9771e494a5ea317cc32e971c>@@U__crt_win32_buffer_internal_dynamic_resizing@@@@YAHQBDAAV?$__crt_win32_buffer@_WU__crt_win32_buffer_internal_dynamic_resizing@@@@ABV<lambda_62f6974d9771e494a5ea317cc32e971c>@@I@Z 10099d5e f i libucrt:strftime.obj
 0001:00098e10       ??$__acrt_convert_wcs_mbs_cp@_WDV<lambda_0fec1a7b3f42a53036604e18c2d5e07e>@@U__crt_win32_buffer_no_resizing@@@@YAHQB_WAAV?$__crt_win32_buffer@DU__crt_win32_buffer_no_resizing@@@@ABV<lambda_0fec1a7b3f42a53036604e18c2d5e07e>@@I@Z 10099e10 f i libucrt:strftime.obj
 0001:00098ed2       ??$__acrt_mbs_to_wcs_cp@U__crt_win32_buffer_internal_dynamic_resizing@@@@YAHQBDAAV?$__crt_win32_buffer@_WU__crt_win32_buffer_internal_dynamic_resizing@@@@I@Z 10099ed2 f i libucrt:strftime.obj
 0001:00098eef       ??R<lambda_0fec1a7b3f42a53036604e18c2d5e07e>@@QBE@IQB_WQADI@Z 10099eef f i libucrt:strftime.obj
 0001:00098eef       ??R<lambda_28bda7af82a03b66c1cb3803a755f95d>@@QBE@IQB_WQADI@Z 10099eef f i libucrt:argv_wildcards.obj
 0001:00098f13       ?_deallocate@?$__crt_win32_buffer@DU__crt_win32_buffer_internal_dynamic_resizing@@@@AAEXXZ 10099f13 f i libucrt:argv_wildcards.obj
 0001:00098f13       ?_deallocate@?$__crt_win32_buffer@_WU__crt_win32_buffer_internal_dynamic_resizing@@@@AAEXXZ 10099f13 f i libucrt:strftime.obj
 0001:00098f2d       ?allocate@?$__crt_win32_buffer@DU__crt_win32_buffer_no_resizing@@@@QAEHI@Z 10099f2d f i libucrt:strftime.obj
 0001:00098f54       ?allocate@?$__crt_win32_buffer@_WU__crt_win32_buffer_internal_dynamic_resizing@@@@QAEHI@Z 10099f54 f i libucrt:strftime.obj
 0001:00098f93       ?allocate@__crt_win32_buffer_internal_dynamic_resizing@@SAHQAPAXIABV__crt_win32_buffer_empty_debug_info@@@Z 10099f93 f i libucrt:strftime.obj
 0001:00098fb4       ?set_to_nullptr@?$__crt_win32_buffer@DU__crt_win32_buffer_no_resizing@@@@QAEXXZ 10099fb4 f i libucrt:strftime.obj
 0001:00098fd0       _strnlen                   10099fd0 f   libucrt:strnlen.obj
 0001:00099130       _wcsnlen                   1009a130 f   libucrt:strnlen.obj
 0001:00099310       __callnewh                 1009a310 f   libucrt:new_handler.obj
 0001:00099350       ___acrt_initialize_new_handler 1009a350 f   libucrt:new_handler.obj
 0001:00099370       __query_new_handler        1009a370 f   libucrt:new_handler.obj
 0001:000993d0       __set_new_handler          1009a3d0 f   libucrt:new_handler.obj
 0001:00099440       ?_set_new_handler@@YAP6AHI@ZH@Z 1009a440 f   libucrt:new_handler.obj
 0001:0009944d       ??$__crt_fast_decode_pointer@P6AHI@Z@@YAP6AHI@ZQ6AHI@Z@Z 1009a44d f i libucrt:new_handler.obj
 0001:0009944d       ??$__crt_fast_decode_pointer@P6AXH@Z@@YAP6AXH@ZQ6AXH@Z@Z 1009a44d f i libucrt:signal.obj
 0001:0009944d       ??$__crt_fast_decode_pointer@P6GXPAXK0@Z@@YAP6GXPAXK0@ZQ6GX0K0@Z@Z 1009a44d f i libucrt:exit.obj
 0001:00099468       ??$__crt_fast_encode_pointer@P6AHI@Z@@YAP6AHI@ZQ6AHI@Z@Z 1009a468 f i libucrt:new_handler.obj
 0001:00099468       ??$__crt_fast_encode_pointer@P6AHXZ@@YAP6AHXZQ6AHXZ@Z 1009a468 f i libucrt:onexit.obj
 0001:00099468       ??$__crt_fast_encode_pointer@PAP6AXXZ@@YAPAP6AXXZQAP6AXXZ@Z 1009a468 f i libucrt:onexit.obj
 0001:00099487       __seh_filter_dll           1009a487 f   libucrt:exception_filter.obj
 0001:000994a7       __seh_filter_exe           1009a4a7 f   libucrt:exception_filter.obj
 0001:000998d2       ___acrt_initialize_thread_local_exit_callback 1009a8d2 f   libucrt:exit.obj
 0001:000998e1       __cexit                    1009a8e1 f   libucrt:exit.obj
 0001:000998f0       __exit                     1009a8f0 f   libucrt:exit.obj
 0001:00099906       __is_c_termination_complete 1009a906 f   libucrt:exit.obj
 0001:00099bbc       ___acrt_allocate_buffer_for_argv 1009abbc f   libucrt:argv_parsing.obj
 0001:00099c0b       __configure_narrow_argv    1009ac0b f   libucrt:argv_parsing.obj
 0001:00099dba       ___dcrt_uninitialize_environments_nolock 1009adba f   libucrt:environment_initialization.obj
 0001:00099e0b       __initialize_narrow_environment 1009ae0b f   libucrt:environment_initialization.obj
 0001:0009a0b3       __crt_atexit               1009b0b3 f   libucrt:onexit.obj
 0001:0009a0c9       __execute_onexit_table     1009b0c9 f   libucrt:onexit.obj
 0001:0009a107       __initialize_onexit_table  1009b107 f   libucrt:onexit.obj
 0001:0009a130       __register_onexit_function 1009b130 f   libucrt:onexit.obj
 0001:0009a25e       ___acrt_initialize         1009b25e f   libucrt:initialization.obj
 0001:0009a270       ___acrt_thread_attach      1009b270 f   libucrt:initialization.obj
 0001:0009a27b       ___acrt_thread_detach      1009b27b f   libucrt:initialization.obj
 0001:0009a283       ___acrt_uninitialize       1009b283 f   libucrt:initialization.obj
 0001:0009a2b3       ___acrt_uninitialize_critical 1009b2b3 f   libucrt:initialization.obj
 0001:0009a2d0       __except1                  1009b2d0 f   libucrt:fpexcept.obj
 0001:0009a410       __handle_exc               1009b410 f   libucrt:fpexcept.obj
 0001:0009a740       __raise_exc                1009b740 f   libucrt:fpexcept.obj
 0001:0009a770       __raise_exc_ex             1009b770 f   libucrt:fpexcept.obj
 0001:0009aaa0       __set_errno_from_matherr   1009baa0 f   libucrt:fpexcept.obj
 0001:0009aae0       __umatherr                 1009bae0 f   libucrt:fpexcept.obj
 0001:0009abdf       __initterm                 1009bbdf f   libucrt:initterm.obj
 0001:0009ac0a       __initterm_e               1009bc0a f   libucrt:initterm.obj
 0001:0009ac38       _terminate                 1009bc38 f   libucrt:terminate.obj
 0001:0009ac74       @_guard_check_icall@4      1009bc74 f i libucrt:checkcfg.obj
 0001:0009ac80       _strcpy_s                  1009bc80 f   libucrt:strcpy_s.obj
 0001:0009ad10       _wcsncmp                   1009bd10 f   libucrt:wcsncmp.obj
 0001:0009b046       ?internal_get_ptd_head_slow@@YAPAU__acrt_ptd@@XZ 1009c046 f   libucrt:per_thread_data.obj
 0001:0009b139       ___acrt_freeptd            1009c139 f   libucrt:per_thread_data.obj
 0001:0009b17d       ___acrt_getptd             1009c17d f   libucrt:per_thread_data.obj
 0001:0009b18b       ___acrt_getptd_head        1009c18b f   libucrt:per_thread_data.obj
 0001:0009b1ce       ___acrt_getptd_noexit      1009c1ce f   libucrt:per_thread_data.obj
 0001:0009b25a       ___acrt_getptd_noexit_explicit 1009c25a f   libucrt:per_thread_data.obj
 0001:0009b2a3       ___acrt_initialize_ptd     1009c2a3 f   libucrt:per_thread_data.obj
 0001:0009b2d9       ___acrt_uninitialize_ptd   1009c2d9 f   libucrt:per_thread_data.obj
 0001:0009b3f3       ??0_expandlocale_locale_name_cache@@QAE@QA_WIQAU__crt_qualified_locale_data@@@Z 1009c3f3 f i libucrt:wsetlocale.obj
 0001:0009b43d       ??1_expandlocale_locale_name_cache@@QAE@XZ 1009c43d f i libucrt:wsetlocale.obj
 0001:0009b5d5       ?commit_locale_name@_expandlocale_locale_name_cache@@QAEXQB_WI@Z 1009c5d5 f i libucrt:wsetlocale.obj
 0001:0009b619       ?commit_locale_name_cache_already_updated@_expandlocale_locale_name_cache@@QAEXQB_WI@Z 1009c619 f i libucrt:wsetlocale.obj
 0001:0009b64e       ___acrt_copy_locale_name   1009c64e f   libucrt:wsetlocale.obj
 0001:0009b6ae       ___acrt_set_locale_changed 1009c6ae f   libucrt:wsetlocale.obj
 0001:0009b6b9       ___acrt_uninitialize_locale 1009c6b9 f   libucrt:wsetlocale.obj
 0001:0009b6e0       ___lc_lctowcs              1009c6e0 f   libucrt:wsetlocale.obj
 0001:0009b750       ___lc_wcstolc              1009c750 f   libucrt:wsetlocale.obj
 0001:0009bc92       __wcscats                  1009cc92 f   libucrt:wsetlocale.obj
 0001:0009bcd3       __wsetlocale               1009ccd3 f   libucrt:wsetlocale.obj
 0001:0009ca8d       ___acrt_get_sigabrt_handler 1009da8d f   libucrt:signal.obj
 0001:0009cab4       ___acrt_initialize_signal_handlers 1009dab4 f   libucrt:signal.obj
 0001:0009cad2       _raise                     1009dad2 f   libucrt:signal.obj
 0001:0009ccd0       __free_base                1009dcd0 f   libucrt:free_base.obj
 0001:0009cd20       __malloc_base              1009dd20 f   libucrt:malloc_base.obj
 0001:0009cd71       ___acrt_update_locale_info 1009dd71 f   libucrt:locale_update.obj
 0001:0009cd9e       ___acrt_update_locale_info_explicit 1009dd9e f   libucrt:locale_update.obj
 0001:0009cdcf       ___acrt_update_multibyte_info 1009ddcf f   libucrt:locale_update.obj
 0001:0009cdfc       ___acrt_update_multibyte_info_explicit 1009ddfc f   libucrt:locale_update.obj
 0001:0009ce2d       ?__acrt_fp_classify@@YA?AW4__acrt_fp_class@@ABN@Z 1009de2d f i libucrt:cvt.obj
 0001:0009d7dc       ___acrt_fp_format          1009e7dc f   libucrt:cvt.obj
 0001:0009d95c       __wctomb_internal          1009e95c f   libucrt:wctomb.obj
 0001:0009dac0       _wctomb_s                  1009eac0 f   libucrt:wctomb.obj
 0001:0009dafa       __mbtowc_internal          1009eafa f   libucrt:mbtowc.obj
 0001:0009dc2a       __mbtowc_l                 1009ec2a f   libucrt:mbtowc.obj
 0001:0009dc62       ?__mblen_utf8@__crt_mbstring@@YAHPBD@Z 1009ec62 f   libucrt:mbrtoc32.obj
 0001:0009dca3       ?__mbrtoc32_utf8@__crt_mbstring@@YAIPA_UPBDIPAU_Mbstatet@@AAV__crt_cached_ptd_host@@@Z 1009eca3 f   libucrt:mbrtoc32.obj
 0001:0009de5c       ?__c16rtomb_utf8@__crt_mbstring@@YAIPAD_SPAU_Mbstatet@@AAV__crt_cached_ptd_host@@@Z 1009ee5c f   libucrt:c16rtomb.obj
 0001:0009df33       ?__mbrtowc_utf8@__crt_mbstring@@YAIPA_WPBDIPAU_Mbstatet@@AAV__crt_cached_ptd_host@@@Z 1009ef33 f   libucrt:mbrtowc.obj
 0001:0009df76       ?__mbsrtowcs_utf8@__crt_mbstring@@YAIPA_WPAPBDIPAU_Mbstatet@@AAV__crt_cached_ptd_host@@@Z 1009ef76 f   libucrt:mbrtowc.obj
 0001:0009e089       __fileno                   1009f089 f   libucrt:fileno.obj
 0001:0009e0b0       __get_printf_count_output  1009f0b0 f   libucrt:printf_count_output.obj
 0001:0009e0c5       ___acrt_should_use_temporary_buffer 1009f0c5 f   libucrt:_sftbuf.obj
 0001:0009e103       ___acrt_stdio_begin_temporary_buffering_nolock 1009f103 f   libucrt:_sftbuf.obj
 0001:0009e1ae       ___acrt_stdio_end_temporary_buffering_nolock 1009f1ae f   libucrt:_sftbuf.obj
 0001:0009e34c       ___acrt_initialize_lowio   1009f34c f   libucrt:ioinit.obj
 0001:0009e3ac       ___acrt_uninitialize_lowio 1009f3ac f   libucrt:ioinit.obj
 0001:0009e3d8       _iswctype                  1009f3d8 f   libucrt:iswctype.obj
 0001:0009e441       __isctype_l                1009f441 f   libucrt:isctype.obj
 0001:0009e510       __calloc_base              1009f510 f   libucrt:calloc_base.obj
 0001:0009e570       _fegetround                1009f570 f   libucrt:fegetround.obj
 0001:0009e57f       ?__acrt_stdio_allocate_stream@@YA?AV__crt_stdio_stream@@XZ 1009f57f f   libucrt:stream.obj
 0001:0009e5e8       ?__acrt_stdio_free_stream@@YAXV__crt_stdio_stream@@@Z 1009f5e8 f   libucrt:stream.obj
 0001:0009e6e5       ??$__acrt_stdio_parse_mode@D@@YA?AU__acrt_stdio_stream_mode@@QBD@Z 1009f6e5 f i libucrt:openfile.obj
 0001:0009e926       ??$__acrt_stdio_parse_mode@_W@@YA?AU__acrt_stdio_stream_mode@@QB_W@Z 1009f926 f i libucrt:openfile.obj
 0001:0009ecbe       ?__acrt_stdio_parse_mode_D@@YA_NAAU__acrt_stdio_stream_mode@@@Z 1009fcbe f i libucrt:openfile.obj
 0001:0009ecd9       ?__acrt_stdio_parse_mode_T@@YA_NAAU__acrt_stdio_stream_mode@@@Z 1009fcd9 f i libucrt:openfile.obj
 0001:0009ecf8       ?__acrt_stdio_parse_mode_b@@YA_NAAU__acrt_stdio_stream_mode@@@Z 1009fcf8 f i libucrt:openfile.obj
 0001:0009ed18       ?__acrt_stdio_parse_mode_c@@YA_NAAU__acrt_stdio_stream_mode@@AA_N@Z 1009fd18 f i libucrt:openfile.obj
 0001:0009ed3a       ?__acrt_stdio_parse_mode_n@@YA_NAAU__acrt_stdio_stream_mode@@AA_N@Z 1009fd3a f i libucrt:openfile.obj
 0001:0009ed5c       ?__acrt_stdio_parse_mode_plus@@YA_NAAU__acrt_stdio_stream_mode@@AA_N@Z 1009fd5c f i libucrt:openfile.obj
 0001:0009ed92       ?__acrt_stdio_parse_mode_t@@YA_NAAU__acrt_stdio_stream_mode@@@Z 1009fd92 f i libucrt:openfile.obj
 0001:0009edb2       ?__acrt_stdio_parse_mode_x@@YA_NAAU__acrt_stdio_stream_mode@@@Z 1009fdb2 f i libucrt:openfile.obj
 0001:0009edd2       __openfile                 1009fdd2 f   libucrt:openfile.obj
 0001:0009eddd       __wopenfile                1009fddd f   libucrt:openfile.obj
 0001:0009ee79       __close_internal           1009fe79 f   libucrt:close.obj
 0001:0009ef1c       __close_nolock             1009ff1c f   libucrt:close.obj
 0001:0009ef4c       __close_nolock_internal    1009ff4c f   libucrt:close.obj
 0001:0009efec       ___acrt_stdio_free_buffer_nolock 1009ffec f   libucrt:_freebuf.obj
 0001:0009f0ce       __commit                   100a00ce f   libucrt:commit.obj
 0001:0009f8f1       __write                    100a08f1 f   libucrt:write.obj
 0001:0009f928       __write_internal           100a0928 f   libucrt:write.obj
 0001:0009fa39       __write_nolock             100a0a39 f   libucrt:write.obj
 0001:0009feac       ___acrt_stdio_flush_and_write_narrow_nolock 100a0eac f   libucrt:_flsbuf.obj
 0001:000a00a4       ___acrt_LCMapStringA       100a10a4 f   libucrt:lcmapstringa.obj
 0001:000a048a       ___acrt_AppPolicyGetProcessTerminationMethodInternal@4 100a148a f   libucrt:winapi_thunks.obj
 0001:000a04d9       ___acrt_AreFileApisANSI@0  100a14d9 f   libucrt:winapi_thunks.obj
 0001:000a04f8       ___acrt_EnumSystemLocalesEx@16 100a14f8 f   libucrt:winapi_thunks.obj
 0001:000a054c       ___acrt_FlsAlloc@4         100a154c f   libucrt:winapi_thunks.obj
 0001:000a0558       ___acrt_FlsFree@4          100a1558 f   libucrt:winapi_thunks.obj
 0001:000a0564       ___acrt_FlsGetValue2@4     100a1564 f   libucrt:winapi_thunks.obj
 0001:000a0571       ___acrt_FlsGetValue@4      100a1571 f   libucrt:winapi_thunks.obj
 0001:000a057d       ___acrt_FlsSetValue@8      100a157d f   libucrt:winapi_thunks.obj
 0001:000a0589       ___acrt_GetLocaleInfoEx@16 100a1589 f   libucrt:winapi_thunks.obj
 0001:000a05c8       ___acrt_GetUserDefaultLocaleName@8 100a15c8 f   libucrt:winapi_thunks.obj
 0001:000a0604       ___acrt_InitializeCriticalSectionEx@12 100a1604 f   libucrt:winapi_thunks.obj
 0001:000a0610       ___acrt_IsValidLocaleName@4 100a1610 f   libucrt:winapi_thunks.obj
 0001:000a0648       ___acrt_LCIDToLocaleName@16 100a1648 f   libucrt:winapi_thunks.obj
 0001:000a0687       ___acrt_LCMapStringEx@36   100a1687 f   libucrt:winapi_thunks.obj
 0001:000a06e4       ___acrt_LocaleNameToLCID@8 100a16e4 f   libucrt:winapi_thunks.obj
 0001:000a0715       ___acrt_can_use_vista_locale_apis 100a1715 f   libucrt:winapi_thunks.obj
 0001:000a0720       ___acrt_eagerly_load_locale_apis 100a1720 f   libucrt:winapi_thunks.obj
 0001:000a0757       ___acrt_initialize_winapi_thunks 100a1757 f   libucrt:winapi_thunks.obj
 0001:000a077a       ___acrt_tls2_supported     100a177a f   libucrt:winapi_thunks.obj
 0001:000a07ab       ___acrt_uninitialize_winapi_thunks 100a17ab f   libucrt:winapi_thunks.obj
 0001:000a07e1       __fcloseall                100a17e1 f   libucrt:closeall.obj
 0001:000a0890       ___set_fpsr_sse2           100a1890 f   libucrt:fpctrl.obj
 0001:000a0970       __clrfp                    100a1970 f   libucrt:fpctrl.obj
 0001:000a0990       __ctrlfp                   100a1990 f   libucrt:fpctrl.obj
 0001:000a09c0       __set_statfp               100a19c0 f   libucrt:fpctrl.obj
 0001:000a0a20       __statfp                   100a1a20 f   libucrt:fpctrl.obj
 0001:000a0bbd       ___acrt_stdio_refill_and_read_narrow_nolock 100a1bbd f   libucrt:_filbuf.obj
 0001:000a10af       __read                     100a20af f   libucrt:read.obj
 0001:000a11c8       __read_nolock              100a21c8 f   libucrt:read.obj
 0001:000a16fc       __lseeki64                 100a26fc f   libucrt:lseek.obj
 0001:000a173c       __lseeki64_internal        100a273c f   libucrt:lseek.obj
 0001:000a175a       __lseeki64_nolock          100a275a f   libucrt:lseek.obj
 0001:000a179a       __lseeki64_nolock_internal 100a279a f   libucrt:lseek.obj
 0001:000a17b8       ___acrt_stdio_allocate_buffer_nolock 100a27b8 f   libucrt:_getbuf.obj
 0001:000a1820       __dtest_inline             100a2820 f i libucrt:_test.obj
 0001:000a1820       __ldtest_inline            100a2820 f i libucrt:_test.obj
 0001:000a1890       ___libm_error_support      100a2890 f   libucrt:libm_error.obj
 0001:000a1b30       ___acrt_initialize_sse2    100a2b30 f   libucrt:mathfcns.obj
 0001:000a1b40       __ceil_default             100a2b40 f   libucrt:ceil.obj
 0001:000a1c40       __CIcos                    100a2c40 f   libucrt:cos_impl.obj
 0001:000a1c7b       __CIcos_default            100a2c7b f   libucrt:cos_impl.obj
 0001:000a1c8f       __cos_default              100a2c8f     libucrt:cos_impl.obj
 0001:000a1d30       __CIsin                    100a2d30 f   libucrt:sin_impl.obj
 0001:000a1d6b       __CIsin_default            100a2d6b f   libucrt:sin_impl.obj
 0001:000a1d7f       __sin_default              100a2d7f     libucrt:sin_impl.obj
 0001:000a1e20       __cintrindisp2             100a2e20 f   libucrt:87cdisp.obj
 0001:000a1e70       __cintrindisp1             100a2e70 f   libucrt:87cdisp.obj
 0001:000a1eb9       __ctrandisp2               100a2eb9 f   libucrt:87cdisp.obj
 0001:000a2048       __ctrandisp1               100a3048 f   libucrt:87cdisp.obj
 0001:000a207b       __fload                    100a307b f   libucrt:87cdisp.obj
 0001:000a20c0       __trandisp1                100a30c0 f   libucrt:87disp.obj
 0001:000a2135       __trandisp2                100a3135 f   libucrt:87disp.obj
 0001:000a21cf       __rttospopde               100a31cf     libucrt:87disp.obj
 0001:000a21d4       __rttospop                 100a31d4     libucrt:87disp.obj
 0001:000a21e0       __rtnospop                 100a31e0 f   libucrt:87disp.obj
 0001:000a21f0       __rttosnpop                100a31f0 f   libucrt:87disp.obj
 0001:000a21f1       __rtnospopde               100a31f1     libucrt:87disp.obj
 0001:000a21f8       __rtzeropop                100a31f8     libucrt:87disp.obj
 0001:000a21fa       __rtzeronpop               100a31fa     libucrt:87disp.obj
 0001:000a2200       __rtzerospop               100a3200 f   libucrt:87disp.obj
 0001:000a220d       __rtonepop                 100a320d     libucrt:87disp.obj
 0001:000a2210       __rtonenpop                100a3210 f   libucrt:87disp.obj
 0001:000a2220       __tosnan1                  100a3220 f   libucrt:87disp.obj
 0001:000a2250       __nosnan2                  100a3250 f   libucrt:87disp.obj
 0001:000a2260       __tosnan2                  100a3260 f   libucrt:87disp.obj
 0001:000a2290       __nan2                     100a3290 f   libucrt:87disp.obj
 0001:000a22d0       __rtindfpop                100a32d0 f   libucrt:87disp.obj
 0001:000a22d2       __rtindfnpop               100a32d2     libucrt:87disp.obj
 0001:000a22e3       __rttosnpopde              100a32e3     libucrt:87disp.obj
 0001:000a22f0       __rtatan2inf               100a32f0 f   libucrt:87disp.obj
 0001:000a230d       __rtchsifneg               100a330d     libucrt:87disp.obj
 0001:000a2320       _sqrt                      100a3320 f   libucrt:sqrt.obj
 0001:000a2330       __CIacos                   100a3330 f   libucrt:acos_impl.obj
 0001:000a236b       __CIacos_default           100a336b f   libucrt:acos_impl.obj
 0001:000a237f       __acos_default             100a337f     libucrt:acos_impl.obj
 0001:000a2460       __fFATN2                   100a3460 f   libucrt:87triga.obj
 0001:000a24b0       __rtpiby2                  100a34b0     libucrt:87triga.obj
 0001:000a24c0       __rtforatn20               100a34c0 f   libucrt:87triga.obj
 0001:000a24f0       __rtforatnby0              100a34f0 f   libucrt:87triga.obj
 0001:000a2500       __CIlog                    100a3500 f   libucrt:log_impl.obj
 0001:000a253b       __CIlog_default            100a353b f   libucrt:log_impl.obj
 0001:000a254f       __log_default              100a354f     libucrt:log_impl.obj
 0001:000a2610       __CIpow                    100a3610 f   libucrt:pow_impl.obj
 0001:000a264b       __CIpow_default            100a364b f   libucrt:pow_impl.obj
 0001:000a2664       __pow_default              100a3664     libucrt:pow_impl.obj
 0001:000a2aff       _mbstowcs_s                100a3aff f   libucrt:mbstowcs.obj
 0001:000a2eb3       __wcstombs_s_l             100a3eb3 f   libucrt:wcstombs.obj
 0001:000a2fd1       ___acrt_GetLocaleInfoA     100a3fd1 f   libucrt:getlocaleinfoa.obj
 0001:000a3181       ___acrt_GetStringTypeA     100a4181 f   libucrt:getstringtypea.obj
 0001:000a3280       _wcscpy_s                  100a4280 f   libucrt:wcscpy_s.obj
 0001:000a3320       __realloc_base             100a4320 f   libucrt:realloc_base.obj
 0001:000a3421       ___acrt_MultiByteToWideChar 100a4421 f   libucrt:multibytetowidechar.obj
 0001:000a34db       ___acrt_WideCharToMultiByte 100a44db f   libucrt:widechartomultibyte.obj
 0001:000a3550       ___ascii_wcsicmp           100a4550 f   libucrt:wcsicmp.obj
 0001:000a35a0       __wcsicmp                  100a45a0 f   libucrt:wcsicmp.obj
 0001:000a35f0       __wcsicmp_l                100a45f0 f   libucrt:wcsicmp.obj
 0001:000a3799       ___acrt_initialize_timeset 100a4799 f   libucrt:timeset.obj
 0001:000a37ce       ?__acrt_get_utf8_acp_compatibility_codepage@@YAIXZ 100a47ce f i libucrt:tzset.obj
 0001:000a380d       ___acrt_app_verifier_enabled 100a480d f   libucrt:peb_access.obj
 0001:000a381f       ___acrt_is_secure_process  100a481f f   libucrt:peb_access.obj
 0001:000a3832       ___acrt_get_process_end_policy 100a4832 f   libucrt:win_policies.obj
 0001:000a3871       ??$__acrt_convert_wcs_mbs_cp@_WDV<lambda_28bda7af82a03b66c1cb3803a755f95d>@@U__crt_win32_buffer_internal_dynamic_resizing@@@@YAHQB_WAAV?$__crt_win32_buffer@DU__crt_win32_buffer_internal_dynamic_resizing@@@@ABV<lambda_28bda7af82a03b66c1cb3803a755f95d>@@I@Z 100a4871 f i libucrt:argv_wildcards.obj
 0001:000a3e16       ?allocate@?$__crt_win32_buffer@DU__crt_win32_buffer_internal_dynamic_resizing@@@@QAEHI@Z 100a4e16 f i libucrt:argv_wildcards.obj
 0001:000a3ed9       ___acrt_expand_narrow_argv_wildcards 100a4ed9 f   libucrt:argv_wildcards.obj
 0001:000a3ee4       ___acrt_GetModuleFileNameA 100a4ee4 f   libucrt:getmodulefilenamea.obj
 0001:000a4501       ___acrt_initialize_multibyte 100a5501 f   libucrt:mbctype.obj
 0001:000a4549       ___acrt_update_thread_multibyte_data 100a5549 f   libucrt:mbctype.obj
 0001:000a455c       __setmbcp_nolock           100a555c f   libucrt:mbctype.obj
 0001:000a47b1       __ismbblead                100a57b1 f   libucrt:ismbbyte.obj
 0001:000a47c9       ___acrt_initialize_command_line 100a57c9 f   libucrt:argv_data.obj
 0001:000a4819       ___dcrt_get_narrow_environment_from_os 100a5819 f   libucrt:get_environment_from_os.obj
 0001:000a48c0       __recalloc_base            100a58c0 f   libucrt:recalloc.obj
 0001:000a4940       __recalloc                 100a5940 f   libucrt:recalloc.obj
 0001:000a4950       __get_heap_handle          100a5950 f   libucrt:heap_handle.obj
 0001:000a4960       ___acrt_initialize_heap    100a5960 f   libucrt:heap_handle.obj
 0001:000a4980       ___acrt_uninitialize_heap  100a5980 f   libucrt:heap_handle.obj
 0001:000a4990       ___acrt_getheap            100a5990 f   libucrt:heap_handle.obj
 0001:000a4996       ___acrt_execute_initializers 100a5996 f   libucrt:shared_initialization.obj
 0001:000a49fe       ___acrt_execute_uninitializers 100a59fe f   libucrt:shared_initialization.obj
 0001:000a4a30       ___acrt_has_user_matherr   100a5a30 f   libucrt:matherr.obj
 0001:000a4a50       ___acrt_initialize_user_matherr 100a5a50 f   libucrt:matherr.obj
 0001:000a4a60       ___acrt_invoke_user_matherr 100a5a60 f   libucrt:matherr.obj
 0001:000a4aa0       ___acrt_fenv_get_common_round_control 100a5aa0 f   libucrt:_fenvutils.obj
 0001:000a4ad0       ___acrt_fenv_get_control   100a5ad0 f   libucrt:_fenvutils.obj
 0001:000a4cb0       ___acrt_fenv_get_status    100a5cb0 f   libucrt:_fenvutils.obj
 0001:000a4d60       ___acrt_fenv_set_control   100a5d60 f   libucrt:_fenvutils.obj
 0001:000a4fb0       ___acrt_fenv_set_status    100a5fb0 f   libucrt:_fenvutils.obj
 0001:000a50b9       ___acrt_add_locale_ref     100a60b9 f   libucrt:locale_refcounting.obj
 0001:000a5136       ___acrt_free_locale        100a6136 f   libucrt:locale_refcounting.obj
 0001:000a527e       ___acrt_locale_add_lc_time_reference 100a627e f   libucrt:locale_refcounting.obj
 0001:000a52a7       ___acrt_locale_free_lc_time_if_unreferenced 100a62a7 f   libucrt:locale_refcounting.obj
 0001:000a52d8       ___acrt_locale_release_lc_time_reference 100a62d8 f   libucrt:locale_refcounting.obj
 0001:000a5301       ___acrt_release_locale_ref 100a6301 f   libucrt:locale_refcounting.obj
 0001:000a5382       ___acrt_update_thread_locale_data 100a6382 f   libucrt:locale_refcounting.obj
 0001:000a5403       __updatetlocinfoEx_nolock  100a6403 f   libucrt:locale_refcounting.obj
 0001:000a5453       ___acrt_locale_free_monetary 100a6453 f   libucrt:initmon.obj
 0001:000a5551       ___acrt_locale_initialize_monetary 100a6551 f   libucrt:initmon.obj
 0001:000a58b2       ___acrt_locale_free_numeric 100a68b2 f   libucrt:initnum.obj
 0001:000a591b       ___acrt_locale_initialize_numeric 100a691b f   libucrt:initnum.obj
 0001:000a5dd9       ___acrt_locale_free_time   100a6dd9 f   libucrt:inittime.obj
 0001:000a5ebd       ___acrt_locale_initialize_time 100a6ebd f   libucrt:inittime.obj
 0001:000a5f40       _wcscat_s                  100a6f40 f   libucrt:wcscat_s.obj
 0001:000a5ff0       _wcsncat_s                 100a6ff0 f   libucrt:wcsncat_s.obj
 0001:000a6120       _wcsncpy_s                 100a7120 f   libucrt:wcsncpy_s.obj
 0001:000a6230       _wcscspn                   100a7230 f   libucrt:wcscspn.obj
 0001:000a6280       _wcspbrk                   100a7280 f   libucrt:wcspbrk.obj
 0001:000a69b0       ___acrt_get_qualified_locale 100a79b0 f   libucrt:get_qualified_locale.obj
 0001:000a732e       ___acrt_get_qualified_locale_downlevel 100a832e f   libucrt:getqloc_downlevel.obj
 0001:000a7520       __query_new_mode           100a8520 f   libucrt:new_mode.obj
 0001:000a7530       __set_new_mode             100a8530 f   libucrt:new_mode.obj
 0001:000a7610       ___acrt_fp_strflt_to_string 100a8610 f   libucrt:_fptostr.obj
 0001:000a7709       ___acrt_fltout             100a8709 f   libucrt:cfout.obj
 0001:000a8bd7       ?__c32rtomb_utf8@__crt_mbstring@@YAIPAD_UPAU_Mbstatet@@AAV__crt_cached_ptd_host@@@Z 100a9bd7 f   libucrt:c32rtomb.obj
 0001:000a8c85       ?reset_and_return@__crt_mbstring@@YAIIPAU_Mbstatet@@@Z 100a9c85 f   libucrt:common_utf8.obj
 0001:000a8c99       ?return_illegal_sequence@__crt_mbstring@@YAIPAU_Mbstatet@@AAV__crt_cached_ptd_host@@@Z 100a9c99 f   libucrt:common_utf8.obj
 0001:000a8cbb       __isatty                   100a9cbb f   libucrt:isatty.obj
 0001:000a8d11       ___acrt_lowio_create_handle_array 100a9d11 f   libucrt:osfinfo.obj
 0001:000a8d8c       ___acrt_lowio_destroy_handle_array 100a9d8c f   libucrt:osfinfo.obj
 0001:000a8dc1       ___acrt_lowio_ensure_fh_exists 100a9dc1 f   libucrt:osfinfo.obj
 0001:000a8e5f       ___acrt_lowio_lock_fh      100a9e5f f   libucrt:osfinfo.obj
 0001:000a8e82       ___acrt_lowio_set_os_handle 100a9e82 f   libucrt:osfinfo.obj
 0001:000a8f14       ___acrt_lowio_unlock_fh    100a9f14 f   libucrt:osfinfo.obj
 0001:000a8f37       __alloc_osfhnd             100a9f37 f   libucrt:osfinfo.obj
 0001:000a904a       __free_osfhnd              100aa04a f   libucrt:osfinfo.obj
 0001:000a90db       __get_osfhandle            100aa0db f   libucrt:osfinfo.obj
 0001:000a9145       ___acrt_GetStringTypeW     100aa145 f   libucrt:getstringtypew.obj
 0001:000a9160       ___ascii_wcsnicmp          100aa160 f   libucrt:wcsnicmp.obj
 0001:000a91d0       __wcsnicmp                 100aa1d0 f   libucrt:wcsnicmp.obj
 0001:000a9220       __wcsnicmp_l               100aa220 f   libucrt:wcsnicmp.obj
 0001:000a9420       __strnicmp                 100aa420 f   libucrt:strnicmp.obj
 0001:000a9480       __strnicmp_l               100aa480 f   libucrt:strnicmp.obj
 0001:000a9c9b       __sopen_nolock             100aac9b f   libucrt:open.obj
 0001:000a9d09       __sopen_s                  100aad09 f   libucrt:open.obj
 0001:000a9d29       __wsopen_nolock            100aad29 f   libucrt:open.obj
 0001:000aa054       __wsopen_s                 100ab054 f   libucrt:open.obj
 0001:000aa074       __putwch_nolock            100ab074 f   libucrt:putwch.obj
 0001:000aa13d       ___acrt_DownlevelLCIDToLocaleName 100ab13d f   libucrt:lcidtoname_downlevel.obj
 0001:000aa1bb       ___acrt_DownlevelLocaleNameToLCID 100ab1bb f   libucrt:lcidtoname_downlevel.obj
 0001:000aa1f0       __frnd                     100ab1f0 f   libucrt:frnd.obj
 0001:000aa210       __CIcos_pentium4           100ab210 f   libucrt:cos_pentium4.obj
 0001:000aa228       __cos_pentium4             100ab228     libucrt:cos_pentium4.obj
 0001:000aa3c0       __twoToTOS                 100ab3c0 f   libucrt:common.obj
 0001:000aa3d5       __load_CW                  100ab3d5 f   libucrt:common.obj
 0001:000aa3ec       __convertTOStoQNaN         100ab3ec f   libucrt:common.obj
 0001:000aa405       __fload_withFB             100ab405 f   libucrt:common.obj
 0001:000aa448       __checkTOS_withFB          100ab448 f   libucrt:common.obj
 0001:000aa45e       __fast_exit                100ab45e f   libucrt:common.obj
 0001:000aa46b       __math_exit                100ab46b f   libucrt:common.obj
 0001:000aa495       __check_overflow_exit      100ab495 f   libucrt:common.obj
 0001:000aa4a9       __check_range_exit         100ab4a9 f   libucrt:common.obj
 0001:000aa550       __startTwoArgErrorHandling 100ab550 f   libucrt:genexcep.obj
 0001:000aa567       __startOneArgErrorHandling 100ab567 f   libucrt:genexcep.obj
 0001:000aa5b0       __CIsin_pentium4           100ab5b0 f   libucrt:sin_pentium4.obj
 0001:000aa5c8       __sin_pentium4             100ab5c8     libucrt:sin_pentium4.obj
 0001:000aa780       __87except                 100ab780 f   libucrt:87except.obj
 0001:000aa8c0       __CIsqrt                   100ab8c0 f   libucrt:sqrt_impl.obj
 0001:000aa8d4       __sqrt_common              100ab8d4     libucrt:sqrt_impl.obj
 0001:000aa980       __CIacos_pentium4          100ab980 f   libucrt:acos_pentium4.obj
 0001:000aa998       __acos_pentium4            100ab998     libucrt:acos_pentium4.obj
 0001:000aaee0       __CIlog_pentium4           100abee0 f   libucrt:log_pentium4.obj
 0001:000aaef8       __log_pentium4             100abef8     libucrt:log_pentium4.obj
 0001:000ab170       __fFEXP                    100ac170 f   libucrt:87tran.obj
 0001:000ab1c7       __rtinfpopse               100ac1c7     libucrt:87tran.obj
 0001:000ab1c9       __rtinfnpopse              100ac1c9     libucrt:87tran.obj
 0001:000ab1d9       __fFLN                     100ac1d9     libucrt:87tran.obj
 0001:000ab28e       __rtinfpop                 100ac28e     libucrt:87tran.obj
 0001:000ab290       __rtinfnpop                100ac290     libucrt:87tran.obj
 0001:000ab2a0       __rtforexpinf              100ac2a0 f   libucrt:87tran.obj
 0001:000ab2ad       __ffexpm1                  100ac2ad     libucrt:87tran.obj
 0001:000ab360       __CIpow_pentium4           100ac360 f   libucrt:pow_pentium4.obj
 0001:000ab379       __pow_pentium4             100ac379     libucrt:pow_pentium4.obj
 0001:000abe80       __powhlp                   100ace80 f   libucrt:powhlp.obj
 0001:000ac073       ?__wcsrtombs_utf8@__crt_mbstring@@YAIPADPAPB_WIPAU_Mbstatet@@AAV__crt_cached_ptd_host@@@Z 100ad073 f   libucrt:wcrtomb.obj
 0001:000ac180       _strncpy_s                 100ad180 f   libucrt:strncpy_s.obj
 0001:000ac272       __towlower_l               100ad272 f   libucrt:towlower.obj
 0001:000ac350       _strpbrk                   100ad350 f   libucrt:strpbrk.obj
 0001:000ac390       __mbsdec                   100ad390 f   libucrt:mbsdec.obj
 0001:000ac3a7       __mbsdec_l                 100ad3a7 f   libucrt:mbsdec.obj
 0001:000ac440       __msize_base               100ad440 f   libucrt:msize.obj
 0001:000ac480       __msize                    100ad480 f   libucrt:msize.obj
 0001:000ac5af       __itow_s                   100ad5af f   libucrt:xtoa.obj
 0001:000ac5f0       __controlfp_s              100ad5f0 f   libucrt:contrlfp.obj
 0001:000ac660       _fegetenv                  100ad660 f   libucrt:fegetenv.obj
 0001:000ac680       _fesetenv                  100ad680 f   libucrt:fesetenv.obj
 0001:000ac6e0       _feholdexcept              100ad6e0 f   libucrt:feholdexcept.obj
 0001:000ac740       __libm_sse2_log10_precise  100ad740 f   libucrt:log10_sse2_precise.obj
 0001:000ac9f0       __query_app_type           100ad9f0 f   libucrt:report_runtime_error.obj
 0001:000aca00       ___ascii_strnicmp          100ada00 f   libucrt:_strnicm.obj
 0001:000aca61       __get_fmode                100ada61 f   libucrt:setmode.obj
 0001:000aca8e       __setmode_nolock           100ada8e f   libucrt:setmode.obj
 0001:000acb5f       ??0__crt_seek_guard@@QAE@H_J@Z 100adb5f f i libucrt:chsize.obj
 0001:000acbac       __chsize_nolock            100adbac f   libucrt:chsize.obj
 0001:000acbe3       __chsize_nolock_internal   100adbe3 f   libucrt:chsize.obj
 0001:000acd99       ___dcrt_lowio_ensure_console_output_initialized 100add99 f   libucrt:initcon.obj
 0001:000acdb8       ___dcrt_terminate_console_output 100addb8 f   libucrt:initcon.obj
 0001:000acdcf       ___dcrt_write_console      100addcf f   libucrt:initcon.obj
 0001:000ace30       __fpclass                  100ade30 f   libucrt:ieeemisc.obj
 0001:000acef1       ___acrt_LCMapStringW       100adef1 f   libucrt:lcmapstringw.obj
 0001:000ad000       __clearfp                  100ae000 f   libucrt:ieee87.obj
 0001:000ad120       __control87                100ae120 f   libucrt:ieee87.obj
 0001:000ad5b0       __CIlog10                  100ae5b0 f   libucrt:log10_impl.obj
 0001:000ad5eb       __CIlog10_default          100ae5eb f   libucrt:log10_impl.obj
 0001:000ad5ff       __log10_default            100ae5ff     libucrt:log10_impl.obj
 0001:000ad6c0       ___acrt_initialize_fmode   100ae6c0 f   libucrt:txtmode.obj
 0001:000ad6e0       __CIlog10_pentium4         100ae6e0 f   libucrt:log10_pentium4.obj
 0001:000ad6f8       __log10_pentium4           100ae6f8     libucrt:log10_pentium4.obj
 0001:000ad970       __FindPESection            100ae970 f   LIBCMT:pesect.obj
 0001:000ad9c0       __IsNonwritableInCurrentImage 100ae9c0 f   LIBCMT:pesect.obj
 0001:000ada80       __ValidateImageBase        100aea80 f   LIBCMT:pesect.obj
 0001:000adac0       __aulldvrm                 100aeac0 f   LIBCMT:ulldvrm.obj
 0001:000adb60       __allshl                   100aeb60 f   LIBCMT:llshl.obj
 0001:000adb80       __aullshr                  100aeb80 f   LIBCMT:ullshr.obj
 0001:000adba0       __allrem                   100aeba0 f   LIBCMT:llrem.obj
 0001:000adc52       __filter_x86_sse2_floating_point_exception 100aec52 f   LIBCMT:x86_exception_filter.obj
 0001:000adc52       __filter_x86_sse2_floating_point_exception_default 100aec52 f   LIBCMT:x86_exception_filter.obj
 0002:00000000       __imp__DeleteObject@4      100b1000     gdi32:GDI32.dll
 0002:00000004       __imp__SetBkMode@8         100b1004     gdi32:GDI32.dll
 0002:00000008       __imp__SetTextColor@8      100b1008     gdi32:GDI32.dll
 0002:0000000c       __imp__CreateSolidBrush@4  100b100c     gdi32:GDI32.dll
 0002:00000010       \177GDI32_NULL_THUNK_DATA  100b1010     gdi32:GDI32.dll
 0002:00000014       __imp__ImmReleaseContext@8 100b1014     imm32:IMM32.dll
 0002:00000018       __imp__ImmSetCompositionWindow@8 100b1018     imm32:IMM32.dll
 0002:0000001c       __imp__ImmSetCandidateWindow@8 100b101c     imm32:IMM32.dll
 0002:00000020       __imp__ImmGetContext@4     100b1020     imm32:IMM32.dll
 0002:00000024       \177IMM32_NULL_THUNK_DATA  100b1024     imm32:IMM32.dll
 0002:00000028       __imp__GetOEMCP@0          100b1028     kernel32:KERNEL32.dll
 0002:0000002c       __imp__GetACP@0            100b102c     kernel32:KERNEL32.dll
 0002:00000030       __imp__CreateThread@24     100b1030     kernel32:KERNEL32.dll
 0002:00000034       __imp__GetCurrentThreadId@0 100b1034     kernel32:KERNEL32.dll
 0002:00000038       __imp__DisableThreadLibraryCalls@4 100b1038     kernel32:KERNEL32.dll
 0002:0000003c       __imp__GetCurrentProcess@0 100b103c     kernel32:KERNEL32.dll
 0002:00000040       __imp__ExitProcess@4       100b1040     kernel32:KERNEL32.dll
 0002:00000044       __imp__TerminateProcess@8  100b1044     kernel32:KERNEL32.dll
 0002:00000048       __imp__FreeLibraryAndExitThread@8 100b1048     kernel32:KERNEL32.dll
 0002:0000004c       __imp__GetModuleHandleA@4  100b104c     kernel32:KERNEL32.dll
 0002:00000050       __imp__GetProcAddress@8    100b1050     kernel32:KERNEL32.dll
 0002:00000054       __imp__VirtualQuery@12     100b1054     kernel32:KERNEL32.dll
 0002:00000058       __imp__GetTickCount@0      100b1058     kernel32:KERNEL32.dll
 0002:0000005c       __imp__CloseHandle@4       100b105c     kernel32:KERNEL32.dll
 0002:00000060       __imp__WaitForSingleObject@8 100b1060     kernel32:KERNEL32.dll
 0002:00000064       __imp__LoadLibraryA@4      100b1064     kernel32:KERNEL32.dll
 0002:00000068       __imp__GetLastError@0      100b1068     kernel32:KERNEL32.dll
 0002:0000006c       __imp__SetEvent@4          100b106c     kernel32:KERNEL32.dll
 0002:00000070       __imp__CreateEventA@16     100b1070     kernel32:KERNEL32.dll
 0002:00000074       __imp__GetLocalTime@4      100b1074     kernel32:KERNEL32.dll
 0002:00000078       __imp__SystemTimeToFileTime@8 100b1078     kernel32:KERNEL32.dll
 0002:0000007c       __imp__MultiByteToWideChar@24 100b107c     kernel32:KERNEL32.dll
 0002:00000080       __imp__WideCharToMultiByte@32 100b1080     kernel32:KERNEL32.dll
 0002:00000084       __imp__AllocConsole@0      100b1084     kernel32:KERNEL32.dll
 0002:00000088       __imp__SetConsoleTitleA@4  100b1088     kernel32:KERNEL32.dll
 0002:0000008c       __imp__GetModuleFileNameA@12 100b108c     kernel32:KERNEL32.dll
 0002:00000090       __imp__GlobalAlloc@8       100b1090     kernel32:KERNEL32.dll
 0002:00000094       __imp__GlobalUnlock@4      100b1094     kernel32:KERNEL32.dll
 0002:00000098       __imp__GlobalLock@4        100b1098     kernel32:KERNEL32.dll
 0002:0000009c       __imp__GlobalFree@4        100b109c     kernel32:KERNEL32.dll
 0002:000000a0       __imp__QueryPerformanceCounter@4 100b10a0     kernel32:KERNEL32.dll
 0002:000000a4       __imp__QueryPerformanceFrequency@4 100b10a4     kernel32:KERNEL32.dll
 0002:000000a8       __imp__FreeLibrary@4       100b10a8     kernel32:KERNEL32.dll
 0002:000000ac       __imp__GetLocaleInfoA@16   100b10ac     kernel32:KERNEL32.dll
 0002:000000b0       __imp__HeapCreate@12       100b10b0     kernel32:KERNEL32.dll
 0002:000000b4       __imp__HeapDestroy@4       100b10b4     kernel32:KERNEL32.dll
 0002:000000b8       __imp__HeapAlloc@12        100b10b8     kernel32:KERNEL32.dll
 0002:000000bc       __imp__HeapReAlloc@16      100b10bc     kernel32:KERNEL32.dll
 0002:000000c0       __imp__HeapFree@12         100b10c0     kernel32:KERNEL32.dll
 0002:000000c4       __imp__Sleep@4             100b10c4     kernel32:KERNEL32.dll
 0002:000000c8       __imp__GetCurrentProcessId@0 100b10c8     kernel32:KERNEL32.dll
 0002:000000cc       __imp__OpenThread@12       100b10cc     kernel32:KERNEL32.dll
 0002:000000d0       __imp__SuspendThread@4     100b10d0     kernel32:KERNEL32.dll
 0002:000000d4       __imp__ResumeThread@4      100b10d4     kernel32:KERNEL32.dll
 0002:000000d8       __imp__GetThreadContext@8  100b10d8     kernel32:KERNEL32.dll
 0002:000000dc       __imp__SetThreadContext@8  100b10dc     kernel32:KERNEL32.dll
 0002:000000e0       __imp__FlushInstructionCache@12 100b10e0     kernel32:KERNEL32.dll
 0002:000000e4       __imp__VirtualProtect@16   100b10e4     kernel32:KERNEL32.dll
 0002:000000e8       __imp__GetModuleHandleW@4  100b10e8     kernel32:KERNEL32.dll
 0002:000000ec       __imp__CreateToolhelp32Snapshot@8 100b10ec     kernel32:KERNEL32.dll
 0002:000000f0       __imp__Thread32First@8     100b10f0     kernel32:KERNEL32.dll
 0002:000000f4       __imp__Thread32Next@8      100b10f4     kernel32:KERNEL32.dll
 0002:000000f8       __imp__VirtualAlloc@16     100b10f8     kernel32:KERNEL32.dll
 0002:000000fc       __imp__VirtualFree@12      100b10fc     kernel32:KERNEL32.dll
 0002:00000100       __imp__EnumSystemLocalesW@8 100b1100     kernel32:KERNEL32.dll
 0002:00000104       __imp__GetCommandLineA@0   100b1104     kernel32:KERNEL32.dll
 0002:00000108       __imp__IsValidLocale@8     100b1108     kernel32:KERNEL32.dll
 0002:0000010c       __imp__GetLocaleInfoW@16   100b110c     kernel32:KERNEL32.dll
 0002:00000110       __imp__LCMapStringW@24     100b1110     kernel32:KERNEL32.dll
 0002:00000114       __imp__FlsFree@4           100b1114     kernel32:KERNEL32.dll
 0002:00000118       __imp__FlsSetValue@8       100b1118     kernel32:KERNEL32.dll
 0002:0000011c       __imp__FlsGetValue@4       100b111c     kernel32:KERNEL32.dll
 0002:00000120       __imp__FlsAlloc@4          100b1120     kernel32:KERNEL32.dll
 0002:00000124       __imp__SetFilePointerEx@20 100b1124     kernel32:KERNEL32.dll
 0002:00000128       __imp__GetFileSizeEx@8     100b1128     kernel32:KERNEL32.dll
 0002:0000012c       __imp__GetConsoleMode@8    100b112c     kernel32:KERNEL32.dll
 0002:00000130       __imp__GetConsoleOutputCP@0 100b1130     kernel32:KERNEL32.dll
 0002:00000134       __imp__WriteFile@20        100b1134     kernel32:KERNEL32.dll
 0002:00000138       __imp__FlushFileBuffers@4  100b1138     kernel32:KERNEL32.dll
 0002:0000013c       __imp__GetFileType@4       100b113c     kernel32:KERNEL32.dll
 0002:00000140       __imp__GetStdHandle@4      100b1140     kernel32:KERNEL32.dll
 0002:00000144       __imp__GetModuleFileNameW@12 100b1144     kernel32:KERNEL32.dll
 0002:00000148       __imp__GetModuleHandleExW@12 100b1148     kernel32:KERNEL32.dll
 0002:0000014c       __imp__ReadFile@20         100b114c     kernel32:KERNEL32.dll
 0002:00000150       __imp__LoadLibraryExW@12   100b1150     kernel32:KERNEL32.dll
 0002:00000154       __imp__TlsFree@4           100b1154     kernel32:KERNEL32.dll
 0002:00000158       __imp__TlsSetValue@8       100b1158     kernel32:KERNEL32.dll
 0002:0000015c       __imp__TlsGetValue@4       100b115c     kernel32:KERNEL32.dll
 0002:00000160       __imp__TlsAlloc@0          100b1160     kernel32:KERNEL32.dll
 0002:00000164       __imp__InitializeCriticalSectionAndSpinCount@8 100b1164     kernel32:KERNEL32.dll
 0002:00000168       __imp__SetLastError@4      100b1168     kernel32:KERNEL32.dll
 0002:0000016c       __imp__InterlockedFlushSList@4 100b116c     kernel32:KERNEL32.dll
 0002:00000170       __imp__RaiseException@16   100b1170     kernel32:KERNEL32.dll
 0002:00000174       __imp__RtlUnwind@16        100b1174     kernel32:KERNEL32.dll
 0002:00000178       __imp__InitializeSListHead@4 100b1178     kernel32:KERNEL32.dll
 0002:0000017c       __imp__GetStartupInfoW@4   100b117c     kernel32:KERNEL32.dll
 0002:00000180       __imp__IsDebuggerPresent@0 100b1180     kernel32:KERNEL32.dll
 0002:00000184       __imp__IsProcessorFeaturePresent@4 100b1184     kernel32:KERNEL32.dll
 0002:00000188       __imp__SetUnhandledExceptionFilter@4 100b1188     kernel32:KERNEL32.dll
 0002:0000018c       __imp__UnhandledExceptionFilter@4 100b118c     kernel32:KERNEL32.dll
 0002:00000190       __imp__WakeAllConditionVariable@4 100b1190     kernel32:KERNEL32.dll
 0002:00000194       __imp__GetCPInfo@8         100b1194     kernel32:KERNEL32.dll
 0002:00000198       __imp__ReadConsoleW@20     100b1198     kernel32:KERNEL32.dll
 0002:0000019c       __imp__GetStringTypeW@16   100b119c     kernel32:KERNEL32.dll
 0002:000001a0       __imp__LCMapStringEx@36    100b11a0     kernel32:KERNEL32.dll
 0002:000001a4       __imp__DecodePointer@4     100b11a4     kernel32:KERNEL32.dll
 0002:000001a8       __imp__EncodePointer@4     100b11a8     kernel32:KERNEL32.dll
 0002:000001ac       __imp__DeleteCriticalSection@4 100b11ac     kernel32:KERNEL32.dll
 0002:000001b0       __imp__LeaveCriticalSection@4 100b11b0     kernel32:KERNEL32.dll
 0002:000001b4       __imp__EnterCriticalSection@4 100b11b4     kernel32:KERNEL32.dll
 0002:000001b8       __imp__IsValidCodePage@4   100b11b8     kernel32:KERNEL32.dll
 0002:000001bc       __imp__GetCommandLineW@0   100b11bc     kernel32:KERNEL32.dll
 0002:000001c0       __imp__GetEnvironmentStringsW@0 100b11c0     kernel32:KERNEL32.dll
 0002:000001c4       __imp__FreeEnvironmentStringsW@4 100b11c4     kernel32:KERNEL32.dll
 0002:000001c8       __imp__GetProcessHeap@0    100b11c8     kernel32:KERNEL32.dll
 0002:000001cc       __imp__SetStdHandle@8      100b11cc     kernel32:KERNEL32.dll
 0002:000001d0       __imp__CreateFileW@28      100b11d0     kernel32:KERNEL32.dll
 0002:000001d4       __imp__HeapSize@12         100b11d4     kernel32:KERNEL32.dll
 0002:000001d8       __imp__SetEndOfFile@4      100b11d8     kernel32:KERNEL32.dll
 0002:000001dc       __imp__WriteConsoleW@20    100b11dc     kernel32:KERNEL32.dll
 0002:000001e0       __imp__GetUserDefaultLCID@0 100b11e0     kernel32:KERNEL32.dll
 0002:000001e4       __imp__FindNextFileW@8     100b11e4     kernel32:KERNEL32.dll
 0002:000001e8       __imp__FindFirstFileExW@24 100b11e8     kernel32:KERNEL32.dll
 0002:000001ec       __imp__FindClose@4         100b11ec     kernel32:KERNEL32.dll
 0002:000001f0       __imp__ReleaseSRWLockExclusive@4 100b11f0     kernel32:KERNEL32.dll
 0002:000001f4       __imp__AcquireSRWLockExclusive@4 100b11f4     kernel32:KERNEL32.dll
 0002:000001f8       __imp__TryAcquireSRWLockExclusive@4 100b11f8     kernel32:KERNEL32.dll
 0002:000001fc       __imp__SleepConditionVariableSRW@16 100b11fc     kernel32:KERNEL32.dll
 0002:00000200       __imp__InitOnceBeginInitialize@16 100b1200     kernel32:KERNEL32.dll
 0002:00000200       __imp____std_init_once_begin_initialize@16 100b1200     kernel32:KERNEL32.dll
 0002:00000204       __imp__InitOnceComplete@12 100b1204     kernel32:KERNEL32.dll
 0002:00000204       __imp____std_init_once_complete@12 100b1204     kernel32:KERNEL32.dll
 0002:00000208       __imp__InitializeCriticalSectionEx@12 100b1208     kernel32:KERNEL32.dll
 0002:0000020c       __imp__GetSystemTimeAsFileTime@4 100b120c     kernel32:KERNEL32.dll
 0002:00000210       \177KERNEL32_NULL_THUNK_DATA 100b1210     kernel32:KERNEL32.dll
 0002:00000214       __imp__ScreenToClient@8    100b1214     user32:USER32.dll
 0002:00000218       __imp__ClientToScreen@8    100b1218     user32:USER32.dll
 0002:0000021c       __imp__GetCursorPos@4      100b121c     user32:USER32.dll
 0002:00000220       __imp__SetCursor@4         100b1220     user32:USER32.dll
 0002:00000224       __imp__SetCursorPos@8      100b1224     user32:USER32.dll
 0002:00000228       __imp__GetForegroundWindow@0 100b1228     user32:USER32.dll
 0002:0000022c       __imp__IsWindowUnicode@4   100b122c     user32:USER32.dll
 0002:00000230       __imp__SetCapture@4        100b1230     user32:USER32.dll
 0002:00000234       __imp__GetCapture@0        100b1234     user32:USER32.dll
 0002:00000238       __imp__GetKeyState@4       100b1238     user32:USER32.dll
 0002:0000023c       __imp__GetMessageExtraInfo@0 100b123c     user32:USER32.dll
 0002:00000240       __imp__TrackMouseEvent@4   100b1240     user32:USER32.dll
 0002:00000244       __imp__GetKeyboardLayout@4 100b1244     user32:USER32.dll
 0002:00000248       __imp__EmptyClipboard@0    100b1248     user32:USER32.dll
 0002:0000024c       __imp__GetClipboardData@4  100b124c     user32:USER32.dll
 0002:00000250       __imp__SetClipboardData@8  100b1250     user32:USER32.dll
 0002:00000254       __imp__CloseClipboard@0    100b1254     user32:USER32.dll
 0002:00000258       __imp__OpenClipboard@4     100b1258     user32:USER32.dll
 0002:0000025c       __imp__LoadCursorA@8       100b125c     user32:USER32.dll
 0002:00000260       __imp__InflateRect@12      100b1260     user32:USER32.dll
 0002:00000264       __imp__FillRect@12         100b1264     user32:USER32.dll
 0002:00000268       __imp__GetClientRect@8     100b1268     user32:USER32.dll
 0002:0000026c       __imp__InvalidateRect@12   100b126c     user32:USER32.dll
 0002:00000270       __imp__EndPaint@8          100b1270     user32:USER32.dll
 0002:00000274       __imp__BeginPaint@8        100b1274     user32:USER32.dll
 0002:00000278       __imp__UpdateWindow@4      100b1278     user32:USER32.dll
 0002:0000027c       __imp__DrawTextA@20        100b127c     user32:USER32.dll
 0002:00000280       __imp__KillTimer@8         100b1280     user32:USER32.dll
 0002:00000284       __imp__SetTimer@16         100b1284     user32:USER32.dll
 0002:00000288       __imp__MsgWaitForMultipleObjects@20 100b1288     user32:USER32.dll
 0002:0000028c       __imp__SetLayeredWindowAttributes@16 100b128c     user32:USER32.dll
 0002:00000290       __imp__ShowWindow@8        100b1290     user32:USER32.dll
 0002:00000294       __imp__DestroyWindow@4     100b1294     user32:USER32.dll
 0002:00000298       __imp__CreateWindowExA@48  100b1298     user32:USER32.dll
 0002:0000029c       __imp__RegisterClassExA@4  100b129c     user32:USER32.dll
 0002:000002a0       __imp__PostQuitMessage@4   100b12a0     user32:USER32.dll
 0002:000002a4       __imp__DefWindowProcA@16   100b12a4     user32:USER32.dll
 0002:000002a8       __imp__PostMessageA@16     100b12a8     user32:USER32.dll
 0002:000002ac       __imp__PeekMessageA@20     100b12ac     user32:USER32.dll
 0002:000002b0       __imp__DispatchMessageA@4  100b12b0     user32:USER32.dll
 0002:000002b4       __imp__TranslateMessage@4  100b12b4     user32:USER32.dll
 0002:000002b8       __imp__GetWindowLongA@8    100b12b8     user32:USER32.dll
 0002:000002bc       __imp__GetWindowRect@8     100b12bc     user32:USER32.dll
 0002:000002c0       __imp__RedrawWindow@16     100b12c0     user32:USER32.dll
 0002:000002c4       __imp__GetSystemMetrics@4  100b12c4     user32:USER32.dll
 0002:000002c8       __imp__SetWindowPos@28     100b12c8     user32:USER32.dll
 0002:000002cc       __imp__SetWindowLongA@12   100b12cc     user32:USER32.dll
 0002:000002d0       __imp__IsWindow@4          100b12d0     user32:USER32.dll
 0002:000002d4       __imp__CallWindowProcA@20  100b12d4     user32:USER32.dll
 0002:000002d8       __imp__GetWindowThreadProcessId@8 100b12d8     user32:USER32.dll
 0002:000002dc       __imp__FindWindowA@8       100b12dc     user32:USER32.dll
 0002:000002e0       __imp__GetAsyncKeyState@4  100b12e0     user32:USER32.dll
 0002:000002e4       __imp__ReleaseCapture@0    100b12e4     user32:USER32.dll
 0002:000002e8       \177USER32_NULL_THUNK_DATA 100b12e8     user32:USER32.dll
 0002:000002ec       __imp__GdipFree@4          100b12ec     gdiplus:gdiplus.dll
 0002:000002f0       __imp__GdipDrawImageRectI@24 100b12f0     gdiplus:gdiplus.dll
 0002:000002f4       __imp__GdipSetInterpolationMode@8 100b12f4     gdiplus:gdiplus.dll
 0002:000002f8       __imp__GdipDeleteGraphics@4 100b12f8     gdiplus:gdiplus.dll
 0002:000002fc       __imp__GdipCreateFromHDC@8 100b12fc     gdiplus:gdiplus.dll
 0002:00000300       __imp__GdipBitmapUnlockBits@8 100b1300     gdiplus:gdiplus.dll
 0002:00000304       __imp__GdipBitmapLockBits@20 100b1304     gdiplus:gdiplus.dll
 0002:00000308       __imp__GdipCreateBitmapFromScan0@24 100b1308     gdiplus:gdiplus.dll
 0002:0000030c       __imp__GdipDisposeImage@4  100b130c     gdiplus:gdiplus.dll
 0002:00000310       __imp__GdipCloneImage@8    100b1310     gdiplus:gdiplus.dll
 0002:00000314       __imp__GdiplusShutdown@4   100b1314     gdiplus:gdiplus.dll
 0002:00000318       __imp__GdiplusStartup@12   100b1318     gdiplus:gdiplus.dll
 0002:0000031c       __imp__GdipAlloc@4         100b131c     gdiplus:gdiplus.dll
 0002:00000320       \177gdiplus_NULL_THUNK_DATA 100b1320     gdiplus:gdiplus.dll
 0002:00000324       ___guard_check_icall_fptr  100b1324     LIBCMT:guard_support.obj
 0002:00000328       ___castguard_check_failure_os_handled_fptr 100b1328     LIBCMT:guard_support.obj
 0002:0000032c       ___xc_a                    100b132c     LIBCMT:initializers.obj
 0002:00000398       ___xc_z                    100b1398     LIBCMT:initializers.obj
 0002:000003a4       ___xi_a                    100b13a4     LIBCMT:initializers.obj
 0002:000003ac       ___acrt_stdio_initializer  100b13ac     libucrt:stdio_initializer.obj
 0002:000003b0       ___acrt_tran_sse2_initializer 100b13b0     libucrt:sse2_initializer.obj
 0002:000003b4       ___acrt_timeset_initializer 100b13b4     libucrt:timeset_initializer.obj
 0002:000003b8       ___acrt_multibyte_initializer 100b13b8     libucrt:multibyte_initializer.obj
 0002:000003bc       ___acrt_fmode_initializer  100b13bc     libucrt:fmode_initializer.obj
 0002:000003c0       ___xi_z                    100b13c0     LIBCMT:initializers.obj
 0002:000003c4       ___xl_a                    100b13c4     LIBCMT:tlssup.obj
 0002:000003cc       ___xl_z                    100b13cc     LIBCMT:tlssup.obj
 0002:000003d0       ___xp_a                    100b13d0     LIBCMT:initializers.obj
 0002:000003d4       ___acrt_locale_terminator  100b13d4     libucrt:locale_initializer.obj
 0002:000003d8       ___dcrt_console_output_terminator 100b13d8     libucrt:console_output_initializer.obj
 0002:000003dc       ___acrt_stdio_terminator   100b13dc     libucrt:stdio_initializer.obj
 0002:000003e0       ___xp_z                    100b13e0     LIBCMT:initializers.obj
 0002:000003e4       ___xt_a                    100b13e4     LIBCMT:initializers.obj
 0002:000003e8       ___xt_z                    100b13e8     LIBCMT:initializers.obj
 0002:00000410       ??_C@_0EO@FBOJCLKM@?$FLext_client?$FN?5ExitProcess?5interc@ 100b1410     ext_client.obj
 0002:00000460       ??_C@_0EK@IPGCJIEF@?$FLext_client?$FN?5CPSQuit?3?3OnUpdate?5@ 100b1460     ext_client.obj
 0002:000004ac       ??_C@_0L@BFGLIBKB@SRO_CLIENT@ 100b14ac     ext_client.obj
 0002:000004b8       ??_C@_0HA@CDCNFACK@?$FLext_client?$FN?5PostQuitMessage?5in@ 100b14b8     ext_client.obj
 0002:00000528       ??_C@_0P@ECBNDEOF@sro_client?4exe@ 100b1528     ext_client.obj
 0002:00000538       ??_C@_0CI@PKNNMGLC@?$FLext_client?$FN?5client?5core?5thread@ 100b1538     ext_client.obj
 0002:00000560       ??_C@_0EA@BAPJELFM@?$FLext_client?$FN?5critical?5error?3?5ho@ 100b1560     ext_client.obj
 0002:000005a0       ??_C@_0DD@NFPIDBIC@?$FLext_client?$FN?5hook?5library?5initi@ 100b15a0     ext_client.obj
 0002:000005d4       ??_C@_0DD@EBNDIINA@?$FLext_client?$FN?5warning?3?5some?5hook@ 100b15d4     ext_client.obj
 0002:00000608       ??_C@_0DD@DKEGHKPI@?$FLext_client?$FN?5all?5core?5hooks?5ins@ 100b1608     ext_client.obj
 0002:0000063c       ??_C@_0M@LPAKIOHO@ExitProcess@ 100b163c     ext_client.obj
 0002:00000648       ??_C@_0N@MDJJJHMB@kernel32?4dll@ 100b1648     ext_client.obj
 0002:00000658       ??_C@_0DH@COPPGBMI@?$FLext_client?$FN?5ExitProcess?5detour@ 100b1658     ext_client.obj
 0002:00000690       ??_C@_0DL@GJJJCNMC@?$FLext_client?$FN?5warning?3?5ExitProce@ 100b1690     ext_client.obj
 0002:000006cc       ??_C@_0BA@HKEKMKC@PostQuitMessage@ 100b16cc     ext_client.obj
 0002:000006dc       ??_C@_0L@GMPLCCII@user32?4dll@ 100b16dc     ext_client.obj
 0002:000006e8       ??_C@_0DL@PCKEOFDB@?$FLext_client?$FN?5PostQuitMessage?5de@ 100b16e8     ext_client.obj
 0002:00000724       ??_C@_0DP@CJPKCMPF@?$FLext_client?$FN?5warning?3?5PostQuitM@ 100b1724     ext_client.obj
 0002:00000764       ??_C@_0DL@HGHHBHHC@?$FLext_client?$FN?5CPSQuit?3?3OnUpdate?5@ 100b1764     ext_client.obj
 0002:000007a0       ??_C@_0DP@FLHKDIBD@?$FLext_client?$FN?5warning?3?5CPSQuit?3?3@ 100b17a0     ext_client.obj
 0002:000007e0       ??_C@_0CM@LAEMNJPN@?$FLext_client?$FN?5unload?5requested?5v@ 100b17e0     ext_client.obj
 0002:0000080c       ??_C@_0CK@LDMFMEHG@?$FLext_client?$FN?5initiating?5shutdow@ 100b180c     ext_client.obj
 0002:00000838       ??_C@_0BP@CJHGAKMN@?$FLext_client?$FN?5shutdown?5complete@ 100b1838     ext_client.obj
 0002:00000858       ??_C@_07CIFAGBMG@unknown@  100b1858     shutdown_guard.obj
 0002:00000860       ??_C@_0BM@ONPOHGJG@?$FLshutdown_guard?$FN?5armed?5?$CI?$CFs?$CJ@ 100b1860     shutdown_guard.obj
 0002:00000880       ??_C@_0EE@HMODCMLO@?$FLshutdown_guard?$FN?5forcing?5proces@ 100b1880     shutdown_guard.obj
 0002:000008c8       ??_7exception@std@@6B@     100b18c8     d3d_hook.obj
 0002:000008d0       ??_C@_0BC@EOODALEL@Unknown?5exception@ 100b18d0     d3d_hook.obj
 0002:000008e8       ??_7bad_alloc@std@@6B@     100b18e8     d3d_hook.obj
 0002:000008f4       ??_7bad_array_new_length@std@@6B@ 100b18f4     d3d_hook.obj
 0002:000008fc       ??_C@_0BF@KINCDENJ@bad?5array?5new?5length@ 100b18fc     d3d_hook.obj
 0002:00000914       ??_C@_0CL@BEPAKNLF@?$FLd3d_hook?$FN?5imgui?5ready?5?$CIdevice?$DN@ 100b1914     d3d_hook.obj
 0002:00000940       ??_C@_0CH@MBFNNHNG@?$FLd3d_hook?$FN?5rebound?5imgui?5hwnd?5?$CF@ 100b1940     d3d_hook.obj
 0002:00000968       ??_C@_0N@FHFBIKKI@window_close@ 100b1968     d3d_hook.obj
 0002:00000978       ??_C@_0EC@OPCGEJEM@?$FLd3d_hook?$FN?5Reset?3?5Forcing?5tripl@ 100b1978     d3d_hook.obj
 0002:000009bc       ??_C@_0DP@BOJOGMCL@?$FLd3d_hook?$FN?5Reset?3?5Forcing?5D3DPR@ 100b19bc     d3d_hook.obj
 0002:000009fc       ??_C@_0DH@CHCGOPN@?$FLd3d_hook?$FN?5Direct3DCreate9?5inte@ 100b19fc     d3d_hook.obj
 0002:00000a38       ??_C@_0EH@BEGENIOO@?$FLd3d_hook?$FN?5CreateDevice?3?5Adapte@ 100b1a38     d3d_hook.obj
 0002:00000a80       ??_C@_0DL@BAMIBAED@?$FLd3d_hook?$FN?5GPU?5supports?5Hardwar@ 100b1a80     d3d_hook.obj
 0002:00000abc       ??_C@_0DK@CLNICAFG@?$FLd3d_hook?$FN?5GPU?5supports?5Pure?5De@ 100b1abc     d3d_hook.obj
 0002:00000af8       ??_C@_0DL@HHPJCKKO@?$FLd3d_hook?$FN?5Pure?5Device?5requeste@ 100b1af8     d3d_hook.obj
 0002:00000b38       ??_C@_0EI@MLBMCOML@?$FLd3d_hook?$FN?5GPU?5does?5not?5support@ 100b1b38     d3d_hook.obj
 0002:00000b80       ??_C@_0DA@KAMICMEH@?$FLd3d_hook?$FN?5Failed?5to?5query?5devi@ 100b1b80     d3d_hook.obj
 0002:00000bb0       ??_C@_0DL@KFNKJGMC@?$FLd3d_hook?$FN?5Forcing?5triple?5buffe@ 100b1bb0     d3d_hook.obj
 0002:00000bec       ??_C@_0DI@KEFOPEJ@?$FLd3d_hook?$FN?5Forcing?5D3DPRESENTFL@ 100b1bec     d3d_hook.obj
 0002:00000c24       ??_C@_0CM@GPDIHBPP@?$FLd3d_hook?$FN?5Device?5successfully?5@ 100b1c24     d3d_hook.obj
 0002:00000c50       ??_C@_0CL@FMKGNBNO@?$FLd3d_hook?$FN?5CreateDevice?5failed?5@ 100b1c50     d3d_hook.obj
 0002:00000c7c       ??_C@_0N@JIIFLKLP@CreateDevice@ 100b1c7c     d3d_hook.obj
 0002:00000c8c       ??_C@_08JOJPFIBL@d3d_hook@ 100b1c8c     d3d_hook.obj
 0002:00000c98       ??_C@_0CI@LMHHCPBL@?$FLd3d_hook?$FN?5hooked?5CreateDevice?5@ 100b1c98     d3d_hook.obj
 0002:00000cc0       ??_C@_08DFNIHOFL@EndScene@ 100b1cc0     d3d_hook.obj
 0002:00000ccc       ??_C@_05CCGMLFNG@Reset@    100b1ccc     d3d_hook.obj
 0002:00000cd4       ??_C@_0DH@JNHNMDJC@?$FLd3d_hook?$FN?5hooked?5EndScene?5?$EA?50x@ 100b1cd4     d3d_hook.obj
 0002:00000d0c       ??_C@_08NIHLGCK@d3d9?4dll@ 100b1d0c     d3d_hook.obj
 0002:00000d18       ??_C@_0BA@FAFMMBOF@Direct3DCreate9@ 100b1d18     d3d_hook.obj
 0002:00000d28       ??_C@_0CL@HBGKHBEE@?$FLd3d_hook?$FN?5hooked?5Direct3DCreat@ 100b1d28     d3d_hook.obj
 0002:00000d58       ??_C@_0EM@BBHMLBFD@?$FLd3d_hook?$FN?5active?5device?5alread@ 100b1d58     d3d_hook.obj
 0002:00000da4       ??_C@_0BE@BHBDNPPP@?$FLd3d_hook?$FN?5unhooked@ 100b1da4     d3d_hook.obj
 0002:00000db8       ??_C@_0BE@JGGNDKDA@?$FL?$CFs?$FN?5?$CFs?5hook?5failed@ 100b1db8     d3d_hook.obj
 0002:00000dd0       ??_7?$_Func_impl_no_alloc@V<lambda_8019bdfe0512b4fe063b74018eb77c39>@@X$$V@std@@6B@ 100b1dd0     d3d_hook.obj
 0002:00000dec       ??_7?$_Func_impl_no_alloc@V<lambda_ee8dfbd253b68aa19b43fb36ec206597>@@X$$V@std@@6B@ 100b1dec     d3d_hook.obj
 0002:00000e08       ??_7?$_Func_impl_no_alloc@V<lambda_b04c464536f8b168a4c9ecd89205d2d2>@@X$$V@std@@6B@ 100b1e08     d3d_hook.obj
 0002:00000e24       ??_7?$_Func_impl_no_alloc@V<lambda_59909544974d3be07ecadbe172069b22>@@X$$V@std@@6B@ 100b1e24     d3d_hook.obj
 0002:00000e3c       ??_C@_0BA@FOIKENOD@vector?5too?5long@ 100b1e3c     d3d_hook.obj
 0002:00000e4c       ??_C@_0DG@BJMAAHKN@?$FLhook_manager?$FN?5ERROR?3?5version_c@ 100b1e4c     hook_manager.obj
 0002:00000e84       ??_C@_0CO@GONBBLID@?$FLhook_manager?$FN?5ERROR?3?5title?5fai@ 100b1e84     hook_manager.obj
 0002:00000eb4       ??_C@_0CP@MCJFCMFJ@?$FLhook_manager?$FN?5ERROR?3?5packet?5fa@ 100b1eb4     hook_manager.obj
 0002:00000ee4       ??_C@_0DH@DALEPKED@?$FLhook_manager?$FN?5ERROR?3?5interface@ 100b1ee4     hook_manager.obj
 0002:00000f1c       ??_C@_0DJ@KKEMDAEF@?$FLhook_manager?$FN?5ERROR?3?5character@ 100b1f1c     hook_manager.obj
 0002:00000f58       ??_C@_0DE@NFFNHCL@?$FLhook_manager?$FN?5ERROR?3?5welcome_m@ 100b1f58     hook_manager.obj
 0002:00000f8c       ??_C@_0DE@EEMACHE@?$FLhook_manager?$FN?5ERROR?3?5sight_ran@ 100b1f8c     hook_manager.obj
 0002:00000fc0       ??_C@_0CO@JCBDIFLE@?$FLhook_manager?$FN?5ERROR?3?5intro?5fai@ 100b1fc0     hook_manager.obj
 0002:00000ff0       ??_C@_0CO@LLOKKHCC@?$FLhook_manager?$FN?5ERROR?3?5quest?5fai@ 100b1ff0     hook_manager.obj
 0002:00001020       ??_C@_0DC@FDKMJPHF@?$FLhook_manager?$FN?5ERROR?3?5assertion@ 100b2020     hook_manager.obj
 0002:00001054       ??_C@_0CJ@IDFDGFBJ@interface?2loading?2start_loading@ 100b2054     version_check_hook.obj
 0002:00001084       ??_7Image@Gdiplus@@6B@     100b2084     version_check_hook.obj
 0002:00001090       ??_7Bitmap@Gdiplus@@6B@    100b2090     version_check_hook.obj
 0002:00001098       ??_C@_0BM@EHPGHCMG@?$FLversion_check?$FN?5instance?$DN?$CFp@ 100b2098     version_check_hook.obj
 0002:000010b4       ??_C@_0CJ@OBIGCMPP@?$FLversion_check?$FN?5gateway?5connect@ 100b20b4     version_check_hook.obj
 0002:000010e0       ??_C@_0CG@LPOCBEJK@?$FLversion_check?$FN?5gateway?5connect@ 100b20e0     version_check_hook.obj
 0002:00001108       ??_C@_0DB@KJBNCGDN@?$FLversion_check?$FN?5child?5?$CD?$CFd?5?$DN?5?$CFp?0@ 100b2108     version_check_hook.obj
 0002:00001140       ??_C@_0EG@BJPCCOKJ@?$FLversion_check?$FN?5find_loading_ba@ 100b2140     version_check_hook.obj
 0002:00001188       ??_C@_0EI@LFBNJCBD@?$FLversion_check?$FN?5find_loading_ba@ 100b2188     version_check_hook.obj
 0002:000011d0       ??_C@_0DM@HHGLKFKE@?$FLversion_check?$FN?5find_loading_ba@ 100b21d0     version_check_hook.obj
 0002:0000120c       __GUID_85c31227_3de5_4f00_9b3a_f11ac38c18b5 100b220c     version_check_hook.obj
 0002:00001220       ??_C@_0EE@PMABMLNL@?$FLversion_check?$FN?5found?5D3D?5textu@ 100b2220     version_check_hook.obj
 0002:00001264       ??_C@_0N@KIAFNDB@?$DMunreadable?$DO@ 100b2264     version_check_hook.obj
 0002:00001278       ??_C@_0EM@MCGLGJON@?$FLversion_check?$FN?5convert?5failed?3@ 100b2278     version_check_hook.obj
 0002:000012c4       ??_C@_0N@MKIDEJOI@d3dx9_43?4dll@ 100b22c4     version_check_hook.obj
 0002:000012d4       ??_C@_0N@BNPJKEN@d3dx9_42?4dll@ 100b22d4     version_check_hook.obj
 0002:000012e4       ??_C@_0N@IHELOIOD@d3dx9_41?4dll@ 100b22e4     version_check_hook.obj
 0002:000012f4       ??_C@_0N@EMBHDLEG@d3dx9_40?4dll@ 100b22f4     version_check_hook.obj
 0002:00001304       ??_C@_0N@KOLPFEAA@d3dx9_39?4dll@ 100b2304     version_check_hook.obj
 0002:00001314       ??_C@_0N@GFODIHKF@d3dx9_38?4dll@ 100b2314     version_check_hook.obj
 0002:00001324       ??_C@_0N@JELFDFHA@d3dx9_37?4dll@ 100b2324     version_check_hook.obj
 0002:00001334       ??_C@_0N@FPOJOGNF@d3dx9_36?4dll@ 100b2334     version_check_hook.obj
 0002:00001344       ??_C@_0N@NJHNJEHL@d3dx9_35?4dll@ 100b2344     version_check_hook.obj
 0002:00001354       ??_C@_0N@BCCBEHNO@d3dx9_34?4dll@ 100b2354     version_check_hook.obj
 0002:00001364       ??_C@_0N@PCEHHGG@d3dx9_33?4dll@ 100b2364     version_check_hook.obj
 0002:00001374       ??_C@_0N@MEHIKEMD@d3dx9_32?4dll@ 100b2374     version_check_hook.obj
 0002:00001384       ??_C@_0N@ECOMNGGN@d3dx9_31?4dll@ 100b2384     version_check_hook.obj
 0002:00001394       ??_C@_0N@IJLAAFMI@d3dx9_30?4dll@ 100b2394     version_check_hook.obj
 0002:000013a4       ??_C@_0N@IMIFPLE@d3dx9_29?4dll@ 100b23a4     version_check_hook.obj
 0002:000013b4       ??_C@_0N@MDJEIMBB@d3dx9_28?4dll@ 100b23b4     version_check_hook.obj
 0002:000013c4       ??_C@_0N@DCMCDOME@d3dx9_27?4dll@ 100b23c4     version_check_hook.obj
 0002:000013d4       ??_C@_0N@PJJOONGB@d3dx9_26?4dll@ 100b23d4     version_check_hook.obj
 0002:000013e4       ??_C@_0N@HPAKJPMP@d3dx9_25?4dll@ 100b23e4     version_check_hook.obj
 0002:000013f4       ??_C@_0N@LEFGEMGK@d3dx9_24?4dll@ 100b23f4     version_check_hook.obj
 0002:00001404       ??_C@_0BL@DOKAHNDD@D3DXLoadSurfaceFromSurface@ 100b2404     version_check_hook.obj
 0002:00001420       ??_C@_0DE@FDNGMGFC@?$FLversion_check?$FN?5using?5?$CFs?$CBD3DXLo@ 100b2420     version_check_hook.obj
 0002:00001454       ??_C@_04FKMICODN@show@     100b2454     version_check_hook.obj
 0002:00001460       ??_C@_0GH@BHAFNOJM@?$FLversion_check?$FN?5?$CFs?5preloaded?5lo@ 100b2460     version_check_hook.obj
 0002:000014c8       ??_C@_0DB@LJMBFEPP@?$FLversion_check?$FN?5failed?5to?5set?5l@ 100b24c8     version_check_hook.obj
 0002:000014fc       ??_C@_03KCHOJKKI@set@      100b24fc     version_check_hook.obj
 0002:00001500       ??_C@_0FK@PLOBFOIJ@?$FLversion_check?$FN?5?$CFs?5loading?5bann@ 100b2500     version_check_hook.obj
 0002:00001560       ??_C@_0GC@BIBIOHNK@?$FLversion_check?$FN?5?$CFs?5loading?5bann@ 100b2560     version_check_hook.obj
 0002:000015c4       ??_C@_0DD@PAODNOIO@?$FLversion_check?$FN?5cycle?5initializ@ 100b25c4     version_check_hook.obj
 0002:000015f8       ??_C@_0EF@IOMDCJHJ@?$FLversion_check?$FN?5cycle?5trigger?3?5@ 100b25f8     version_check_hook.obj
 0002:00001640       ??_C@_06BEAPMILO@cycled@   100b2640     version_check_hook.obj
 0002:00001648       ??_C@_0GC@MCOKEHKO@?$FLversion_check?$FN?5preloaded?5loadi@ 100b2648     version_check_hook.obj
 0002:000016b0       ??_C@_0FJ@PGCLFLFH@?$FLversion_check?$FN?5preloaded?5?$CFd?5lo@ 100b26b0     version_check_hook.obj
 0002:0000170c       ??_C@_0DH@LMHEMNNN@?$FLversion_check?$FN?5failed?5to?5start@ 100b270c     version_check_hook.obj
 0002:00001748       ??_C@_0EA@JEFNOLD@?$FLversion_check?$FN?5Restoring?5origi@ 100b2748     version_check_hook.obj
 0002:00001788       ??_C@_0CK@IGKDGCHE@?$FLversion_check?$FN?5OnCreate?$CIself?$DN?$CF@ 100b2788     version_check_hook.obj
 0002:000017b8       ??_C@_0GB@HKKFGOLP@?$FLversion_check?$FN?5OnCreate?5origin@ 100b27b8     version_check_hook.obj
 0002:0000181c       ??_C@_0O@CHLPGLGD@initial?5cycle@ 100b281c     version_check_hook.obj
 0002:0000182c       ??_C@_07GLCKIJBG@initial@  100b282c     version_check_hook.obj
 0002:00001838       ??_C@_0FP@FMBLCIFG@?$FLversion_check?$FN?5Recreating?5wind@ 100b2838     version_check_hook.obj
 0002:00001898       ??_C@_0FA@DKNIMIHG@?$FLversion_check?$FN?5Resetting?5D3D?5v@ 100b2898     version_check_hook.obj
 0002:000018e8       ??_C@_0EC@GJKNNCBO@?$FLversion_check?$FN?5customizing?5loa@ 100b28e8     version_check_hook.obj
 0002:0000192c       ??_C@_0DH@FLLIMNCO@?$FLversion_check?$FN?5on_update_detou@ 100b292c     version_check_hook.obj
 0002:00001964       ??_C@_0CI@ONPMMECB@?$FLversion_check?$FN?5OnMsgRecv?5opcod@ 100b2964     version_check_hook.obj
 0002:0000198c       ??_C@_0CK@BOFPALKM@?$FLversion_check?$FN?5forcing?5version@ 100b298c     version_check_hook.obj
 0002:000019b8       ??_C@_0DN@PGFPNMBH@?$FLversion_check?$FN?5blocked?5SetChil@ 100b29b8     version_check_hook.obj
 0002:000019f8       ??_C@_0DJ@DGMPOEPC@?$FLcps_title?$FN?5blocked?5SetChildPro@ 100b29f8     version_check_hook.obj
 0002:00001a38       ??_C@_0GI@FGAHIHAD@?$FLversion_check?$FN?5SetChildProcess@ 100b2a38     version_check_hook.obj
 0002:00001aa0       ??_C@_0CN@JLOGKIBK@?$FLversion_check?$FN?5skipped?5CPS_Loa@ 100b2aa0     version_check_hook.obj
 0002:00001ad0       ??_C@_0BA@GNPOGNAI@create_instance@ 100b2ad0     version_check_hook.obj
 0002:00001ae0       ??_C@_0O@NJBCPHFL@version_check@ 100b2ae0     version_check_hook.obj
 0002:00001af0       ??_C@_0BA@PKCIOFBG@connect_gateway@ 100b2af0     version_check_hook.obj
 0002:00001b00       ??_C@_09EBLALOKP@on_create@ 100b2b00     version_check_hook.obj
 0002:00001b0c       ??_C@_09DFBGJPOA@on_update@ 100b2b0c     version_check_hook.obj
 0002:00001b18       ??_C@_0M@BEHFINEM@on_msg_recv@ 100b2b18     version_check_hook.obj
 0002:00001b24       ??_C@_0BC@HNFDNKKM@set_child_process@ 100b2b24     version_check_hook.obj
 0002:00001b38       ??_C@_0O@EMLJFD@load_textdata@ 100b2b38     version_check_hook.obj
 0002:00001b48       ??_C@_0CA@IEEENCNI@?$FLversion_check?$FN?5hooks?5installed@ 100b2b48     version_check_hook.obj
 0002:00001b68       ??_C@_0BO@KGBPIHPD@?$FLversion_check?$FN?5hooks?5removed@ 100b2b68     version_check_hook.obj
 0002:00001b88       ??_C@_0DE@IENHPFEF@?$FLversion_check?$FN?5tick?3?5cycling?5b@ 100b2b88     version_check_hook.obj
 0002:00001bc0       ??_7?$_Func_impl_no_alloc@V<lambda_2b4e874bcc56da08e0b7e4d871685d0b>@@X$$V@std@@6B@ 100b2bc0     version_check_hook.obj
 0002:00001bdc       ??_7?$_Func_impl_no_alloc@V<lambda_31d96936e7aec46c316efa19b922f190>@@X$$V@std@@6B@ 100b2bdc     version_check_hook.obj
 0002:00001bf8       ??_7?$_Func_impl_no_alloc@V<lambda_9c931b08981ab1c8b2118511c7bdace0>@@X$$V@std@@6B@ 100b2bf8     version_check_hook.obj
 0002:00001c14       ??_7?$_Func_impl_no_alloc@V<lambda_dcdab12d9be94e416b0298cb70ec5c72>@@X$$V@std@@6B@ 100b2c14     version_check_hook.obj
 0002:00001c30       ??_7?$_Func_impl_no_alloc@V<lambda_0753aca32cbf0d54a6a3e7c426e16cb4>@@X$$V@std@@6B@ 100b2c30     version_check_hook.obj
 0002:00001c4c       ??_7?$_Func_impl_no_alloc@V<lambda_19ea2bfdb895bb65b013e89caf4128fb>@@X$$V@std@@6B@ 100b2c4c     version_check_hook.obj
 0002:00001c70       __xmm@00000300000004000000000000000000 100b2c70     version_check_hook.obj
 0002:00001ca4       ??_C@_0BE@EIPBGNHP@Loading?5splash?5?$CF02d@ 100b2ca4     loading_splash_overlay.obj
 0002:00001cb8       ??_C@_00CNPNBAHC@@         100b2cb8     loading_splash_overlay.obj
 0002:00001cbc       ??_C@_0CP@FGFEPHNG@?$FLversion_check?$FN?5overlay?5create?5@ 100b2cbc     loading_splash_overlay.obj
 0002:00001cf0       ??_C@_0FM@DGDJBOMD@?$FLversion_check?$FN?5overlay?5started@ 100b2cf0     loading_splash_overlay.obj
 0002:00001d4c       ??_C@_0CA@HHGJMKCP@?$FLversion_check?$FN?5overlay?5stopped@ 100b2d4c     loading_splash_overlay.obj
 0002:00001e3c       ??_C@_0DA@JCGIOLCO@?$FLtitle_hook?$FN?5OnCreate?5skipped?5?$CI@ 100b2e3c     title_hook.obj
 0002:00001e6c       ??_C@_0CF@POEOBDLK@?$FLtitle_hook?$FN?5OnMsgRecv?5opcode?$DN0@ 100b2e6c     title_hook.obj
 0002:00001e94       ??_C@_0CJ@MDNCACMA@?$FLtitle_hook?$FN?5blocked?5login?5pack@ 100b2e94     title_hook.obj
 0002:00001ec0       ??_C@_0EI@JLAPNKMO@?$FLtitle_hook?$FN?5auth?5notify?5receiv@ 100b2ec0     title_hook.obj
 0002:00001f08       ??_C@_0DB@KHHJKOJG@?$FLtitle_hook?$FN?5updating?5selected?5@ 100b2f08     title_hook.obj
 0002:00001f3c       ??_C@_1BK@OMJGCNON@?$AAD?$AAa?$AAt?$AAa?$AA?5?$AAV?$AAe?$AAr?$AAs?$AAi?$AAo?$AAn@ 100b2f3c     title_hook.obj
 0002:00001f58       ??_C@_1BI@DCCKJGHO@?$AAE?$AAx?$AAe?$AA?5?$AAV?$AAe?$AAr?$AAs?$AAi?$AAo?$AAn@ 100b2f58     title_hook.obj
 0002:00001f70       ??_C@_1BA@LIACFDLB@?$AAV?$AAe?$AAr?$AAs?$AAi?$AAo?$AAn@ 100b2f70     title_hook.obj
 0002:00001f80       ??_C@_19NBIDBHK@?$AAB?$AAe?$AAt?$AAa@ 100b2f80     title_hook.obj
 0002:00001f8c       ??_C@_17EKDACLFK@?$AA?$CF?$AAl?$AAf@ 100b2f8c     title_hook.obj
 0002:00001f94       ??_C@_0CG@GOLNABKA@?$FLtitle_hook?$FN?5discovered?5data?5la@ 100b2f94     title_hook.obj
 0002:00001fbc       ??_C@_0DC@OCEFFKDN@?$FLtitle_hook?$FN?5discovered?5exe?5lab@ 100b2fbc     title_hook.obj
 0002:00001ff0       ??_C@_0EJ@MBNHALKK@?$FLtitle_hook?$FN?5login?5layout?5descr@ 100b2ff0     title_hook.obj
 0002:0000203c       ??_C@_0CC@KPPBDKAE@?$FLtitle_hook?$FN?5login?5frame?5?$CFs?5?9?$DO?5@ 100b303c     title_hook.obj
 0002:00002060       ??_C@_0M@KJOAIHMC@list_button@ 100b3060     title_hook.obj
 0002:0000206c       ??_C@_0DE@PLGPAEOD@?$FLtitle_hook?$FN?5channel?5list?5butto@ 100b306c     title_hook.obj
 0002:000020a0       ??_C@_0DB@DAJKMPAA@?$FLtitle_hook?$FN?5hid?5channel?5list?5b@ 100b30a0     title_hook.obj
 0002:000020d4       ??_C@_0N@JHNBBAOB@logo?9big?4ddj@ 100b30d4     title_hook.obj
 0002:000020e4       ??_C@_08HKAPFPC@logo?4ddj@ 100b30e4     title_hook.obj
 0002:000020f0       ??_C@_0BK@GMFCJHGD@?$FLtitle_hook?$FN?5auto?5DoLogin@ 100b30f0     title_hook.obj
 0002:0000210c       ??_C@_0DB@HENJEPIG@?$FLtitle_hook?$FN?5hook?9free?5title?5UI@ 100b310c     title_hook.obj
 0002:00002140       ??_C@_0L@PGKJFLDN@title_hook@ 100b3140     title_hook.obj
 0002:0000214c       ??_C@_0BN@DJOMPDEN@?$FLtitle_hook?$FN?5hooks?5installed@ 100b314c     title_hook.obj
 0002:0000216c       ??_C@_0BL@KPLLDOKO@?$FLtitle_hook?$FN?5hooks?5removed@ 100b316c     title_hook.obj
 0002:0000218c       ??_7?$_Func_impl_no_alloc@V<lambda_919ba523871a6660731b860850c24c35>@@X$$V@std@@6B@ 100b318c     title_hook.obj
 0002:000021a8       ??_7?$_Func_impl_no_alloc@V<lambda_faf072030710147a91b256853ea97040>@@X$$V@std@@6B@ 100b31a8     title_hook.obj
 0002:000021c0       __real@3ff0000000000000    100b31c0     title_hook.obj
 0002:000021c8       ??_C@_0M@OBHDHPIP@GDR_STATIC1@ 100b31c8     title_login_layout.obj
 0002:000021d4       ??_C@_0M@PKIHFJKG@GDR_EDIT_ID@ 100b31d4     title_login_layout.obj
 0002:000021e0       ??_C@_0M@MKFOCMEM@GDR_STATIC2@ 100b31e0     title_login_layout.obj
 0002:000021ec       ??_C@_0O@EPKIJDAH@GDR_EDIT_PASS@ 100b31ec     title_login_layout.obj
 0002:000021fc       ??_C@_0M@NDEFBNAN@GDR_STATIC3@ 100b31fc     title_login_layout.obj
 0002:00002208       ??_C@_0P@NHHAIDG@GDR_STA_SERVER@ 100b3208     title_login_layout.obj
 0002:00002218       ??_C@_0P@LNLGNMOM@GDR_BTN_SERVER@ 100b3218     title_login_layout.obj
 0002:00002228       ??_C@_0M@JMAEILMK@GDR_STATIC4@ 100b3228     title_login_layout.obj
 0002:00002234       ??_C@_0BA@JFKNCMPB@GDR_STA_CHANNEL@ 100b3234     title_login_layout.obj
 0002:00002244       ??_C@_0BA@PDBLNGOP@GDR_BTN_CHANNEL@ 100b3244     title_login_layout.obj
 0002:00002254       ??_C@_0BH@DKDPODGM@GDR_STA_CHANNELMESSAGE@ 100b3254     title_login_layout.obj
 0002:00002270       __xmm@0000000000000000000000000000002e 100b3270     title_login_layout.obj
 0002:00002280       __xmm@00000000000000000000000000000065 100b3280     title_login_layout.obj
 0002:00002290       __xmm@00000000000000000000000000000066 100b3290     title_login_layout.obj
 0002:000022a0       __xmm@00000000000000000000000000000067 100b32a0     title_login_layout.obj
 0002:000022b0       __xmm@00000000000000000000000000000068 100b32b0     title_login_layout.obj
 0002:000022f0       ??_C@_0DP@EKDIGMGL@?$FLchar_select_hook?$FN?5cached?5slot?5@ 100b32f0     character_select_hook.obj
 0002:00002330       ??_C@_0EK@MNNDCMBN@?$FLchar_select_hook?$FN?5playing?5char@ 100b3330     character_select_hook.obj
 0002:0000237c       ??_C@_0O@CHKGLAIG@call?5returned@ 100b337c     character_select_hook.obj
 0002:0000238c       ??_C@_0N@LKFEHKON@call?5skipped@ 100b338c     character_select_hook.obj
 0002:0000239c       ??_C@_0DD@HBAMCGEK@?$FLchar_select_hook?$FN?5char?9select?5@ 100b339c     character_select_hook.obj
 0002:000023d0       ??_C@_0GF@FEIPACFC@?$FLchar_select_hook?$FN?5play_greetin@ 100b33d0     character_select_hook.obj
 0002:00002438       ??_C@_0DN@HKMNEPBI@?$FLchar_select_hook?$FN?5update_last_@ 100b3438     character_select_hook.obj
 0002:00002478       ??_C@_0CM@EJFEDNHI@?$FLchar_select_hook?$FN?5selected_slo@ 100b3478     character_select_hook.obj
 0002:000024a4       ??_C@_0CJ@JMKHAKLL@?$FLchar_select_hook?$FN?5character_at@ 100b34a4     character_select_hook.obj
 0002:000024d0       ??_C@_0DN@HPCFHDBK@?$FLchar_select_hook?$FN?5packed_time?5@ 100b34d0     character_select_hook.obj
 0002:00002510       ??_C@_0EC@MIOBJLCB@?$FLchar_select_hook?$FN?5packed_time?5@ 100b3510     character_select_hook.obj
 0002:00002558       ??_C@_0GA@HPLEFNLC@?$FLchar_select_hook?$FN?5Failed?5to?5co@ 100b3558     character_select_hook.obj
 0002:000025b8       ??_C@_0EI@LIDCEGLH@?$FLchar_select_hook?$FN?5Elapsed?5pars@ 100b35b8     character_select_hook.obj
 0002:00002600       ??_C@_1FI@JDCPAPFJ@?$AAL?$AAa?$AAs?$AAt?$AA?5?$AAl?$AAo?$AAg?$AAo?$AAu?$AAt?$AA?5?$AA?3?$AA?5?$AA?$CF@ 100b3600     character_select_hook.obj
 0002:00002658       ??_C@_1CK@JBPILDKB@?$AAU?$AAI?$AAI?$AAT?$AA_?$AAS?$AAT?$AAT?$AA_?$AAL?$AAA?$AAS?$AAT?$AA_?$AAL@ 100b3658     character_select_hook.obj
 0002:00002684       ??_C@_0DA@OGAPIEFI@?$FLchar_select_hook?$FN?5Format?5strin@ 100b3684     character_select_hook.obj
 0002:000026b4       ??_C@_0CJ@HIFCEGNE@?$FLchar_select_hook?$FN?5Formatted?5bu@ 100b36b4     character_select_hook.obj
 0002:000026e0       ??_C@_0CN@BLAPIGFO@?$FLchar_select_hook?$FN?5label?5widget@ 100b36e0     character_select_hook.obj
 0002:00002710       ??_C@_0CM@PCNCDDL@?$FLchar_select_hook?$FN?5set_text?5cal@ 100b3710     character_select_hook.obj
 0002:0000273c       ??_C@_0CM@OJJINCCN@?$FLchar_select_hook?$FN?5set_anim?5cal@ 100b373c     character_select_hook.obj
 0002:00002768       ??_C@_0FB@EDGDCGAF@?$FLchar_select_hook?$FN?5on_update_de@ 100b3768     character_select_hook.obj
 0002:000027c0       ??_C@_0HA@GANMHDJA@?$FLchar_select_hook?$FN?5greeting?5ski@ 100b37c0     character_select_hook.obj
 0002:00002830       ??_C@_0DI@IIPBAGBG@?$FLchar_select_hook?$FN?5on_enter_msg@ 100b3830     character_select_hook.obj
 0002:00002868       ??_C@_0DL@IFNFMHJN@?$FLchar_select_hook?$FN?5on_slot_chan@ 100b3868     character_select_hook.obj
 0002:000028a4       ??_C@_0CC@LIEDJHGG@?$FLchar_select_hook?$FN?5install?5call@ 100b38a4     character_select_hook.obj
 0002:000028c8       ??_C@_0N@OIDILJKP@on_enter_msg@ 100b38c8     character_select_hook.obj
 0002:000028d8       ??_C@_0M@IJMGJFML@char_select@ 100b38d8     character_select_hook.obj
 0002:000028e4       ??_C@_0P@CLNJHOPL@on_slot_change@ 100b38e4     character_select_hook.obj
 0002:000028f4       ??_C@_0CN@DBOCMKLI@?$FLchar_select_hook?$FN?5hook?5install@ 100b38f4     character_select_hook.obj
 0002:00002924       ??_C@_0DA@OMAAJFMM@?$FLchar_select_hook?$FN?5hooks?5succes@ 100b3924     character_select_hook.obj
 0002:00002954       ??_C@_0CB@IMDNONA@?$FLchar_select_hook?$FN?5hooks?5remove@ 100b3954     character_select_hook.obj
 0002:0000297c       ??_7?$_Func_impl_no_alloc@V<lambda_a9ab3610afa722316d9e4be261787542>@@X$$V@std@@6B@ 100b397c     character_select_hook.obj
 0002:00002998       ??_7?$_Func_impl_no_alloc@V<lambda_8392ef37813845485c1600dec211f7dd>@@X$$V@std@@6B@ 100b3998     character_select_hook.obj
 0002:000029b4       ??_7?$_Func_impl_no_alloc@V<lambda_d5387bcdc0c40a1de130e5b4a363145c>@@X$$V@std@@6B@ 100b39b4     character_select_hook.obj
 0002:000029d0       ??_7?$_Func_impl_no_alloc@V<lambda_9e54353aa454f7d92a3812adb7bd9804>@@X$$V@std@@6B@ 100b39d0     character_select_hook.obj
 0002:000029e8       ??_C@_04MLLFJLJF@C?9?$DOS@ 100b39e8     packet_hook.obj
 0002:000029f0       ??_C@_04OBJHBOEG@S?9?$DOC@ 100b39f0     packet_hook.obj
 0002:000029f8       ??_C@_09LIBMOLNF@?5modified@ 100b39f8     packet_hook.obj
 0002:00002a04       ??_C@_08MBEFIPNN@?5blocked@ 100b3a04     packet_hook.obj
 0002:00002a10       ??_C@_0CG@BEMKKGDD@?$FLnet?$FN?5stream?5?$CFs?5opcode?$DN?$CFs?5len?$DN?$CF@ 100b3a10     packet_hook.obj
 0002:00002a38       ??_C@_03ICICOMAL@yes@      100b3a38     packet_hook.obj
 0002:00002a3c       ??_C@_02KAJCLHKP@no@       100b3a3c     packet_hook.obj
 0002:00002a40       ??_C@_0CN@HOCKDCMP@?$FLnet?$FN?5CMsg?5?$CFs?5opcode?$DN?$CFs?5len?$DN?$CFzu@ 100b3a40     packet_hook.obj
 0002:00002a70       ??_C@_0CE@LHPKMPCN@?$FLnet?$FN?5CMsg?5?$CFs?5opcode?$DN?$CFs?5len?$DN?$CFzu@ 100b3a70     packet_hook.obj
 0002:00002a94       ??_C@_0CE@EIFGNDKN@?$FLnet?$FN?5consumed?5by?5handler?5opcod@ 100b3a94     packet_hook.obj
 0002:00002ab8       ??_C@_0CB@IIDDCLAP@?$FLnet?$FN?5dropped?5dispatch?5opcode?$DN?$CF@ 100b3ab8     packet_hook.obj
 0002:00002adc       ??_C@_09ECIIIKHH@from_wire@ 100b3adc     packet_hook.obj
 0002:00002ae8       ??_C@_0M@KHKNFEPL@packet_hook@ 100b3ae8     packet_hook.obj
 0002:00002af4       ??_C@_0BA@KOIMGFBJ@stream_dispatch@ 100b3af4     packet_hook.obj
 0002:00002b04       ??_C@_0BB@CKOLHHEJ@send_from_buffer@ 100b3b04     packet_hook.obj
 0002:00002b18       ??_C@_0O@EKDAMKDP@cmsg_dispatch@ 100b3b18     packet_hook.obj
 0002:00002b28       ??_C@_0BB@LLNHKCNK@send_pool_buffer@ 100b3b28     packet_hook.obj
 0002:00002b3c       ??_C@_0CC@KLBBICDJ@?$FLpacket_hook?$FN?5installed?5?$CI5?5hook@ 100b3b3c     packet_hook.obj
 0002:00002b64       ??_7?$_Func_impl_no_alloc@V<lambda_d808f1789c8518bdbc5271d6edea4e84>@@X$$V@std@@6B@ 100b3b64     packet_hook.obj
 0002:00002b80       ??_7?$_Func_impl_no_alloc@V<lambda_05397b0f5f50f30f14183dccbd5f6e17>@@X$$V@std@@6B@ 100b3b80     packet_hook.obj
 0002:00002b9c       ??_7?$_Func_impl_no_alloc@V<lambda_148d939d3f328850d25f1b60d13e1a30>@@X$$V@std@@6B@ 100b3b9c     packet_hook.obj
 0002:00002bb8       ??_7?$_Func_impl_no_alloc@V<lambda_871a06b5f1626861ab912f565d990cd1>@@X$$V@std@@6B@ 100b3bb8     packet_hook.obj
 0002:00002bd4       ??_7?$_Func_impl_no_alloc@V<lambda_079c22eb3c80a0513874cc5549a2b922>@@X$$V@std@@6B@ 100b3bd4     packet_hook.obj
 0002:00002bf0       ??_C@_0FC@PLKNIPPM@?$FLinterface_hide_hook?$FN?5hide?5on?$DL?5@ 100b3bf0     interface_hide_hook.obj
 0002:00002c44       ??_C@_0BE@BBDEABFB@interface_hide_hook@ 100b3c44     interface_hide_hook.obj
 0002:00002c58       ??_C@_0P@HKHMEGJG@try_show_panel@ 100b3c58     interface_hide_hook.obj
 0002:00002c68       ??_C@_0BA@EFEJDLBK@arm_show_survey@ 100b3c68     interface_hide_hook.obj
 0002:00002c78       ??_C@_0CG@EHLBOMEG@?$FLinterface_hide_hook?$FN?5hooks?5ins@ 100b3c78     interface_hide_hook.obj
 0002:00002ca0       ??_C@_0CE@KPPPBFGP@?$FLinterface_hide_hook?$FN?5hooks?5rem@ 100b3ca0     interface_hide_hook.obj
 0002:00002cc8       ??_7?$_Func_impl_no_alloc@V<lambda_a280fd544349889b841fe2b307d35585>@@X$$V@std@@6B@ 100b3cc8     interface_hide_hook.obj
 0002:00002ce4       ??_7?$_Func_impl_no_alloc@V<lambda_567523d5fd7dcefcd0bcfc084fe47d8c>@@X$$V@std@@6B@ 100b3ce4     interface_hide_hook.obj
 0002:00002d00       ??_7?$_Func_impl_no_alloc@V<lambda_a62fe0be53d700e6aed8d3501e17d169>@@X$$V@std@@6B@ 100b3d00     interface_hide_hook.obj
 0002:00002d18       ??_C@_0BA@JFNIOLAK@string?5too?5long@ 100b3d18     welcome_msg_hook.obj
 0002:00002d28       ??_C@_0CM@MAMADB@?$FLwelcome_msg_hook?$FN?5WARNING?3?5msg@ 100b3d28     welcome_msg_hook.obj
 0002:00002d54       ??_C@_0DG@IEBJKJPA@?$FLwelcome_msg_hook?$FN?5Received?5not@ 100b3d54     welcome_msg_hook.obj
 0002:00002d90       ??_C@_1FE@DOHCNNIN@?$AAW?$AAe?$AAl?$AAc?$AAo?$AAm?$AAe?$AA?5?$AAb?$AAa?$AAc?$AAk?$AA?0?$AA?5?$AAw@ 100b3d90     welcome_msg_hook.obj
 0002:00002de4       ??_C@_0DG@GCFKIMCF@?$FLwelcome_msg_hook?$FN?5Blocked?5disp@ 100b3de4     welcome_msg_hook.obj
 0002:00002e20       ??_C@_0EE@FBNMDIBD@?$FLwelcome_msg_hook?$FN?5Replacing?5we@ 100b3e20     welcome_msg_hook.obj
 0002:00002e64       ??_C@_0M@DPINJDEI@show_notice@ 100b3e64     welcome_msg_hook.obj
 0002:00002e70       ??_C@_0BB@DAEPCEN@welcome_msg_hook@ 100b3e70     welcome_msg_hook.obj
 0002:00002e84       ??_C@_0CP@EMMPCGKP@?$FLwelcome_msg_hook?$FN?5Hook?5install@ 100b3e84     welcome_msg_hook.obj
 0002:00002eb8       ??_7?$_Func_impl_no_alloc@V<lambda_c87f17a2cdfaa0e3acdd13ec8caf5dcf>@@X$$V@std@@6B@ 100b3eb8     welcome_msg_hook.obj
 0002:00002f24       ??_C@_0BE@LEDMPDDN@set_graphics_option@ 100b3f24     sight_range_hook.obj
 0002:00002f38       ??_C@_0BB@EKCKFLEF@sight_range_hook@ 100b3f38     sight_range_hook.obj
 0002:00002f4c       ??_C@_0CP@LGJEOKDH@?$FLsight_range_hook?$FN?5Hook?5install@ 100b3f4c     sight_range_hook.obj
 0002:00002f80       ??_7?$_Func_impl_no_alloc@V<lambda_cf0eba39f8e1eaab3d7f90723a1611a1>@@X$$V@std@@6B@ 100b3f80     sight_range_hook.obj
 0002:00002f98       __real@3f4ccccd            100b3f98     sight_range_hook.obj
 0002:00002f9c       __real@42c80000            100b3f9c     sight_range_hook.obj
 0002:00002fa0       __real@45000000            100b3fa0     sight_range_hook.obj
 0002:00002fa4       __real@45abe000            100b3fa4     sight_range_hook.obj
 0002:00002fa8       ??_C@_0DA@IHAEPJBJ@?$FLintro_hook?$FN?5intro?5render?5pipel@ 100b3fa8     intro_hook.obj
 0002:00002fd8       ??_C@_0BC@DMOEMKDH@load_intro_camera@ 100b3fd8     intro_hook.obj
 0002:00002fec       ??_C@_0L@LMFGLFNP@intro_hook@ 100b3fec     intro_hook.obj
 0002:00002ff8       ??_C@_0BH@NKPALNEF@?$FLintro_hook?$FN?5installed@ 100b3ff8     intro_hook.obj
 0002:00003014       ??_7?$_Func_impl_no_alloc@V<lambda_2361990076fc079cb21c0372f92e4945>@@X$$V@std@@6B@ 100b4014     intro_hook.obj
 0002:00003030       ??_C@_0GO@KOGEBGJG@?$FLquest_hook?$FN?5WARNING?3?5Quest?5ID?5@ 100b4030     quest_hook.obj
 0002:000030a0       ??_C@_0BF@OHJBDBMN@get_quest_definition@ 100b40a0     quest_hook.obj
 0002:000030b8       ??_C@_0L@GFOFHENG@quest_hook@ 100b40b8     quest_hook.obj
 0002:000030c4       ??_C@_0CJ@MPHCOIOE@?$FLquest_hook?$FN?5Hook?5installed?5suc@ 100b40c4     quest_hook.obj
 0002:000030f4       ??_7?$_Func_impl_no_alloc@V<lambda_00dbecd7ce64df782535c75b83b36d9b>@@X$$V@std@@6B@ 100b40f4     quest_hook.obj
 0002:0000310c       ??_C@_0BC@LMGFPCEE@MsgStreamBuffer?4h@ 100b410c     assert_hook.obj
 0002:00003120       ??_C@_07OHNGEDJK@nullptr@  100b4120     assert_hook.obj
 0002:00003128       ??_C@_0EI@IILFHJLD@?$FLassert_hook?$FN?5MsgStreamBuffer?5r@ 100b4128     assert_hook.obj
 0002:00003170       ??_C@_0O@DMHFOPPI@assert_report@ 100b4170     assert_hook.obj
 0002:00003180       ??_C@_0M@FPJIOKCK@assert_hook@ 100b4180     assert_hook.obj
 0002:0000318c       ??_C@_0CK@JLKFMKOH@?$FLassert_hook?$FN?5Hook?5installed?5su@ 100b418c     assert_hook.obj
 0002:000031bc       ??_7?$_Func_impl_no_alloc@V<lambda_102cef23f42d3c4b8824b1393e54502b>@@X$$V@std@@6B@ 100b41bc     assert_hook.obj
 0002:000031d4       ??_C@_01MCMALHOG@a@        100b41d4     net_manager.obj
 0002:000031d8       ??_C@_0BG@PGGOAOG@?$CFs?5?$CFs?50x?$CF04X?5?5len?$DN?$CFzu@ 100b41d8     net_manager.obj
 0002:000031f0       ??_C@_0L@PHIOOANN@?5?$FLblocked?$FN@ 100b41f0     net_manager.obj
 0002:000031fc       ??_C@_0M@CMHEGAGF@?5?$FLmodified?$FN@ 100b41fc     net_manager.obj
 0002:00003208       ??_C@_02KNHHEEKP@?5?5@     100b4208     net_manager.obj
 0002:0000320c       ??_C@_04JFFKLGJF@?$CF02X@  100b420c     net_manager.obj
 0002:00003214       ??_C@_0CO@KICDLJPA@?$FLnet_manager?$FN?5auth?5S?9?$DOC?5opcode?$DN@ 100b4214     net_manager.obj
 0002:00003244       ??_C@_06IFILMILK@0x?$CF04X@ 100b4244     net_manager.obj
 0002:0000324c       ??_C@_04DDPLIBPC@CMsg@     100b424c     net_manager.obj
 0002:00003254       ??_C@_06DJAMKFID@stream@   100b4254     net_manager.obj
 0002:00003278       ??_C@_02DKCKIIND@?$CFs@    100b4278     packet_inspector.obj
 0002:0000327c       ??_C@_02NJNOFBBI@?$CFx@    100b427c     packet_inspector.obj
 0002:00003280       ??_C@_07EGAJKHF@Capture@   100b4280     packet_inspector.obj
 0002:00003288       ??_C@_0O@BOJDGBJC@pause?5capture@ 100b4288     packet_inspector.obj
 0002:00003298       ??_C@_0BA@JKBHGIKE@capture?5enabled@ 100b4298     packet_inspector.obj
 0002:000032a8       ??_C@_08DLJNEKAP@log?5S?9?$DOC@ 100b42a8     packet_inspector.obj
 0002:000032b4       ??_C@_08BBLPMPNM@log?5C?9?$DOS@ 100b42b4     packet_inspector.obj
 0002:000032c0       ??_C@_0N@BJCIFFPK@layer?5stream@ 100b42c0     packet_inspector.obj
 0002:000032d0       ??_C@_0L@ECOFLDNH@layer?5CMsg@ 100b42d0     packet_inspector.obj
 0002:000032dc       ??_C@_0O@NLOGCKKG@follow?5latest@ 100b42dc     packet_inspector.obj
 0002:000032ec       ??_C@_0BC@OJGKIDCA@write?5packets?4log@ 100b42ec     packet_inspector.obj
 0002:00003300       ??_C@_0M@JIOBKECJ@max?5entries@ 100b4300     packet_inspector.obj
 0002:0000330c       ??_C@_08OKMMMLGJ@log?5file@ 100b430c     packet_inspector.obj
 0002:00003318       ??_C@_09PJIJAKBM@Clear?5log@ 100b4318     packet_inspector.obj
 0002:00003324       ??_C@_0BC@HKOPBOCG@Block?5?1?5intercept@ 100b4324     packet_inspector.obj
 0002:00003338       ??_C@_0BD@PHEIDFFE@hook?5edits?5enabled@ 100b4338     packet_inspector.obj
 0002:0000334c       ??_C@_0P@HBPHKAEB@block?5all?5S?9?$DOC@ 100b434c     packet_inspector.obj
 0002:0000335c       ??_C@_0P@FLNFCFJC@block?5all?5C?9?$DOS@ 100b435c     packet_inspector.obj
 0002:0000336c       ??_C@_0BP@MKHBCOOO@off?$AAsingle?5opcode?$AAopcode?5list?$AA@ 100b436c     packet_inspector.obj
 0002:0000338c       ??_C@_0N@PEICMLJA@opcode?5block@ 100b438c     packet_inspector.obj
 0002:0000339c       ??_C@_04JBNHMKCH@?$CF04X@  100b439c     packet_inspector.obj
 0002:000033a4       ??_C@_0BF@CPNHINEE@opcode?$CD?$CDblock_single@ 100b43a4     packet_inspector.obj
 0002:000033bc       ??_C@_0BB@JDHLNIAP@6101?0?5A101?0?57007@ 100b43bc     packet_inspector.obj
 0002:000033d0       ??_C@_0BE@GFDFHOHN@opcodes?$CD?$CDblock_list@ 100b43d0     packet_inspector.obj
 0002:000033e4       ??_C@_0BA@OKOEBIKF@Clear?5overrides@ 100b43e4     packet_inspector.obj
 0002:000033f4       ??_C@_0P@IENOOHMN@Display?5filter@ 100b43f4     packet_inspector.obj
 0002:00003404       ??_C@_0M@CLCOALFM@show?5stream@ 100b4404     packet_inspector.obj
 0002:00003410       ??_C@_09MLDOFKDK@show?5CMsg@ 100b4410     packet_inspector.obj
 0002:0000341c       ??_C@_09BJFCMFIO@show?5S?9?$DOC@ 100b441c     packet_inspector.obj
 0002:00003428       ??_C@_09DDHAEAFN@show?5C?9?$DOS@ 100b4428     packet_inspector.obj
 0002:00003434       ??_C@_0O@LGBINGMA@hide?5modified@ 100b4434     packet_inspector.obj
 0002:00003444       ??_C@_0N@BOPAKINF@hide?5blocked@ 100b4444     packet_inspector.obj
 0002:00003454       ??_C@_0O@MEGFKKK@only?5modified@ 100b4454     packet_inspector.obj
 0002:00003464       ??_C@_0N@JAEKMHCB@only?5blocked@ 100b4464     packet_inspector.obj
 0002:00003474       ??_C@_07PILANKLN@min?5len@ 100b4474     packet_inspector.obj
 0002:0000347c       ??_C@_07BONAHFFM@max?5len@ 100b447c     packet_inspector.obj
 0002:00003484       ??_C@_0CD@BGCDPHLH@empty?5?$DN?5all?$DL?5e?4g?4?56101?0?5A101?0?50@ 100b4484     packet_inspector.obj
 0002:000034a8       ??_C@_0O@FPINPEHC@opcodes?$CD?$CDview@ 100b44a8     packet_inspector.obj
 0002:000034b8       ??_C@_0CC@FLDHBOPJ@substring?5search?5in?5payload?5byt@ 100b44b8     packet_inspector.obj
 0002:000034dc       ??_C@_0BC@MODPJMBM@payload?5hex?$CD?$CDview@ 100b44dc     packet_inspector.obj
 0002:000034f0       ??_C@_0O@NAKIJGGE@Reset?5filters@ 100b44f0     packet_inspector.obj
 0002:00003500       ??_C@_0CC@MENFLENP@Packets?5?5?$CFzu?5shown?5?1?5?$CFzu?5captur@ 100b4500     packet_inspector.obj
 0002:00003524       ??_C@_0N@OEDKLPL@packet_table@ 100b4524     packet_inspector.obj
 0002:00003534       ??_C@_02EGCJHIOB@id@       100b4534     packet_inspector.obj
 0002:00003538       ??_C@_05NAHLDCCJ@layer@    100b4538     packet_inspector.obj
 0002:00003540       ??_C@_03DAPAKLGM@dir@      100b4540     packet_inspector.obj
 0002:00003544       ??_C@_06POMMAHJK@opcode@   100b4544     packet_inspector.obj
 0002:0000354c       ??_C@_03BKCJCHLK@len@      100b454c     packet_inspector.obj
 0002:00003550       ??_C@_05GECEPKB@flags@     100b4550     packet_inspector.obj
 0002:00003558       ??_C@_03ECHJBPNK@?$CFzu@   100b4558     packet_inspector.obj
 0002:0000355c       ??_C@_0BC@KLGMICKL@blocked?0?5modified@ 100b455c     packet_inspector.obj
 0002:00003570       ??_C@_07MAJPMGLJ@blocked@  100b4570     packet_inspector.obj
 0002:00003578       ??_C@_08PCMCJENN@modified@ 100b4578     packet_inspector.obj
 0002:00003584       ??_C@_09BILIJEFL@Inspector@ 100b4584     packet_inspector.obj
 0002:00003590       ??_C@_0DG@LCMPABFP@Select?5a?5packet?5row?5to?5inspect?5@ 100b4590     packet_inspector.obj
 0002:000035c8       ??_C@_0CK@GBALNAL@?$CFs?5?$CFs?5?5opcode?5?$CFs?5?5len?5?$CFzu?5?5id?5?$CF@ 100b45c8     packet_inspector.obj
 0002:000035f4       ??_C@_08CHPJLAEM@blocked?5@ 100b45f4     packet_inspector.obj
 0002:00003600       ??_C@_0M@HMPDBPMF@flags?3?5?$CFs?$CFs@ 100b4600     packet_inspector.obj
 0002:0000360c       ??_C@_0M@KAPHJPKJ@payload?5hex@ 100b460c     packet_inspector.obj
 0002:00003618       ??_C@_0BN@CAGPEJDL@apply?5to?5all?5matching?5opcode@ 100b4618     packet_inspector.obj
 0002:00003638       ??_C@_0BH@CDKCMGOE@Apply?5payload?5override@ 100b4638     packet_inspector.obj
 0002:00003650       ??_C@_0O@PBEIILBL@Filter?5opcode@ 100b4650     packet_inspector.obj
 0002:00003660       ??_C@_0N@ECOBDLKN@Block?5opcode@ 100b4660     packet_inspector.obj
 0002:00003670       ??_C@_0N@HPJPLKJE@Copy?5to?5send@ 100b4670     packet_inspector.obj
 0002:00003680       ??_C@_0M@GIAPCCAK@Manual?5send@ 100b4680     packet_inspector.obj
 0002:0000368c       ??_C@_0M@MBKBMJFJ@Send?5packet@ 100b468c     packet_inspector.obj
 0002:000036a0       __xmm@3e4ccccd3e3851ec3e99999a3df5c28f 100b46a0     packet_inspector.obj
 0002:000036b0       __xmm@3e8000003ecccccd3e6147ae3df5c28f 100b46b0     packet_inspector.obj
 0002:000036c0       __xmm@3eb333333dcccccd3eb333333ee66666 100b46c0     packet_inspector.obj
 0002:000036d0       __xmm@3eb333333e19999a3e19999a3ee66666 100b46d0     packet_inspector.obj
 0002:000036e0       ??_C@_01NOFIACDB@w@        100b46e0     log.obj
 0002:000036e4       ??_C@_07GPDNMNG@CONOUT$@   100b46e4     log.obj
 0002:000036ec       ??_C@_01KDCPPGHE@r@        100b46ec     log.obj
 0002:000036f0       ??_C@_06GDENEHCP@CONIN$@   100b46f0     log.obj
 0002:000036f8       ??_C@_0P@OCJMKMBK@sro_ext_client@ 100b46f8     log.obj
 0002:00003708       ??_C@_0P@PDCLCEEH@ext_client?4log@ 100b4708     log.obj
 0002:00003718       ??_C@_0O@LJFEHHJJ@console?5ready@ 100b4718     log.obj
 0002:00003728       ??_C@_01EEMJAFIK@?6@       100b4728     log.obj
 0002:0000372c       ??_C@_0CL@OGFEFGDP@Welcome?5back?0?5we?5hope?5you?5enjoy@ 100b472c     client_config.obj
 0002:00003758       ??_C@_0CM@OPOCDPLN@interface?2outer?2login_window_eu@ 100b4758     client_config.obj
 0002:00003784       ??_C@_0BM@NONDABAD@Client?5Data?5Version?5?$CFd?4?$CF03d@ 100b4784     client_config.obj
 0002:000037a0       ??_C@_0BI@LPBMHKHN@Client?5Exe?5Version?5?$CF?43f@ 100b47a0     client_config.obj
 0002:000037b8       ??_C@_0M@LOHANMLN@packets?4log@ 100b47b8     client_config.obj
 0002:000037c8       ??_7runtime_error@std@@6B@ 100b47c8     client_config.obj
 0002:000037d4       ??_7_System_error@std@@6B@ 100b47d4     client_config.obj
 0002:000037dc       ??_C@_02LMMGGCAJ@?3?5@     100b47dc     client_config.obj
 0002:000037e4       ??_7system_error@std@@6B@  100b47e4     client_config.obj
 0002:000037f0       ??_7_Iostream_error_category2@std@@6B@ 100b47f0     client_config.obj
 0002:00003808       ??_C@_08LLGCOLLL@iostream@ 100b4808     client_config.obj
 0002:00003814       ?_Iostream_error@?4??message@_Iostream_error_category2@std@@UBE?AV?$basic_string@DU?$char_traits@D@std@@V?$allocator@D@2@@3@H@Z@4QBDB 100b4814     client_config.obj
 0002:00003830       ??_7_Facet_base@std@@6B@   100b4830     client_config.obj
 0002:0000383c       ??_C@_0BA@ELKIONDK@bad?5locale?5name@ 100b483c     client_config.obj
 0002:0000384c       ??_C@_05LAPONLG@false@     100b484c     client_config.obj
 0002:00003854       ??_C@_04LOAJBDKD@true@     100b4854     client_config.obj
 0002:00003860       ??_7?$ctype@D@std@@6B@     100b4860     client_config.obj
 0002:00003890       ??_7failure@ios_base@std@@6B@ 100b4890     client_config.obj
 0002:0000389c       ??_7ios_base@std@@6B@      100b489c     client_config.obj
 0002:000038a0       ??_C@_0BF@PHHKMMFD@ios_base?3?3badbit?5set@ 100b48a0     client_config.obj
 0002:000038b8       ??_C@_0BG@FMKFHCIL@ios_base?3?3failbit?5set@ 100b48b8     client_config.obj
 0002:000038d0       ??_C@_0BF@OOHOMBOF@ios_base?3?3eofbit?5set@ 100b48d0     client_config.obj
 0002:000038e8       ??_C@_01HIHLOKLC@1@        100b48e8     client_config.obj
 0002:000038ec       ??_C@_01GBGANLPD@0@        100b48ec     client_config.obj
 0002:000038f0       ??_C@_0P@FLLEJDMM@ext_client?4ini@ 100b48f0     client_config.obj
 0002:00003900       ??_C@_05HCCCIHM@promo@     100b4900     client_config.obj
 0002:00003908       ??_C@_09NFKLEKPH@interface@ 100b4908     client_config.obj
 0002:00003914       ??_C@_0O@MOAEBKMK@hide_facebook@ 100b4914     client_config.obj
 0002:00003924       ??_C@_0BA@DFHMJF@hide_magic_lamp@ 100b4924     client_config.obj
 0002:00003934       ??_C@_0BB@JMONLAOK@hide_daily_login@ 100b4934     client_config.obj
 0002:00003948       ??_C@_0M@DINLNLAP@hide_survey@ 100b4948     client_config.obj
 0002:00003954       ??_C@_0BE@KIKIMKKN@hide_web_item_alarm@ 100b4954     client_config.obj
 0002:00003968       ??_C@_0BB@IDNEPJLG@hide_macro_guide@ 100b4968     client_config.obj
 0002:0000397c       ??_C@_0BB@IMDMGHKI@apply_on_startup@ 100b497c     client_config.obj
 0002:00003990       ??_C@_07MBADLKLA@widgets@  100b4990     client_config.obj
 0002:00003998       ??_C@_0M@PNOGHBOP@static_only@ 100b4998     client_config.obj
 0002:000039a4       ??_C@_0N@MBNECGLJ@auto_refresh@ 100b49a4     client_config.obj
 0002:000039b4       ??_C@_09IOAIKKBL@max_depth@ 100b49b4     client_config.obj
 0002:000039c0       ??_C@_0BB@EAKGKFFB@show_alarm_debug@ 100b49c0     client_config.obj
 0002:000039d4       ??_C@_09HOLMBGHC@deep_scan@ 100b49d4     client_config.obj
 0002:000039e0       ??_C@_0N@DLFAFCIM@probe_max_id@ 100b49e0     client_config.obj
 0002:000039f0       ??_C@_07LLDKJBMK@general@  100b49f0     client_config.obj
 0002:000039f8       ??_C@_0P@CDHCBAFF@save_on_change@ 100b49f8     client_config.obj
 0002:00003a08       ??_C@_07PGDKGDCB@graphic@  100b4a08     client_config.obj
 0002:00003a10       ??_C@_0BD@MCLENPPD@custom_sight_range@ 100b4a10     client_config.obj
 0002:00003a24       ??_C@_0BC@DJBKNEEH@sight_range_level@ 100b4a24     client_config.obj
 0002:00003a38       ??_C@_0BE@HFFBHAJF@sight_range_percent@ 100b4a38     client_config.obj
 0002:00003a4c       ??_C@_0BG@NPAPAGEG@d3d_force_hardware_vp@ 100b4a4c     client_config.obj
 0002:00003a64       ??_C@_0BG@GFGPJHIJ@d3d_force_pure_device@ 100b4a64     client_config.obj
 0002:00003a7c       ??_C@_0BF@EAJODMCN@d3d_triple_buffering@ 100b4a7c     client_config.obj
 0002:00003a94       ??_C@_0BK@KPIBLHLC@d3d_discard_depth_stencil@ 100b4a94     client_config.obj
 0002:00003ab0       ??_C@_0M@OPNJGPHI@welcome_msg@ 100b4ab0     client_config.obj
 0002:00003abc       ??_C@_07MHHIKOPA@enabled@  100b4abc     client_config.obj
 0002:00003ac4       ??_C@_04CIMGMMMG@text@     100b4ac4     client_config.obj
 0002:00003acc       ??_C@_05PHLGJONK@title@    100b4acc     client_config.obj
 0002:00003ad4       ??_C@_0L@IDGKAHDM@log_events@ 100b4ad4     client_config.obj
 0002:00003ae0       ??_C@_0P@OHEHKJIP@skip_on_create@ 100b4ae0     client_config.obj
 0002:00003af0       ??_C@_0BF@DFIEMHOI@auto_login_on_create@ 100b4af0     client_config.obj
 0002:00003b08       ??_C@_0BE@DGNJAPEP@block_login_packets@ 100b4b08     client_config.obj
 0002:00003b1c       ??_C@_0BJ@PNIAKGFC@block_process_transition@ 100b4b1c     client_config.obj
 0002:00003b38       ??_C@_0BB@JCFKPJBO@suppress_captcha@ 100b4b38     client_config.obj
 0002:00003b4c       ??_C@_0BJ@FCJLOBGJ@hide_channel_list_button@ 100b4b4c     client_config.obj
 0002:00003b68       ??_C@_0BE@NGIIINJC@replace_login_frame@ 100b4b68     client_config.obj
 0002:00003b7c       ??_C@_0BB@MMOBFDBK@login_frame_path@ 100b4b7c     client_config.obj
 0002:00003b90       ??_C@_0BL@HGOHEPIP@eu_login_id_label_x_adjust@ 100b4b90     client_config.obj
 0002:00003bac       ??_C@_0BL@GBJMFLMM@eu_login_id_label_y_adjust@ 100b4bac     client_config.obj
 0002:00003bc8       ??_C@_0BL@NPICJOBB@eu_login_id_input_x_adjust@ 100b4bc8     client_config.obj
 0002:00003be4       ??_C@_0BL@MIPJIKFC@eu_login_id_input_y_adjust@ 100b4be4     client_config.obj
 0002:00003c00       ??_C@_0BL@OEIMMJID@eu_login_pw_label_x_adjust@ 100b4c00     client_config.obj
 0002:00003c1c       ??_C@_0BL@PDPHNNMA@eu_login_pw_label_y_adjust@ 100b4c1c     client_config.obj
 0002:00003c38       ??_C@_0BL@ENOJBIBN@eu_login_pw_input_x_adjust@ 100b4c38     client_config.obj
 0002:00003c54       ??_C@_0BL@FKJCAMFO@eu_login_pw_input_y_adjust@ 100b4c54     client_config.obj
 0002:00003c70       ??_C@_0BP@NMCPMJEI@eu_login_server_label_x_adjust@ 100b4c70     client_config.obj
 0002:00003c90       ??_C@_0BP@MLFENNAL@eu_login_server_label_y_adjust@ 100b4c90     client_config.obj
 0002:00003cb0       ??_C@_0BP@HCPBPENI@eu_login_server_value_x_adjust@ 100b4cb0     client_config.obj
 0002:00003cd0       ??_C@_0BP@GFIKOAJL@eu_login_server_value_y_adjust@ 100b4cd0     client_config.obj
 0002:00003cf0       ??_C@_0CA@MFHPKJOG@eu_login_server_button_x_adjust@ 100b4cf0     client_config.obj
 0002:00003d10       ??_C@_0CA@NCAELNKF@eu_login_server_button_y_adjust@ 100b4d10     client_config.obj
 0002:00003d30       ??_C@_0O@GPPENBOC@logo_y_offset@ 100b4d30     client_config.obj
 0002:00003d40       ??_C@_0BI@EHKCDPCK@override_version_labels@ 100b4d40     client_config.obj
 0002:00003d58       ??_C@_0BB@OMEMBIGI@data_version_fmt@ 100b4d58     client_config.obj
 0002:00003d6c       ??_C@_0BA@EBJNLIDJ@exe_version_fmt@ 100b4d6c     client_config.obj
 0002:00003d7c       ??_C@_0BN@PEJAJOMM@override_version_label_color@ 100b4d7c     client_config.obj
 0002:00003d9c       ??_C@_0BE@BJCCPECI@version_label_color@ 100b4d9c     client_config.obj
 0002:00003db0       ??_C@_0BE@JBMMJDCH@version_labels_clip@ 100b4db0     client_config.obj
 0002:00003dc4       ??_C@_0BN@FFIMDJO@version_label_ellipsis_width@ 100b4dc4     client_config.obj
 0002:00003de4       ??_C@_0BH@LHOHPJHM@bypass_gateway_connect@ 100b4de4     client_config.obj
 0002:00003dfc       ??_C@_0BF@MFAOFDKP@force_version_result@ 100b4dfc     client_config.obj
 0002:00003e14       ??_C@_0BG@LNMGCHLE@forced_version_result@ 100b4e14     client_config.obj
 0002:00003e2c       ??_C@_0BD@GDOBEPGF@skip_textdata_load@ 100b4e2c     client_config.obj
 0002:00003e40       ??_C@_0BE@OLJMCKPG@skip_loading_splash@ 100b4e40     client_config.obj
 0002:00003e54       ??_C@_0BD@IKFMPHHF@banner_custom_size@ 100b4e54     client_config.obj
 0002:00003e68       ??_C@_0N@FNONNJI@banner_width@ 100b4e68     client_config.obj
 0002:00003e78       ??_C@_0O@OJOKGJMF@banner_height@ 100b4e78     client_config.obj
 0002:00003e88       ??_C@_0O@EFODCNIL@banner_center@ 100b4e88     client_config.obj
 0002:00003e98       ??_C@_08IOLHLBJN@banner_x@ 100b4e98     client_config.obj
 0002:00003ea4       ??_C@_08JHKMIANM@banner_y@ 100b4ea4     client_config.obj
 0002:00003eb0       ??_C@_0N@MHDFLOKL@banner_cycle@ 100b4eb0     client_config.obj
 0002:00003ec0       ??_C@_0BJ@PMENCHJ@banner_cycle_interval_ms@ 100b4ec0     client_config.obj
 0002:00003edc       ??_C@_0N@NLKCDLE@banner_count@ 100b4edc     client_config.obj
 0002:00003eec       ??_C@_0BA@EKDKNFG@banner_path_fmt@ 100b4eec     client_config.obj
 0002:00003efc       ??_C@_0P@DKELPOG@banner_overlay@ 100b4efc     client_config.obj
 0002:00003f0c       ??_C@_06HKKJOEPD@packet@   100b4f0c     client_config.obj
 0002:00003f14       ??_C@_0O@EGKCEJN@edit_outgoing@ 100b4f14     client_config.obj
 0002:00003f24       ??_C@_0BF@FOJLGOBG@edit_outgoing_opcode@ 100b4f24     client_config.obj
 0002:00003f3c       ??_C@_0BI@GNLPIHE@edit_outgoing_apply_all@ 100b4f3c     client_config.obj
 0002:00003f54       ??_C@_0O@GCELADCH@edit_incoming@ 100b4f54     client_config.obj
 0002:00003f64       ??_C@_0BF@CCNLOFBN@edit_incoming_opcode@ 100b4f64     client_config.obj
 0002:00003f7c       ??_C@_0BI@KECFBHPJ@edit_incoming_apply_all@ 100b4f7c     client_config.obj
 0002:00003f94       ??_C@_0M@DDOEAIFA@net_manager@ 100b4f94     client_config.obj
 0002:00003fa0       ??_C@_0N@FAPBCONL@log_outgoing@ 100b4fa0     client_config.obj
 0002:00003fb0       ??_C@_0N@DGNAAJGB@log_incoming@ 100b4fb0     client_config.obj
 0002:00003fc0       ??_C@_0N@OKAHJIKG@capture_cmsg@ 100b4fc0     client_config.obj
 0002:00003fd0       ??_C@_0P@ELKBHAEF@capture_stream@ 100b4fd0     client_config.obj
 0002:00003fe0       ??_C@_0M@FFKJGFMP@log_to_file@ 100b4fe0     client_config.obj
 0002:00003fec       ??_C@_0O@DBIJGNJG@pause_capture@ 100b4fec     client_config.obj
 0002:00003ffc       ??_C@_0P@HGBMDCEA@block_outgoing@ 100b4ffc     client_config.obj
 0002:0000400c       ??_C@_0P@BADNBFPK@block_incoming@ 100b500c     client_config.obj
 0002:0000401c       ??_C@_0BC@KNFLLAID@block_opcode_mode@ 100b501c     client_config.obj
 0002:00004030       ??_C@_0N@IEOPPDGE@block_opcode@ 100b5030     client_config.obj
 0002:00004040       ??_C@_0BC@PPOAFAAK@block_opcode_list@ 100b5040     client_config.obj
 0002:00004054       ??_C@_0M@LHPLKICN@max_entries@ 100b5054     client_config.obj
 0002:00004060       ??_C@_09BHMKOJFP@file_path@ 100b5060     client_config.obj
 0002:00004070       ??_7?$basic_ios@DU?$char_traits@D@std@@@std@@6B@ 100b5070     client_config.obj
 0002:00004078       ??_7?$basic_istream@DU?$char_traits@D@std@@@std@@6B@ 100b5078     client_config.obj
 0002:00004080       ??_7?$basic_streambuf@DU?$char_traits@D@std@@@std@@6B@ 100b5080     client_config.obj
 0002:000040c0       ??_7?$basic_filebuf@DU?$char_traits@D@std@@@std@@6B@ 100b50c0     client_config.obj
 0002:00004100       ??_7?$basic_ifstream@DU?$char_traits@D@std@@@std@@6B@ 100b5100     client_config.obj
 0002:00004104       ??_8?$basic_ifstream@DU?$char_traits@D@std@@@std@@7B@ 100b5104     client_config.obj
 0002:0000410c       ??_C@_0DB@IILPPEEL@?$FLclient_config?$FN?5no?5config?5at?5?$CFs@ 100b510c     client_config.obj
 0002:00004140       ??_C@_0CH@JOLAPKMA@?$FLclient_config?$FN?5loaded?5?$CFd?5keys?5@ 100b5140     client_config.obj
 0002:0000416c       ??_7?$basic_ostream@DU?$char_traits@D@std@@@std@@6B@ 100b516c     client_config.obj
 0002:00004174       ??_7?$basic_ofstream@DU?$char_traits@D@std@@@std@@6B@ 100b5174     client_config.obj
 0002:00004178       ??_8?$basic_ofstream@DU?$char_traits@D@std@@@std@@7B@ 100b5178     client_config.obj
 0002:00004180       ??_C@_0CD@MMFILABI@?$FLclient_config?$FN?5failed?5to?5write@ 100b5180     client_config.obj
 0002:000041a4       ??_C@_0BI@MKIKPEGJ@?$DL?5ext_client?5settings?6?6@ 100b51a4     client_config.obj
 0002:000041bc       ??_C@_0N@MJJNFHAJ@?$FLinterface?$FN?6@ 100b51bc     client_config.obj
 0002:000041cc       ??_C@_0P@BBJHGHAK@hide_facebook?$DN@ 100b51cc     client_config.obj
 0002:000041dc       ??_C@_0BB@OKINBKAJ@hide_magic_lamp?$DN@ 100b51dc     client_config.obj
 0002:000041f0       ??_C@_0BC@CKKLKOGI@hide_daily_login?$DN@ 100b51f0     client_config.obj
 0002:00004204       ??_C@_0N@PKGPIOPE@hide_survey?$DN@ 100b5204     client_config.obj
 0002:00004214       ??_C@_0BF@MCCHDPCB@hide_web_item_alarm?$DN@ 100b5214     client_config.obj
 0002:0000422c       ??_C@_0BC@EIGJIKPO@hide_macro_guide?$DN@ 100b522c     client_config.obj
 0002:00004240       ??_C@_02PHMGELLB@?6?6@     100b5240     client_config.obj
 0002:00004244       ??_C@_0BC@LCGJFPAD@apply_on_startup?$DN@ 100b5244     client_config.obj
 0002:00004258       ??_C@_0L@ICGIODLK@?$FLwidgets?$FN?6@ 100b5258     client_config.obj
 0002:00004264       ??_C@_0N@FKKAFBCG@static_only?$DN@ 100b5264     client_config.obj
 0002:00004274       ??_C@_0O@NIJEJHLA@auto_refresh?$DN@ 100b5274     client_config.obj
 0002:00004284       ??_C@_0L@OAADIJPI@max_depth?$DN@ 100b5284     client_config.obj
 0002:00004290       ??_C@_0BC@HGMEIPHJ@show_alarm_debug?$DN@ 100b5290     client_config.obj
 0002:000042a4       ??_C@_0L@NEJNOELI@deep_scan?$DN@ 100b52a4     client_config.obj
 0002:000042b0       ??_C@_0O@IONNNHOH@probe_max_id?$DN@ 100b52b0     client_config.obj
 0002:000042c0       ??_C@_0L@PLAEPBLP@?$FLgeneral?$FN?6@ 100b52c0     client_config.obj
 0002:000042cc       ??_C@_0BA@HBMKJPNF@save_on_change?$DN@ 100b52cc     client_config.obj
 0002:000042dc       ??_C@_0L@BFDNAFKI@?$FLgraphic?$FN?6@ 100b52dc     client_config.obj
 0002:000042e8       ??_C@_0BE@EOJOFPMH@custom_sight_range?$DN@ 100b52e8     client_config.obj
 0002:000042fc       ??_C@_0BD@ICGJIGFJ@sight_range_level?$DN@ 100b52fc     client_config.obj
 0002:00004310       ??_C@_0BF@OKPIHOAF@sight_range_percent?$DN@ 100b5310     client_config.obj
 0002:00004328       ??_C@_0BH@PFIIKDBN@d3d_force_hardware_vp?$DN@ 100b5328     client_config.obj
 0002:00004340       ??_C@_0BH@POOJBMKN@d3d_force_pure_device?$DN@ 100b5340     client_config.obj
 0002:00004358       ??_C@_0BG@CPHHIKPH@d3d_triple_buffering?$DN@ 100b5358     client_config.obj
 0002:00004370       ??_C@_0BL@EPCIBLKJ@d3d_discard_depth_stencil?$DN@ 100b5370     client_config.obj
 0002:0000438c       ??_C@_0P@PCGFANGL@?$FLwelcome_msg?$FN?6@ 100b538c     client_config.obj
 0002:0000439c       ??_C@_08NHJCMCAM@enabled?$DN@ 100b539c     client_config.obj
 0002:000043a8       ??_C@_05BIMHOJPH@text?$DN@ 100b53a8     client_config.obj
 0002:000043b0       ??_C@_08IBMHCFGF@?$FLtitle?$FN?6@ 100b53b0     client_config.obj
 0002:000043bc       ??_C@_0M@EFAEFODO@log_events?$DN@ 100b53bc     client_config.obj
 0002:000043c8       ??_C@_0BA@BHAIJBKG@skip_on_create?$DN@ 100b53c8     client_config.obj
 0002:000043d8       ??_C@_0BG@MEAMKGDD@auto_login_on_create?$DN@ 100b53d8     client_config.obj
 0002:000043f0       ??_C@_0BF@IMLNMNLA@block_login_packets?$DN@ 100b53f0     client_config.obj
 0002:00004408       ??_C@_0BK@OPHAPIMA@block_process_transition?$DN@ 100b5408     client_config.obj
 0002:00004424       ??_C@_0BC@JAHFCPCE@suppress_captcha?$DN@ 100b5424     client_config.obj
 0002:00004438       ??_C@_0BK@FONEAKKD@hide_channel_list_button?$DN@ 100b5438     client_config.obj
 0002:00004454       ??_C@_0BF@HEDPDCFL@replace_login_frame?$DN@ 100b5454     client_config.obj
 0002:0000446c       ??_C@_0BC@JHEGFAJH@login_frame_path?$DN@ 100b546c     client_config.obj
 0002:00004480       ??_C@_0BM@BHJJDBEA@eu_login_id_label_x_adjust?$DN@ 100b5480     client_config.obj
 0002:0000449c       ??_C@_0BM@PIFLFKHO@eu_login_id_label_y_adjust?$DN@ 100b549c     client_config.obj
 0002:000044b8       ??_C@_0BM@IHOKNC@eu_login_id_input_x_adjust?$DN@ 100b54b8     client_config.obj
 0002:000044d4       ??_C@_0BM@OPEFIBOM@eu_login_id_input_y_adjust?$DN@ 100b54d4     client_config.obj
 0002:000044f0       ??_C@_0BM@BOLNBGON@eu_login_pw_label_x_adjust?$DN@ 100b54f0     client_config.obj
 0002:0000450c       ??_C@_0BM@PBHPHNND@eu_login_pw_label_y_adjust?$DN@ 100b550c     client_config.obj
 0002:00004528       ??_C@_0BM@JKDMNHP@eu_login_pw_input_x_adjust?$DN@ 100b5528     client_config.obj
 0002:00004544       ??_C@_0BM@OGGBKGEB@eu_login_pw_input_y_adjust?$DN@ 100b5544     client_config.obj
 0002:00004560       ??_C@_0CA@BCDDKONF@eu_login_server_label_x_adjust?$DN@ 100b5560     client_config.obj
 0002:00004580       ??_C@_0CA@PNPBMFOL@eu_login_server_label_y_adjust?$DN@ 100b5580     client_config.obj
 0002:000045a0       ??_C@_0CA@OCJCODKM@eu_login_server_value_x_adjust?$DN@ 100b55a0     client_config.obj
 0002:000045c0       ??_C@_0CA@NFAIIJC@eu_login_server_value_y_adjust?$DN@ 100b55c0     client_config.obj
 0002:000045e0       ??_C@_0CB@CDEEHAFK@eu_login_server_button_x_adjust@ 100b55e0     client_config.obj
 0002:00004604       ??_C@_0CB@MMIGBLGE@eu_login_server_button_y_adjust@ 100b5604     client_config.obj
 0002:00004628       ??_C@_0P@CEIDDPDL@logo_y_offset?$DN@ 100b5628     client_config.obj
 0002:00004638       ??_C@_0BJ@LBBECDFH@override_version_labels?$DN@ 100b5638     client_config.obj
 0002:00004654       ??_C@_0BC@CJGNONMM@data_version_fmt?$DN@ 100b5654     client_config.obj
 0002:00004668       ??_C@_0BB@DFKMFNAO@exe_version_fmt?$DN@ 100b5668     client_config.obj
 0002:0000467c       ??_C@_0BO@PIMOFGLL@override_version_label_color?$DN@ 100b567c     client_config.obj
 0002:0000469c       ??_C@_0BH@FCCCEEAO@version_label_color?$DN0x@ 100b569c     client_config.obj
 0002:000046b4       ??_C@_0BF@MPHDDBEG@version_labels_clip?$DN@ 100b56b4     client_config.obj
 0002:000046cc       ??_C@_0BO@HNFKKODO@version_label_ellipsis_width?$DN@ 100b56cc     client_config.obj
 0002:000046ec       ??_C@_0BB@DONEDNCA@?$FLversion_check?$FN?6@ 100b56ec     client_config.obj
 0002:00004700       ??_C@_0BI@DDOMJCFA@bypass_gateway_connect?$DN@ 100b5700     client_config.obj
 0002:00004718       ??_C@_0BG@CMEEPIJE@force_version_result?$DN@ 100b5718     client_config.obj
 0002:00004730       ??_C@_0BH@KGFJPJAM@forced_version_result?$DN@ 100b5730     client_config.obj
 0002:00004748       ??_C@_0BE@FHFDDMCG@skip_textdata_load?$DN@ 100b5748     client_config.obj
 0002:0000475c       ??_C@_0BF@DONNIDLN@skip_loading_splash?$DN@ 100b575c     client_config.obj
 0002:00004774       ??_C@_0BE@EKANJBPK@banner_custom_size?$DN@ 100b5774     client_config.obj
 0002:00004788       ??_C@_0O@JEDJINBF@banner_width?$DN@ 100b5788     client_config.obj
 0002:00004798       ??_C@_0P@IBAPJEOI@banner_height?$DN@ 100b5798     client_config.obj
 0002:000047a8       ??_C@_0P@BAMHPBDL@banner_center?$DN@ 100b57a8     client_config.obj
 0002:000047b8       ??_C@_09OENIBAPG@banner_x?$DN@ 100b57b8     client_config.obj
 0002:000047c4       ??_C@_09OFBKHKMB@banner_y?$DN@ 100b57c4     client_config.obj
 0002:000047d0       ??_C@_0O@CLCLAHGA@banner_cycle?$DN@ 100b57d0     client_config.obj
 0002:000047e0       ??_C@_0BK@EDDOEFPE@banner_cycle_interval_ms?$DN@ 100b57e0     client_config.obj
 0002:000047fc       ??_C@_0O@KGOJIFAI@banner_count?$DN@ 100b57fc     client_config.obj
 0002:0000480c       ??_C@_0BB@OIOEBPNC@banner_path_fmt?$DN@ 100b580c     client_config.obj
 0002:00004820       ??_C@_0BA@CDICKLEM@banner_overlay?$DN@ 100b5820     client_config.obj
 0002:00004830       ??_C@_09ECAKLKLI@?$FLpacket?$FN?6@ 100b5830     client_config.obj
 0002:0000483c       ??_C@_0P@OEFCMNGD@edit_outgoing?$DN@ 100b583c     client_config.obj
 0002:0000484c       ??_C@_0BI@EFMEOFGL@edit_outgoing_opcode?$DN0x@ 100b584c     client_config.obj
 0002:00004864       ??_C@_0BJ@DNIGCGGD@edit_outgoing_apply_all?$DN@ 100b5864     client_config.obj
 0002:00004880       ??_C@_0P@MPIALGNG@edit_incoming?$DN@ 100b5880     client_config.obj
 0002:00004890       ??_C@_0BI@OHDKAKOG@edit_incoming_opcode?$DN0x@ 100b5890     client_config.obj
 0002:000048a8       ??_C@_0BJ@KOCNCHBB@edit_incoming_apply_all?$DN@ 100b58a8     client_config.obj
 0002:000048c4       ??_C@_0P@HMOOILAH@?$FLnet_manager?$FN?6@ 100b58c4     client_config.obj
 0002:000048d4       ??_C@_0O@HLLJLCMM@log_outgoing?$DN@ 100b58d4     client_config.obj
 0002:000048e4       ??_C@_0O@FAGLMJHJ@log_incoming?$DN@ 100b58e4     client_config.obj
 0002:000048f4       ??_C@_0O@FFLHEJPL@capture_cmsg?$DN@ 100b58f4     client_config.obj
 0002:00004904       ??_C@_0BA@GMBFFMNB@capture_stream?$DN@ 100b5904     client_config.obj
 0002:00004914       ??_C@_0N@GBGGDOPK@log_to_file?$DN@ 100b5914     client_config.obj
 0002:00004924       ??_C@_0P@HDLFPHKC@pause_capture?$DN@ 100b5924     client_config.obj
 0002:00004934       ??_C@_0BA@BMECBFBM@block_outgoing?$DN@ 100b5934     client_config.obj
 0002:00004944       ??_C@_0BA@DHJAGOKJ@block_incoming?$DN@ 100b5944     client_config.obj
 0002:00004954       ??_C@_0BD@BOPEMBJE@block_opcode_mode?$DN@ 100b5954     client_config.obj
 0002:00004968       ??_C@_0BA@IBDGBIPN@block_opcode?$DN0x@ 100b5968     client_config.obj
 0002:00004978       ??_C@_0BD@IKMCEBPA@block_opcode_list?$DN@ 100b5978     client_config.obj
 0002:0000498c       ??_C@_0N@CPIAOPGD@max_entries?$DN@ 100b598c     client_config.obj
 0002:0000499c       ??_C@_0L@JBCLMODC@file_path?$DN@ 100b599c     client_config.obj
 0002:000049a8       ??_C@_0BJ@DNCOPMDD@?$FLclient_config?$FN?5saved?5?$CFs@ 100b59a8     client_config.obj
 0002:000049c8       ??_7?$codecvt@DDU_Mbstatet@@@std@@6B@ 100b59c8     client_config.obj
 0002:000049f4       ??_7?$num_put@DV?$ostreambuf_iterator@DU?$char_traits@D@std@@@std@@@std@@6B@ 100b59f4     client_config.obj
 0002:00004a20       ??_C@_02BBAHNLBA@?$CFp@    100b5a20     client_config.obj
 0002:00004a28       ??_7?$numpunct@D@std@@6B@  100b5a28     client_config.obj
 0002:00004a48       ??_C@_02MDKMJEGG@eE@       100b5a48     client_config.obj
 0002:00004a4c       ??_C@_02OOPEBDOJ@pP@       100b5a4c     client_config.obj
 0002:00004a50       ??_C@_0BN@OFDOGPDL@invalid?5string_view?5position@ 100b5a50     client_config.obj
 0002:00004a70       ??_C@_0BI@CFPLBAOH@invalid?5string?5position@ 100b5a70     client_config.obj
 0002:00004a88       __real@4202a05f20000000    100b5a88     client_config.obj
 0002:00004a90       __xmm@7fffffffffffffff7fffffffffffffff 100b5a90     client_config.obj
 0002:00004aa0       ??_C@_0L@PGBKIEAA@log?5events@ 100b5aa0     menu.obj
 0002:00004aac       ??_C@_0O@OPLCEEPN@skip?5textdata@ 100b5aac     menu.obj
 0002:00004abc       ??_C@_0P@GPDCNC@bypass?5gateway@ 100b5abc     menu.obj
 0002:00004acc       ??_C@_0M@HCEFAPCK@skip?5splash@ 100b5acc     menu.obj
 0002:00004ad8       ??_C@_0BB@CKGHPGGB@block?5transition@ 100b5ad8     menu.obj
 0002:00004aec       ??_C@_0BF@OBPCAELA@force?5version?5result@ 100b5aec     menu.obj
 0002:00004b04       ??_C@_0L@NOIJBKDF@result?$CD?$CDvc@ 100b5b04     menu.obj
 0002:00004b10       ??_C@_0BA@NJNKJFFC@loading?5overlay@ 100b5b10     menu.obj
 0002:00004b20       ??_C@_0CI@GNFPCPBK@instance?5?$CFp?5?5net?5?$CFd?5?5load?5?$CFs?5?5a@ 100b5b20     menu.obj
 0002:00004b48       ??_C@_0BA@NEBKIBCD@instance?5?$CInone?$CJ@ 100b5b48     menu.obj
 0002:00004b58       ??_C@_0BB@GEGPAAAJ@error?5?$CFd?5?5tag?5?$CFd@ 100b5b58     menu.obj
 0002:00004b6c       ??_C@_0BC@DMFLBGKE@log?5events?$CD?$CDtitle@ 100b5b6c     menu.obj
 0002:00004b80       ??_C@_0P@FFHHLBME@enabled?$CD?$CDtitle@ 100b5b80     menu.obj
 0002:00004b90       ??_C@_0L@KGAGOE@auto?5login@ 100b5b90     menu.obj
 0002:00004b9c       ??_C@_0O@DLINPIKF@skip?5OnCreate@ 100b5b9c     menu.obj
 0002:00004bac       ??_C@_0BB@LBFEBEI@block?5login?5pkts@ 100b5bac     menu.obj
 0002:00004bc0       ??_C@_0BB@LNEAPFBK@suppress?5captcha@ 100b5bc0     menu.obj
 0002:00004bd4       ??_C@_0BG@FLJNMFHJ@hide?5channel?5list?5btn@ 100b5bd4     menu.obj
 0002:00004bec       ??_C@_0O@BNMGIMML@logo?5y?5offset@ 100b5bec     menu.obj
 0002:00004bfc       ??_C@_0BD@OIDBCMON@?$CIpx?5up?0?50?$DNdefault?$CJ@ 100b5bfc     menu.obj
 0002:00004c10       ??_C@_0BG@LFDOGPJP@override?5version?5text@ 100b5c10     menu.obj
 0002:00004c28       ??_C@_0BH@ECKGNLMJ@Version?5label?5settings@ 100b5c28     menu.obj
 0002:00004c40       ??_C@_08LGHNAEB@data?5fmt@ 100b5c40     menu.obj
 0002:00004c4c       ??_C@_07FBLIONLG@exe?5fmt@ 100b5c4c     menu.obj
 0002:00004c54       ??_C@_0P@JAGPDFGK@override?5color@ 100b5c54     menu.obj
 0002:00004c64       ??_C@_0O@GLIOKMH@?$CD?$CDlabel_color@ 100b5c64     menu.obj
 0002:00004c74       ??_C@_0BM@DIFPEAMH@clip?5text?5?$CIhover?5to?5expand?$CJ@ 100b5c74     menu.obj
 0002:00004c90       ??_C@_0L@MNCFKMBF@clip?5width@ 100b5c90     menu.obj
 0002:00004c9c       ??_C@_0O@CKEDHMII@captured?5?$CFd?12@ 100b5c9c     menu.obj
 0002:00004cac       ??_C@_0N@BDOBAHB@Apply?5labels@ 100b5cac     menu.obj
 0002:00004cbc       ??_C@_0N@CFAFFILO@Apply?5layout@ 100b5cbc     menu.obj
 0002:00004ccc       ??_C@_0CJ@KGEJJNBH@instance?5?$CFp?5?5phase?5?$CFd?5?5captcha?5@ 100b5ccc     menu.obj
 0002:00004cf8       ??_C@_07DDIFIDDK@DoLogin@  100b5cf8     menu.obj
 0002:00004d00       ??_C@_0BE@GBAFLJJI@CPSTitle?5not?5active@ 100b5d00     menu.obj
 0002:00004d14       ??_C@_0BA@JKKDGCNN@ext_client_tabs@ 100b5d14     menu.obj
 0002:00004d24       ??_C@_06LLCHJONG@Config@   100b5d24     menu.obj
 0002:00004d2c       ??_C@_0BA@KBMDOMPB@CPSVersionCheck@ 100b5d2c     menu.obj
 0002:00004d3c       ??_C@_08HNFBBMP@CPSTitle@  100b5d3c     menu.obj
 0002:00004d48       ??_C@_07DIHFNIOG@Widgets@  100b5d48     menu.obj
 0002:00004d50       ??_C@_07BGDMAJAE@Network@  100b5d50     menu.obj
 0002:00004d58       ??_C@_0BB@BLHJLEID@Interface?5hiding@ 100b5d58     config_panel.obj
 0002:00004d6c       ??_C@_0BE@LCACHJLP@interface_hide_grid@ 100b5d6c     config_panel.obj
 0002:00004d80       ??_C@_0BB@IPIBFJAF@Magic?5lamp?5alarm@ 100b5d80     config_panel.obj
 0002:00004d94       ??_C@_0P@KAFDFEEB@Facebook?5alarm@ 100b5d94     config_panel.obj
 0002:00004da4       ??_C@_0P@JOBOPINK@Web?5item?5alarm@ 100b5da4     config_panel.obj
 0002:00004db4       ??_C@_0BC@HFLBPMKC@Daily?5login?5alarm@ 100b5db4     config_panel.obj
 0002:00004dc8       ??_C@_0O@IJJHICJA@Survey?5button@ 100b5dc8     config_panel.obj
 0002:00004dd8       ??_C@_0BC@MBEHFNHA@Macro?5guide?5alarm@ 100b5dd8     config_panel.obj
 0002:00004dec       ??_C@_0BB@NLFLEHND@Apply?5on?5startup@ 100b5dec     config_panel.obj
 0002:00004e00       ??_C@_0BB@GBJKNGDJ@Apply?5now?$CD?$CDiface@ 100b5e00     config_panel.obj
 0002:00004e14       ??_C@_0DP@FGDKAGJO@survey?5map?$EA0x35?5start?$DN?$CFp?5btn?$CIui@ 100b5e14     config_panel.obj
 0002:00004e54       ??_C@_0BP@LKNGDHPO@ingame?5map?5unreadable?5?$EA?50x?$CF08X@ 100b5e54     config_panel.obj
 0002:00004e74       ??_C@_0DK@OAFBKJJH@hide?5on?5but?5widgets?5not?5resolve@ 100b5e74     config_panel.obj
 0002:00004eb0       ??_C@_0CD@EELCCIOD@map?50x35?5vft?5mismatch?5?$CIgot?50x?$CF0@ 100b5eb0     config_panel.obj
 0002:00004ed4       ??_C@_0M@KECECFFD@not?5in?9game@ 100b5ed4     config_panel.obj
 0002:00004ee0       ??_C@_02LIELOMNJ@on@       100b5ee0     config_panel.obj
 0002:00004ee4       ??_C@_03MCADLMAF@off@      100b5ee4     config_panel.obj
 0002:00004ee8       ??_C@_0FM@FBONNACK@active?3?5facebook?$DN?$CFs?5magic_lamp?$DN@ 100b5ee8     config_panel.obj
 0002:00004f44       ??_C@_0BB@IOCICKEJ@eu_login_offsets@ 100b5f44     config_panel.obj
 0002:00004f58       ??_C@_08MELCCILC@ID?5label@ 100b5f58     config_panel.obj
 0002:00004f64       ??_C@_08DGOFOKFA@PW?5label@ 100b5f64     config_panel.obj
 0002:00004f70       ??_C@_0N@FDAAAPJJ@Server?5label@ 100b5f70     config_panel.obj
 0002:00004f80       ??_C@_08HCACIKON@ID?5input@ 100b5f80     config_panel.obj
 0002:00004f8c       ??_C@_08IAFFEIAP@PW?5input@ 100b5f8c     config_panel.obj
 0002:00004f98       ??_C@_0N@NMHGEBGO@Server?5value@ 100b5f98     config_panel.obj
 0002:00004fa8       ??_C@_0M@MEKBNPAG@List?5button@ 100b5fa8     config_panel.obj
 0002:00004fb4       ??_C@_0CN@LHMKENNN@Reset?5EU?5layout?5defaults?$CD?$CDtitle@ 100b5fb4     config_panel.obj
 0002:00004fe4       ??_C@_0BA@GKMNJNC@Title?5overrides@ 100b5fe4     config_panel.obj
 0002:00004ff4       ??_C@_0BC@ICJHGKHF@title_toggle_grid@ 100b5ff4     config_panel.obj
 0002:00005008       ??_C@_0BG@DNKBPNFM@Override?5version?5text@ 100b6008     config_panel.obj
 0002:00005020       ??_C@_0BE@ELNANEOK@Replace?5login?5frame@ 100b6020     config_panel.obj
 0002:00005034       ??_C@_0BH@OEICABIN@Override?5version?5color@ 100b6034     config_panel.obj
 0002:0000504c       ??_C@_0BE@GLBABNLE@Clip?5version?5labels@ 100b604c     config_panel.obj
 0002:00005060       ??_C@_0BA@KPCADMAI@Login?5frame?5DDJ@ 100b6060     config_panel.obj
 0002:00005070       ??_C@_0BI@MAAMIMLI@EU?5login?5layout?5offsets@ 100b6070     config_panel.obj
 0002:00005088       ??_C@_0BB@CEOJPEDN@Data?5version?5fmt@ 100b6088     config_panel.obj
 0002:0000509c       ??_C@_0BA@LAKEBNOL@Exe?5version?5fmt@ 100b609c     config_panel.obj
 0002:000050ac       ??_C@_0BD@DMNGGMNH@title_numeric_grid@ 100b60ac     config_panel.obj
 0002:000050c0       ??_C@_0O@FCFDHGLA@Logo?5Y?5offset@ 100b60c0     config_panel.obj
 0002:000050d0       ??_C@_0BD@PIAKJMAK@Version?5clip?5width@ 100b60d0     config_panel.obj
 0002:000050e4       ??_C@_0BI@NEKKLMBE@Apply?5now?$CD?$CDtitle_config@ 100b60e4     config_panel.obj
 0002:000050fc       ??_C@_0BK@MDEPBOCE@Widget?5inspector?5defaults@ 100b60fc     config_panel.obj
 0002:00005118       ??_C@_0BF@CEDLEKOC@widget_defaults_grid@ 100b6118     config_panel.obj
 0002:00005130       ??_C@_0BC@CBPGBDOP@Auto?5refresh?5list@ 100b6130     config_panel.obj
 0002:00005144       ??_C@_0BC@NMKJNJPJ@Static?5texts?5only@ 100b6144     config_panel.obj
 0002:00005158       ??_C@_0BG@FPJDFGGD@Show?5alarm?5slot?5debug@ 100b6158     config_panel.obj
 0002:00005170       ??_C@_02DPKJAMEF@?$CFd@    100b6170     config_panel.obj
 0002:00005174       ??_C@_0L@FEOHCKPF@Walk?5depth@ 100b6174     config_panel.obj
 0002:00005180       ??_C@_0BB@IIEAMOKJ@Graphics?5Options@ 100b6180     config_panel.obj
 0002:00005194       ??_C@_0BM@PNMKNJOE@Enable?5sight?5range?5override@ 100b6194     config_panel.obj
 0002:000051b0       ??_C@_04FCMNJMCO@?$CFd?$CF?$CF@ 100b61b0     config_panel.obj
 0002:000051b8       ??_C@_0BE@ODBLFIEP@Override?5Percentage@ 100b61b8     config_panel.obj
 0002:000051cc       ??_C@_0CH@IAIBHDJJ@apply?5range?5?$CF?41f?5?$HM?5cell?5?$CFd?5?$HM?5fa@ 100b61cc     config_panel.obj
 0002:000051f4       ??_C@_0DF@LCEOFPJF@default?3?5dropdown?5setting?55?5aut@ 100b61f4     config_panel.obj
 0002:0000522c       ??_C@_0O@FPPGLHIJ@Active?5values@ 100b622c     config_panel.obj
 0002:0000523c       ??_C@_0DI@CPLNNOHB@option?5?$CFd?5?$CIindex?5?$CFd?$CJ?5?$HM?5range?5?$CF?4@ 100b623c     config_panel.obj
 0002:00005274       ??_C@_0BB@IHEMFIFN@world?5not?5loaded@ 100b6274     config_panel.obj
 0002:00005288       ??_C@_07ECEMPDJM@General@  100b6288     config_panel.obj
 0002:00005290       ??_C@_0P@LDBNALMC@Save?5on?5change@ 100b6290     config_panel.obj
 0002:000052a0       ??_C@_0L@IFGPIFCO@config?3?5?$CFs@ 100b62a0     config_panel.obj
 0002:000052ac       ??_C@_0N@MOJMJDJ@Save?$CD?$CDconfig@ 100b62ac     config_panel.obj
 0002:000052bc       ??_C@_0P@FLBIGJMJ@Reload?$CD?$CDconfig@ 100b62bc     config_panel.obj
 0002:000052cc       ??_C@_0O@CMLNBHCG@config_scroll@ 100b62cc     config_panel.obj
 0002:000052e0       __xmm@3f8000003e8000003f4000003f800000 100b62e0     config_panel.obj
 0002:000052f0       __xmm@3f8000003eb333333ee666663f800000 100b62f0     config_panel.obj
 0002:00005300       __xmm@3f8000003f8000003f4ccccd3ecccccd 100b6300     config_panel.obj
 0002:00005310       ??_C@_09GBJIEFIA@new?5label@ 100b6310     widget_inspector.obj
 0002:0000531c       ??_C@_04CGFJFPFD@none@     100b631c     widget_inspector.obj
 0002:00005324       ??_C@_0M@JGJOANLK@unavailable@ 100b6324     widget_inspector.obj
 0002:00005330       ??_C@_0BH@KNMKJOJ@IngameResMap?$EA0x1420408@ 100b6330     widget_inspector.obj
 0002:00005348       ??_C@_0BC@MCEONNCG@CGInterface?$CL0x374@ 100b6348     widget_inspector.obj
 0002:0000535c       ??_C@_07PNAFAKCI@?5?$DM?$CF?4?$CKs?$DO@ 100b635c     widget_inspector.obj
 0002:00005364       ??_C@_05KNNOJMJF@?5?$DM?$CFs?$DO@ 100b6364     widget_inspector.obj
 0002:0000536c       ??_C@_0L@EPCLJGKH@?5?$DMno?5text?$DO@ 100b636c     widget_inspector.obj
 0002:00005378       ??_C@_05BEAIAIDN@res?$HO?$DN@ 100b6378     widget_inspector.obj
 0002:00005380       ??_C@_04IKGICCML@res?$DN@  100b6380     widget_inspector.obj
 0002:00005388       ??_C@_09HMKHAJ@?5?$FLhidden?$FN@ 100b6388     widget_inspector.obj
 0002:00005394       ??_C@_0BE@BJBPFOCI@?$CF?$CKs?$FL?$CFs?$FN?5?$CFs?5?$CFs?$CFd?$CFs?$CFs@ 100b6394     widget_inspector.obj
 0002:000053a8       ??_C@_0BB@NPBHGCAB@?$CF?$CKs?$FL?$CFs?$FN?5?$CFs?$CFd?$CFs?$CFs@ 100b63a8     widget_inspector.obj
 0002:000053bc       ??_C@_0M@BLMLBPIO@?$CF?$CKs?$FL?$CFs?$FN?$CFs?$CFs@ 100b63bc     widget_inspector.obj
 0002:000053c8       ??_C@_0BL@EJOCDMBH@id?$DN?$CFd?5?5?$CFdx?$CFd?5?$EA?5?$CI?$CFd?0?$CFd?$CJ?5?5?$CFp@ 100b63c8     widget_inspector.obj
 0002:000053e4       ??_C@_0BD@JEOIOFMA@alarm?5mgr?5?$CFp?5id?$DN?$CFd@ 100b63e4     widget_inspector.obj
 0002:000053f8       ??_C@_0CE@HBADAFAG@?$CFzu?3?5type?$DN?$CFd?5active?$DN?$CFd?5status?$DN?$CF@ 100b63f8     widget_inspector.obj
 0002:0000541c       ??_C@_07PBAMIGHC@?5?5y?3?5?$CFs@ 100b641c     widget_inspector.obj
 0002:00005424       ??_C@_07JLMLHGLB@?5?5r?3?5?$CFs@ 100b6424     widget_inspector.obj
 0002:0000542c       ??_C@_09EJLIKODF@?5?5ref?3?5?$CFs@ 100b642c     widget_inspector.obj
 0002:00005438       ??_C@_09LGALMEFJ@?5?5tex?3?5?$CFs@ 100b6438     widget_inspector.obj
 0002:00005444       ??_C@_08DHHMAPDD@?5?5fx?3?5?$CFp@ 100b6444     widget_inspector.obj
 0002:00005450       ??_C@_0BM@NAKPJCEK@?$CFs?5?$CFs?5res?$DN?$CFd?5id?$DN?$CFd?5?$CFp?5?$CFs?5?$CFs@ 100b6450     widget_inspector.obj
 0002:0000546c       ??_C@_0P@LCGODNBK@?$CFs?5?$FL?$CFd?$FN?5?$FL?$CL?$CFzu?$FN@ 100b646c     widget_inspector.obj
 0002:0000547c       ??_C@_06PONKGHP@?$CD?$CDnode@ 100b647c     widget_inspector.obj
 0002:00005484       ??_C@_0BE@BLEHKCMD@?$CFdx?$CFd?5?$EA?5?$CI?$CFd?0?$CFd?$CJ?5?5?$CFp@ 100b6484     widget_inspector.obj
 0002:00005498       ??_C@_0BN@BAHMDDEH@Res?5map?5empty?5or?5unreadable?4@ 100b6498     widget_inspector.obj
 0002:000054b8       ??_C@_0BE@ODLJPDFA@0x?$CFX?5?$CFs?5?$FL?$CFd?$FN?5?$FL?$CL?$CFzu?$FN@ 100b64b8     widget_inspector.obj
 0002:000054cc       ??_C@_0L@GHDONHNM@?$CD?$CDmap_root@ 100b64cc     widget_inspector.obj
 0002:000054d8       ??_C@_04BAJDEDPD@Root@     100b64d8     widget_inspector.obj
 0002:000054e0       ??_C@_0DO@DPFMEPMP@Auto?$AAActive?5process?$AACGInterface@ 100b64e0     widget_inspector.obj
 0002:00005520       ??_C@_0M@BKMNKBMA@?$CD?$CDroot_pick@ 100b6520     widget_inspector.obj
 0002:0000552c       ??_C@_05HGMCJBLP@?$CIn?1a?$CJ@ 100b652c     widget_inspector.obj
 0002:00005534       ??_C@_05DNIIFBMG@?$CFs?5?$CFs@ 100b6534     widget_inspector.obj
 0002:0000553c       ??_C@_0BB@EBBJLGGD@outline?5on?5hover@ 100b653c     widget_inspector.obj
 0002:00005550       ??_C@_0L@JEHNNOMF@depth?$CD?$CDwid@ 100b6550     widget_inspector.obj
 0002:0000555c       ??_C@_0BC@LNAJODIH@visible?5only?$CD?$CDwid@ 100b655c     widget_inspector.obj
 0002:00005570       ??_C@_0BB@KPIGOGEF@static?5only?$CD?$CDwid@ 100b6570     widget_inspector.obj
 0002:00005584       ??_C@_0P@FBGEKKLA@deep?5scan?$CD?$CDwid@ 100b6584     widget_inspector.obj
 0002:00005594       ??_C@_0L@OHFKCHNB@probe?$CD?$CDwid@ 100b6594     widget_inspector.obj
 0002:000055a0       ??_C@_0DB@PLHEAACD@Search?5?$CIflat?5scan?$CJ?5?b?$IA?$JE?5leave?5em@ 100b65a0     widget_inspector.obj
 0002:000055d4       ??_C@_0BA@PBJLHINJ@?$CD?$CDwidget_search@ 100b65d4     widget_inspector.obj
 0002:000055e4       ??_C@_0M@PFCMJHLK@res?5id?$CD?$CDwid@ 100b65e4     widget_inspector.obj
 0002:000055f0       ??_C@_0O@HJPJMBHC@Clear?$CD?$CDwidres@ 100b65f0     widget_inspector.obj
 0002:00005600       ??_C@_0BC@MEKKPPJG@all?$AAshown?$AAhidden?$AA@ 100b6600     widget_inspector.obj
 0002:00005614       ??_C@_09HBJCDCHJ@show?$CD?$CDwid@ 100b6614     widget_inspector.obj
 0002:00005620       ??_C@_0BE@CBKFLGBC@hide?5?$DMno?5text?$DO?$CD?$CDwid@ 100b6620     widget_inspector.obj
 0002:00005634       ??_C@_09FLFGGEFL@Scan?$CD?$CDwid@ 100b6634     widget_inspector.obj
 0002:00005640       ??_C@_07CCIFFMHC@?$CIstale?$CJ@ 100b6640     widget_inspector.obj
 0002:00005648       ??_C@_08ONHKDFOD@?$CFzu?5hits@ 100b6648     widget_inspector.obj
 0002:00005654       ??_C@_05KLBFNLDO@Hover@    100b6654     widget_inspector.obj
 0002:0000565c       ??_C@_0CD@MPAAPIDB@Move?5the?5mouse?5over?5a?5game?5widg@ 100b665c     widget_inspector.obj
 0002:00005680       ??_C@_0M@EIFGEEB@hover_props@ 100b6680     widget_inspector.obj
 0002:0000568c       ??_C@_05EKAMNAII@Class@    100b668c     widget_inspector.obj
 0002:00005694       ??_C@_07EODJIPPN@Address@  100b6694     widget_inspector.obj
 0002:0000569c       ??_C@_08OMJGNOHD@UniqueID@ 100b669c     widget_inspector.obj
 0002:000056a8       ??_C@_0L@FECLNML@Runtime?5id@ 100b66a8     widget_inspector.obj
 0002:000056b4       ??_C@_06OJKCFPBI@Bounds@   100b66b4     widget_inspector.obj
 0002:000056bc       ??_C@_0O@GBBJNMO@?$CFd?0?5?$CFd?5?5?$CFdx?$CFd@ 100b66bc     widget_inspector.obj
 0002:000056cc       ??_C@_0BE@FDOBKFGG@Select?5hovered?$CD?$CDwid@ 100b66cc     widget_inspector.obj
 0002:000056e0       ??_C@_0DB@DDOOBFHF@Search?5active?5?b?$IA?$JE?5click?5Scan?5to@ 100b66e0     widget_inspector.obj
 0002:00005718       ??_C@_0FA@DPILOHMK@No?5CProcess?5child?5?b?$IA?$JE?5waits?5for@ 100b6718     widget_inspector.obj
 0002:00005768       ??_C@_0DL@PHHOJABM@Root?5not?5available?5?b?$IA?$JE?5try?5Auto@ 100b6768     widget_inspector.obj
 0002:000057a4       ??_C@_09HKIBPBNJ@Selection@ 100b67a4     widget_inspector.obj
 0002:000057b0       ??_C@_0DC@OOGKLJID@Click?5a?5widget?5in?5the?5tree?5or?5u@ 100b67b0     widget_inspector.obj
 0002:000057e4       ??_C@_09POLAFKAN@sel_props@ 100b67e4     widget_inspector.obj
 0002:000057f0       ??_C@_0BA@MMLCHJPN@?$CFdx?$CFd?5?$EA?5?$CI?$CFd?0?$CFd?$CJ@ 100b67f0     widget_inspector.obj
 0002:00005800       ??_C@_07EEOBFMHC@Res?5key@ 100b6800     widget_inspector.obj
 0002:00005808       ??_C@_0O@DJGGMOJO@?$CFd?5?$CIinferred?$CJ@ 100b6808     widget_inspector.obj
 0002:00005818       ??_C@_08PKGIHNCF@Res?5name@ 100b6818     widget_inspector.obj
 0002:00005824       ??_C@_07GKACAEDJ@Texture@  100b6824     widget_inspector.obj
 0002:0000582c       ??_C@_0M@PJPKPHHM@?$CD?$CDedit_text@ 100b682c     widget_inspector.obj
 0002:00005838       ??_C@_0L@EMEOOACM@color?$CD?$CDsel@ 100b6838     widget_inspector.obj
 0002:00005844       ??_C@_0L@GNFHCPGP@Apply?5text@ 100b6844     widget_inspector.obj
 0002:00005850       ??_C@_09BFHACKHP@Hide?$CD?$CDsel@ 100b6850     widget_inspector.obj
 0002:0000585c       ??_C@_09HAGONFJC@Show?$CD?$CDsel@ 100b685c     widget_inspector.obj
 0002:00005868       ??_C@_0N@PCMFIEKK@Destroy?$CD?$CDsel@ 100b6868     widget_inspector.obj
 0002:00005878       ??_C@_0M@FMMJCKOM@Spawn?5label@ 100b6878     widget_inspector.obj
 0002:00005884       ??_C@_0N@NKNOGCPE@?$CD?$CDspawn_text@ 100b6884     widget_inspector.obj
 0002:00005894       ??_C@_05OECCCLAL@x?$CD?$CDsp@ 100b6894     widget_inspector.obj
 0002:0000589c       ??_C@_05CPHOPIKO@y?$CD?$CDsp@ 100b689c     widget_inspector.obj
 0002:000058a4       ??_C@_05BFHEJJNO@w?$CD?$CDsp@ 100b68a4     widget_inspector.obj
 0002:000058ac       ??_C@_05OHPECJJA@h?$CD?$CDsp@ 100b68ac     widget_inspector.obj
 0002:000058b4       ??_C@_09FEEBLJEG@color?$CD?$CDsp@ 100b68b4     widget_inspector.obj
 0002:000058c0       ??_C@_05BEKPGMFA@Spawn@    100b68c0     widget_inspector.obj
 0002:000058c8       ??_C@_0BD@OOJMKOFD@empty?5?1?5unreadable@ 100b68c8     widget_inspector.obj
 0002:000058dc       ??_C@_07DFLFAFHD@res_map@  100b68dc     widget_inspector.obj
 0002:000058e4       ??_C@_03ICHNJLJF@key@      100b68e4     widget_inspector.obj
 0002:000058e8       ??_C@_05ENKANFLO@class@    100b68e8     widget_inspector.obj
 0002:000058f0       ??_C@_04HLBMEOMD@addr@     100b68f0     widget_inspector.obj
 0002:000058f8       ??_C@_03MEMNCOEB@uid@      100b68f8     widget_inspector.obj
 0002:000058fc       ??_C@_04HKJDGLEA@0x?$CFX@  100b68fc     widget_inspector.obj
 0002:00005904       ??_C@_06GOJKOLEL@?$CD?$CDpick@ 100b6904     widget_inspector.obj
 0002:0000590c       ??_C@_0BF@DNGMCOKC@Res?5maps?5?$CIread?9only?$CJ@ 100b690c     widget_inspector.obj
 0002:00005924       ??_C@_0DL@HDBHHPGL@Map?5keys?5are?5not?5UniqueIDs?4?5Saf@ 100b6924     widget_inspector.obj
 0002:00005960       ??_C@_0CE@KFECGLBL@Ingame?5NIF?5?$EA?50x1420408?5?$CIsub_401@ 100b6960     widget_inspector.obj
 0002:00005984       ??_C@_0CA@CAGDNONH@CGInterface?5?$CL0x374?5?$CIsub_9CF790?$CJ@ 100b6984     widget_inspector.obj
 0002:000059a4       ??_C@_0BC@MNMMGPMB@Alarm?5strip?5debug@ 100b69a4     widget_inspector.obj
 0002:000059b8       ??_C@_0BE@EGDMIPED@alarm?5mgr?5not?5found@ 100b69b8     widget_inspector.obj
 0002:000059cc       ??_C@_0O@NBFCCGPI@widget_footer@ 100b69cc     widget_inspector.obj
 0002:000059dc       ??_C@_0BD@PNGKNGF@widget_footer_cols@ 100b69dc     widget_inspector.obj
 0002:000059f0       ??_C@_05KMLJNOAI@hover@    100b69f0     widget_inspector.obj
 0002:000059f8       ??_C@_09DFNMPCAJ@selection@ 100b69f8     widget_inspector.obj
 0002:00005a04       ??_C@_0BB@CCMBMIEC@widget_tree_host@ 100b6a04     widget_inspector.obj
 0002:00005a18       ??_C@_05OENKALAF@Tools@    100b6a18     widget_inspector.obj
 0002:00005a20       ??_C@_0BL@GOIGLPKN@unordered_map?1set?5too?5long@ 100b6a20     widget_inspector.obj
 0002:00005a3c       ??_C@_0BK@OGNNAFAB@invalid?5hash?5bucket?5count@ 100b6a3c     widget_inspector.obj
 0002:00005a58       __real@40000000            100b6a58     widget_inspector.obj
 0002:00005a5c       __real@42f00000            100b6a5c     widget_inspector.obj
 0002:00005a60       __real@43540000            100b6a60     widget_inspector.obj
 0002:00005a70       __xmm@00000014000000c80000044c00000005 100b6a70     widget_inspector.obj
 0002:00005a80       __xmm@41f00000000000000000000000000000 100b6a80     widget_inspector.obj
 0002:00005a90       ??_C@_03KKDAPHBH@CPS@      100b6a90     cif_manager.obj
 0002:00005a94       ??_C@_04HCNNGMFF@?4?$DPAV@ 100b6a94     cif_manager.obj
 0002:00005a9c       ??_C@_04FJPADPJG@?4?$DPAU@ 100b6a9c     cif_manager.obj
 0002:00005aa4       ??_C@_02IAFNOECI@?$EA?$EA@ 100b6aa4     cif_manager.obj
 0002:00005aa8       ??_C@_09DPGMEIBM@CIFStatic@ 100b6aa8     cif_manager.obj
 0002:00005ab4       ??_C@_0BF@JIDFIOMI@CIFFacebookLinkAlram@ 100b6ab4     cif_manager.obj
 0002:00005acc       ??_C@_0BC@JDEHGOI@CIFMagicLampAlram@ 100b6acc     cif_manager.obj
 0002:00005ae0       ??_C@_0BD@GNNJEBEA@CIFDailyLoginAlram@ 100b6ae0     cif_manager.obj
 0002:00005af4       ??_C@_09CMLKBGMO@CIFButton@ 100b6af4     cif_manager.obj
 0002:00005b00       ??_C@_07BNFPMHHD@CIFEdit@  100b6b00     cif_manager.obj
 0002:00005b08       ??_C@_0BD@OBHAGDH@CIFDecoratedStatic@ 100b6b08     cif_manager.obj
 0002:00005b1c       ??_C@_06PNJGMGLK@CIFWnd@   100b6b1c     cif_manager.obj
 0002:00005b24       ??_C@_0BC@KDHOMEGP@CAlramGuideMgrWnd@ 100b6b24     cif_manager.obj
 0002:00005b38       ??_C@_0M@LKCHIOFC@CGInterface@ 100b6b38     cif_manager.obj
 0002:00005b44       ??_C@_0BD@GBGPCFBH@CPSCharacterSelect@ 100b6b44     cif_manager.obj
 0002:00005b58       ??_C@_05DICANNFF@CGWnd@    100b6b58     cif_manager.obj
 0002:00005b60       ??_C@_08EPGCIIGH@IFStatic@ 100b6b60     cif_manager.obj
 0002:00005b6c       ??_C@_11LOCGONAA@@         100b6b6c     msvc9_stl.obj
 0002:00005d58       ??_C@_0BO@MJFCLPIC@resinfo?2pscharacterselect?4txt@ 100b6d58     ui_res_catalog.obj
 0002:00005d78       ??_C@_0BE@FKCDDIGM@resinfo?2pstitle?4txt@ 100b6d78     ui_res_catalog.obj
 0002:00005d8c       ??_C@_0M@MLCONGPP@?$CFd?0?$CFd?0?$CFd?0?$CFd@ 100b6d8c     ui_res_catalog.obj
 0002:00005d98       ??_C@_02OLOABKKD@ID@       100b6d98     ui_res_catalog.obj
 0002:00005d9c       ??_C@_03LHMIGNBK@DDJ@      100b6d9c     ui_res_catalog.obj
 0002:00005da0       ??_C@_04HGDEFKPD@Rect@     100b6da0     ui_res_catalog.obj
 0002:00005da8       ??_C@_04HDOCAJNK@?$CFs?$CFs@ 100b6da8     ui_res_catalog.obj
 0002:00005db0       ??_C@_0L@IGAEGPCP@?$CFsMedia?2?$CFs@ 100b6db0     ui_res_catalog.obj
 0002:00005dbc       ??_C@_04JFGDPIJE@GDR_@     100b6dbc     ui_res_catalog.obj
 0002:00005de8       ??_C@_0P@HMDPHAPE@facebook_1?4ddj@ 100b6de8     calarm_guide_mgr_wnd.obj
 0002:00005df8       ??_C@_0P@PKKLACFK@facebook_2?4ddj@ 100b6df8     calarm_guide_mgr_wnd.obj
 0002:00005e08       ??_C@_0BA@KBMOEJAC@webgacha2_0?4ddj@ 100b6e08     calarm_guide_mgr_wnd.obj
 0002:00005e18       ??_C@_0BB@CNKBAOGK@dailylogin_0?4ddj@ 100b6e18     calarm_guide_mgr_wnd.obj
 0002:00005e2c       ??_C@_0BA@KAIMIBBJ@CIFWebItemAlram@ 100b6e2c     calarm_guide_mgr_wnd.obj
 0002:00005e3c       ??_C@_0BE@NKBFGDJJ@CIFMacroSystemGuide@ 100b6e3c     calarm_guide_mgr_wnd.obj
 0002:00005e50       ?known@child_ids@cg_interface@offsets@ext_client@@3QBHB 100b6e50     cg_interface.obj
 0002:00005fb4       ??_C@_02CFKBDFGI@?1?2@     100b6fb4     process.obj
 0002:00005fb8       ??_C@_02HHAEMJFE@?2?1@     100b6fb8     string.obj
 0002:00005fbc       ??_C@_04HHCDBDLF@?5?7?$AN?6@ 100b6fbc     string.obj
 0002:00005fc4       __real@00000000            100b6fc4     vectorf.obj
 0002:00005fc8       __real@358637bd            100b6fc8     vectorf.obj
 0002:00005fcc       __real@3f000000            100b6fcc     vectorf.obj
 0002:00005fd0       __real@3f800000            100b6fd0     vectorf.obj
 0002:00005fd4       __real@40400000            100b6fd4     vectorf.obj
 0002:00005fd8       __real@40800000            100b6fd8     vectorf.obj
 0002:00005fdc       __real@40a00000            100b6fdc     vectorf.obj
 0002:00005fe0       __real@7f7fffff            100b6fe0     vectorf.obj
 0002:00005ff0       __xmm@7fffffff7fffffff7fffffff7fffffff 100b6ff0     vectorf.obj
 0002:00006000       __xmm@80000000800000008000000080000000 100b7000     vectorf.obj
 0002:00006910       ??_C@_03IEAKBACE@Tab@      100b7910     imgui.obj
 0002:00006914       ??_C@_0BK@EHABPKJJ@Dear?5ImGui?51?490?49?5?$CI19090?$CJ@ 100b7914     imgui.obj
 0002:00006930       ??_C@_0BN@CNPDCOK@Size?5column?5to?5fit?$CD?$CD?$CDSizeOne@ 100b7930     imgui.obj
 0002:00006950       ??_C@_0CC@MJIBPDCL@Size?5all?5columns?5to?5fit?$CD?$CD?$CDSizeA@ 100b7950     imgui.obj
 0002:00006974       ??_C@_0CG@CFICKNDA@Size?5all?5columns?5to?5default?$CD?$CD?$CDS@ 100b7974     imgui.obj
 0002:0000699c       ??_C@_0BJ@BBKAOKNK@Reset?5order?$CD?$CD?$CDResetOrder@ 100b799c     imgui.obj
 0002:000069b8       ??_C@_0BA@KDPNEDEH@?$CIMain?5menu?5bar?$CJ@ 100b79b8     imgui.obj
 0002:000069c8       ??_C@_07NPLNEKJH@?$CIPopup?$CJ@ 100b79c8     imgui.obj
 0002:000069d0       ??_C@_0L@JOJOIPFK@?$CIUntitled?$CJ@ 100b79d0     imgui.obj
 0002:000069dc       ??_C@_09CFHBIIBF@LeftArrow@ 100b79dc     imgui.obj
 0002:000069e8       ??_C@_0L@BPKGMHEK@RightArrow@ 100b79e8     imgui.obj
 0002:000069f4       ??_C@_07MOKGGMEC@UpArrow@  100b79f4     imgui.obj
 0002:000069fc       ??_C@_09NADHLAEK@DownArrow@ 100b79fc     imgui.obj
 0002:00006a08       ??_C@_06OAEMCMAI@PageUp@   100b7a08     imgui.obj
 0002:00006a10       ??_C@_08FDLMHKA@PageDown@  100b7a10     imgui.obj
 0002:00006a1c       ??_C@_04GKJODLKO@Home@     100b7a1c     imgui.obj
 0002:00006a24       ??_C@_03DBKJMAGF@End@      100b7a24     imgui.obj
 0002:00006a28       ??_C@_06CPFCODOD@Insert@   100b7a28     imgui.obj
 0002:00006a30       ??_C@_06JBKGCNBB@Delete@   100b7a30     imgui.obj
 0002:00006a38       ??_C@_09LPBCIPOJ@Backspace@ 100b7a38     imgui.obj
 0002:00006a44       ??_C@_05OMHELODH@Space@    100b7a44     imgui.obj
 0002:00006a4c       ??_C@_05IAOCCJNL@Enter@    100b7a4c     imgui.obj
 0002:00006a54       ??_C@_06OIGFGPHJ@Escape@   100b7a54     imgui.obj
 0002:00006a5c       ??_C@_08KELNAOFC@LeftCtrl@ 100b7a5c     imgui.obj
 0002:00006a68       ??_C@_09OCNLBMHE@LeftShift@ 100b7a68     imgui.obj
 0002:00006a74       ??_C@_07MGKIIPNA@LeftAlt@  100b7a74     imgui.obj
 0002:00006a7c       ??_C@_09DKGEOIN@LeftSuper@ 100b7a7c     imgui.obj
 0002:00006a88       ??_C@_09MGKDJPDD@RightCtrl@ 100b7a88     imgui.obj
 0002:00006a94       ??_C@_0L@NIAMFDCL@RightShift@ 100b7a94     imgui.obj
 0002:00006aa0       ??_C@_08FCEDBIM@RightAlt@  100b7aa0     imgui.obj
 0002:00006aac       ??_C@_0L@DJHBABNC@RightSuper@ 100b7aac     imgui.obj
 0002:00006ab8       ??_C@_04IFEHPILC@Menu@     100b7ab8     imgui.obj
 0002:00006ac0       ??_C@_01FDFGLJHB@2@        100b7ac0     imgui.obj
 0002:00006ac4       ??_C@_01EKENIIDA@3@        100b7ac4     imgui.obj
 0002:00006ac8       ??_C@_01FAMBOPH@4@         100b7ac8     imgui.obj
 0002:00006acc       ??_C@_01BMBHCPLG@5@        100b7acc     imgui.obj
 0002:00006ad0       ??_C@_01DHDKHMHF@6@        100b7ad0     imgui.obj
 0002:00006ad4       ??_C@_01COCBENDE@7@        100b7ad4     imgui.obj
 0002:00006ad8       ??_C@_01KJLJFBPL@8@        100b7ad8     imgui.obj
 0002:00006adc       ??_C@_01LAKCGALK@9@        100b7adc     imgui.obj
 0002:00006ae0       ??_C@_01FHEEJDEE@A@        100b7ae0     imgui.obj
 0002:00006ae4       ??_C@_01HMGJMAIH@B@        100b7ae4     imgui.obj
 0002:00006ae8       ??_C@_01GFHCPBMG@C@        100b7ae8     imgui.obj
 0002:00006aec       ??_C@_01CKDDGHAB@D@        100b7aec     imgui.obj
 0002:00006af0       ??_C@_01DDCIFGEA@E@        100b7af0     imgui.obj
 0002:00006af4       ??_C@_01BIAFAFID@F@        100b7af4     imgui.obj
 0002:00006af8       ??_C@_01BBODEMC@G@         100b7af8     imgui.obj
 0002:00006afc       ??_C@_01IGIGCIAN@H@        100b7afc     imgui.obj
 0002:00006b00       ??_C@_01JPJNBJEM@I@        100b7b00     imgui.obj
 0002:00006b04       ??_C@_01LELAEKIP@J@        100b7b04     imgui.obj
 0002:00006b08       ??_C@_01KNKLHLMO@K@        100b7b08     imgui.obj
 0002:00006b0c       ??_C@_01OCOKONAJ@L@        100b7b0c     imgui.obj
 0002:00006b10       ??_C@_01PLPBNMEI@M@        100b7b10     imgui.obj
 0002:00006b14       ??_C@_01NANMIPIL@N@        100b7b14     imgui.obj
 0002:00006b18       ??_C@_01MJMHLOMK@O@        100b7b18     imgui.obj
 0002:00006b1c       ??_C@_01EJNLAFE@P@         100b7b1c     imgui.obj
 0002:00006b20       ??_C@_01BNIGIBBF@Q@        100b7b20     imgui.obj
 0002:00006b24       ??_C@_01DGKLNCNG@R@        100b7b24     imgui.obj
 0002:00006b28       ??_C@_01CPLAODJH@S@        100b7b28     imgui.obj
 0002:00006b2c       ??_C@_01GAPBHFFA@T@        100b7b2c     imgui.obj
 0002:00006b30       ??_C@_01HJOKEEBB@U@        100b7b30     imgui.obj
 0002:00006b34       ??_C@_01FCMHBHNC@V@        100b7b34     imgui.obj
 0002:00006b38       ??_C@_01ELNMCGJD@W@        100b7b38     imgui.obj
 0002:00006b3c       ??_C@_01MMEEDKFM@X@        100b7b3c     imgui.obj
 0002:00006b40       ??_C@_01NFFPALBN@Y@        100b7b40     imgui.obj
 0002:00006b44       ??_C@_01POHCFINO@Z@        100b7b44     imgui.obj
 0002:00006b48       ??_C@_02LCPENACN@F1@       100b7b48     imgui.obj
 0002:00006b4c       ??_C@_02JJNJIDOO@F2@       100b7b4c     imgui.obj
 0002:00006b50       ??_C@_02IAMCLCKP@F3@       100b7b50     imgui.obj
 0002:00006b54       ??_C@_02MPIDCEGI@F4@       100b7b54     imgui.obj
 0002:00006b58       ??_C@_02NGJIBFCJ@F5@       100b7b58     imgui.obj
 0002:00006b5c       ??_C@_02PNLFEGOK@F6@       100b7b5c     imgui.obj
 0002:00006b60       ??_C@_02OEKOHHKL@F7@       100b7b60     imgui.obj
 0002:00006b64       ??_C@_02GDDGGLGE@F8@       100b7b64     imgui.obj
 0002:00006b68       ??_C@_02HKCNFKCF@F9@       100b7b68     imgui.obj
 0002:00006b6c       ??_C@_03JKCLJOFG@F10@      100b7b6c     imgui.obj
 0002:00006b70       ??_C@_03IDDAKPBH@F11@      100b7b70     imgui.obj
 0002:00006b74       ??_C@_03KIBNPMNE@F12@      100b7b74     imgui.obj
 0002:00006b78       ??_C@_03LBAGMNJF@F13@      100b7b78     imgui.obj
 0002:00006b7c       ??_C@_03POEHFLFC@F14@      100b7b7c     imgui.obj
 0002:00006b80       ??_C@_03OHFMGKBD@F15@      100b7b80     imgui.obj
 0002:00006b84       ??_C@_03MMHBDJNA@F16@      100b7b84     imgui.obj
 0002:00006b88       ??_C@_03NFGKAIJB@F17@      100b7b88     imgui.obj
 0002:00006b8c       ??_C@_03FCPCBEFO@F18@      100b7b8c     imgui.obj
 0002:00006b90       ??_C@_03ELOJCFBP@F19@      100b7b90     imgui.obj
 0002:00006b94       ??_C@_03JIGNCAAP@F20@      100b7b94     imgui.obj
 0002:00006b98       ??_C@_03IBHGBBEO@F21@      100b7b98     imgui.obj
 0002:00006b9c       ??_C@_03KKFLECIN@F22@      100b7b9c     imgui.obj
 0002:00006ba0       ??_C@_03LDEAHDMM@F23@      100b7ba0     imgui.obj
 0002:00006ba4       ??_C@_03PMABOFAL@F24@      100b7ba4     imgui.obj
 0002:00006ba8       ??_C@_0L@KECMMICK@Apostrophe@ 100b7ba8     imgui.obj
 0002:00006bb4       ??_C@_05CJDGOLEJ@Comma@    100b7bb4     imgui.obj
 0002:00006bbc       ??_C@_05OEAIFCGM@Minus@    100b7bbc     imgui.obj
 0002:00006bc4       ??_C@_06JOFJHOEH@Period@   100b7bc4     imgui.obj
 0002:00006bcc       ??_C@_05OAOMBJIJ@Slash@    100b7bcc     imgui.obj
 0002:00006bd4       ??_C@_09FBGFMNJC@Semicolon@ 100b7bd4     imgui.obj
 0002:00006be0       ??_C@_05JKGNJOO@Equal@     100b7be0     imgui.obj
 0002:00006be8       ??_C@_0M@FGLAPLO@LeftBracket@ 100b7be8     imgui.obj
 0002:00006bf4       ??_C@_09LDIKCIFH@Backslash@ 100b7bf4     imgui.obj
 0002:00006c00       ??_C@_0N@NOCLCIPD@RightBracket@ 100b7c00     imgui.obj
 0002:00006c10       ??_C@_0M@PEGEKEFO@GraveAccent@ 100b7c10     imgui.obj
 0002:00006c1c       ??_C@_08LBKIEOPK@CapsLock@ 100b7c1c     imgui.obj
 0002:00006c28       ??_C@_0L@JJJEGPLJ@ScrollLock@ 100b7c28     imgui.obj
 0002:00006c34       ??_C@_07JOCOIGEJ@NumLock@  100b7c34     imgui.obj
 0002:00006c3c       ??_C@_0M@CJIDBHOK@PrintScreen@ 100b7c3c     imgui.obj
 0002:00006c48       ??_C@_05PEDNBBBD@Pause@    100b7c48     imgui.obj
 0002:00006c50       ??_C@_07PBFJOEMA@Keypad0@  100b7c50     imgui.obj
 0002:00006c58       ??_C@_07OIECNFIB@Keypad1@  100b7c58     imgui.obj
 0002:00006c60       ??_C@_07MDGPIGEC@Keypad2@  100b7c60     imgui.obj
 0002:00006c68       ??_C@_07NKHELHAD@Keypad3@  100b7c68     imgui.obj
 0002:00006c70       ??_C@_07JFDFCBME@Keypad4@  100b7c70     imgui.obj
 0002:00006c78       ??_C@_07IMCOBAIF@Keypad5@  100b7c78     imgui.obj
 0002:00006c80       ??_C@_07KHADEDEG@Keypad6@  100b7c80     imgui.obj
 0002:00006c88       ??_C@_07LOBIHCAH@Keypad7@  100b7c88     imgui.obj
 0002:00006c90       ??_C@_07DJIAGOMI@Keypad8@  100b7c90     imgui.obj
 0002:00006c98       ??_C@_07CAJLFPIJ@Keypad9@  100b7c98     imgui.obj
 0002:00006ca0       ??_C@_0O@GMHIBIOG@KeypadDecimal@ 100b7ca0     imgui.obj
 0002:00006cb0       ??_C@_0N@IOPGAACF@KeypadDivide@ 100b7cb0     imgui.obj
 0002:00006cc0       ??_C@_0P@DDMFINAM@KeypadMultiply@ 100b7cc0     imgui.obj
 0002:00006cd0       ??_C@_0P@EGJPMAKL@KeypadSubtract@ 100b7cd0     imgui.obj
 0002:00006ce0       ??_C@_09PBFBAKNA@KeypadAdd@ 100b7ce0     imgui.obj
 0002:00006cec       ??_C@_0M@LDMAMCMH@KeypadEnter@ 100b7cec     imgui.obj
 0002:00006cf8       ??_C@_0M@DKIEDCPC@KeypadEqual@ 100b7cf8     imgui.obj
 0002:00006d04       ??_C@_07PFJBGDFF@AppBack@  100b7d04     imgui.obj
 0002:00006d0c       ??_C@_0L@MPDOCLPJ@AppForward@ 100b7d0c     imgui.obj
 0002:00006d18       ??_C@_0N@KFODLNBI@GamepadStart@ 100b7d18     imgui.obj
 0002:00006d28       ??_C@_0M@BMKDKCOL@GamepadBack@ 100b7d28     imgui.obj
 0002:00006d34       ??_C@_0BA@LLLNHFDH@GamepadFaceLeft@ 100b7d34     imgui.obj
 0002:00006d44       ??_C@_0BB@KCPJBHBD@GamepadFaceRight@ 100b7d44     imgui.obj
 0002:00006d58       ??_C@_0O@NEIKDCMN@GamepadFaceUp@ 100b7d58     imgui.obj
 0002:00006d68       ??_C@_0BA@EJLJONAO@GamepadFaceDown@ 100b7d68     imgui.obj
 0002:00006d78       ??_C@_0BA@HJJJKOII@GamepadDpadLeft@ 100b7d78     imgui.obj
 0002:00006d88       ??_C@_0BB@PJOFJNNF@GamepadDpadRight@ 100b7d88     imgui.obj
 0002:00006d9c       ??_C@_0O@EJODMGNP@GamepadDpadUp@ 100b7d9c     imgui.obj
 0002:00006dac       ??_C@_0BA@ILJNDGLB@GamepadDpadDown@ 100b7dac     imgui.obj
 0002:00006dbc       ??_C@_09BNICIIOB@GamepadL1@ 100b7dbc     imgui.obj
 0002:00006dc8       ??_C@_09LDKAGJL@GamepadR1@ 100b7dc8     imgui.obj
 0002:00006dd4       ??_C@_09DGKPNLCC@GamepadL2@ 100b7dd4     imgui.obj
 0002:00006de0       ??_C@_09CABHFFFI@GamepadR2@ 100b7de0     imgui.obj
 0002:00006dec       ??_C@_09CPLEOKGD@GamepadL3@ 100b7dec     imgui.obj
 0002:00006df8       ??_C@_09DJAMGEBJ@GamepadR3@ 100b7df8     imgui.obj
 0002:00006e04       ??_C@_0BC@MGONIKHG@GamepadLStickLeft@ 100b7e04     imgui.obj
 0002:00006e18       ??_C@_0BD@KDFPDGOK@GamepadLStickRight@ 100b7e18     imgui.obj
 0002:00006e2c       ??_C@_0BA@NNMPJILJ@GamepadLStickUp@ 100b7e2c     imgui.obj
 0002:00006e3c       ??_C@_0BC@DEOJBCEP@GamepadLStickDown@ 100b7e3c     imgui.obj
 0002:00006e50       ??_C@_0BC@DKGNGFLL@GamepadRStickLeft@ 100b7e50     imgui.obj
 0002:00006e64       ??_C@_0BD@EGHGAIAI@GamepadRStickRight@ 100b7e64     imgui.obj
 0002:00006e78       ??_C@_0BA@LJMNABFK@GamepadRStickUp@ 100b7e78     imgui.obj
 0002:00006e88       ??_C@_0BC@MIGJPNIC@GamepadRStickDown@ 100b7e88     imgui.obj
 0002:00006e9c       ??_C@_09DBACHFO@MouseLeft@ 100b7e9c     imgui.obj
 0002:00006ea8       ??_C@_0L@JGCPGDLN@MouseRight@ 100b7ea8     imgui.obj
 0002:00006eb4       ??_C@_0M@CDBJKEDH@MouseMiddle@ 100b7eb4     imgui.obj
 0002:00006ec0       ??_C@_07BICMLCEA@MouseX1@  100b7ec0     imgui.obj
 0002:00006ec8       ??_C@_07DDABOBID@MouseX2@  100b7ec8     imgui.obj
 0002:00006ed0       ??_C@_0M@MENPLCHJ@MouseWheelX@ 100b7ed0     imgui.obj
 0002:00006edc       ??_C@_0M@NNMEIDDI@MouseWheelY@ 100b7edc     imgui.obj
 0002:00006ee8       ??_C@_07KDONALCN@ModCtrl@  100b7ee8     imgui.obj
 0002:00006ef0       ??_C@_08CCGGCANM@ModShift@ 100b7ef0     imgui.obj
 0002:00006efc       ??_C@_06PLGJOJNE@ModAlt@   100b7efc     imgui.obj
 0002:00006f04       ??_C@_08MDBLHCCF@ModSuper@ 100b7f04     imgui.obj
 0002:00006f10       ??_C@_0P@HEMCFMMD@?$CKMissing?5Text?$CK@ 100b7f10     imgui.obj
 0002:00006f20       ??_C@_09BJIHMJFE@imgui?4ini@ 100b7f20     imgui.obj
 0002:00006f2c       ??_C@_0O@HCOAADPE@imgui_log?4txt@ 100b7f2c     imgui.obj
 0002:00006f3c       ??_C@_0DA@JJPCHNLN@?$FLio?$FN?5Super?$CLLeft?5Click?5aliased?5i@ 100b7f3c     imgui.obj
 0002:00006f6c       ??_C@_06OJHGLDPL@?$CInull?$CJ@ 100b7f6c     imgui.obj
 0002:00006fe4       ??_C@_0CB@GNIOCDHI@Clipper?3?5Begin?$CI?$CFd?0?$CF?42f?$CJ?5in?5?8?$CFs?8@ 100b7fe4     imgui.obj
 0002:00007008       ??_C@_0BI@CAOKIKBG@Clipper?3?5End?$CI?$CJ?5in?5?8?$CFs?8?6@ 100b8008     imgui.obj
 0002:00007020       ??_C@_0CL@INMALPKG@Clipper?3?5Step?$CI?$CJ?3?5inside?5frozen?5@ 100b8020     imgui.obj
 0002:0000704c       ??_C@_0CO@DPDPBJBN@Clipper?3?5Step?$CI?$CJ?3?5computed?5Items@ 100b804c     imgui.obj
 0002:0000707c       ??_C@_0CE@JEMCBOCJ@Clipper?3?5Step?$CI?$CJ?3?5display?5?$CFd?5to?5@ 100b807c     imgui.obj
 0002:000070a0       ??_C@_0BH@MKOKNAKC@Clipper?3?5Step?$CI?$CJ?3?5End?4?6@ 100b80a0     imgui.obj
 0002:000070b8       ??_C@_07NBCGADJA@Unknown@  100b80b8     imgui.obj
 0002:000070c0       ??_C@_06BKKJGDHO@Window@   100b80c0     imgui.obj
 0002:000070c8       ??_C@_05EJCOBEBF@?$CDMOVE@ 100b80c8     imgui.obj
 0002:000070d0       ??_C@_0CD@PNHNJJBD@SetActiveID?$CI?$CJ?5cancel?5MovingWind@ 100b80d0     imgui.obj
 0002:000070f8       ??_C@_0EE@BGNDHHFI@SetActiveID?$CI?$CJ?5old?30x?$CF08X?5?$CIwindo@ 100b80f8     imgui.obj
 0002:0000713c       ??_C@_06DBGMCOCH@1?490?49@ 100b813c     imgui.obj
 0002:00007144       ??_C@_0N@MFFOHPLI@?$CD?$CDBackground@ 100b8144     imgui.obj
 0002:00007154       ??_C@_0N@MFHPHIIJ@?$CD?$CDForeground@ 100b8154     imgui.obj
 0002:00007168       ??_C@_0EE@CAHEIKBO@NewFrame?$CI?$CJ?3?5ClearActiveID?$CI?$CJ?5bec@ 100b8168     imgui.obj
 0002:000071b0       ??_C@_0ED@GDNFFPHD@?$CIDebug?5Log?3?5Auto?9disabled?5some?5@ 100b81b0     imgui.obj
 0002:000071f4       ??_C@_0P@IMLDNMEK@Debug?$CD?$CDDefault@ 100b81f4     imgui.obj
 0002:00007208       ??_C@_0EP@CMIOMJGE@?$FLio?$FN?5Calling?5io?4SetPlatformImeD@ 100b8208     imgui.obj
 0002:00007258       ??_C@_03KHICJKCI@?4?4?4@   100b8258     imgui.obj
 0002:0000725c       ??_C@_0L@BDFLDJGI@?$CFs?1?$CFs_?$CF08X@ 100b825c     imgui.obj
 0002:00007268       ??_C@_07KBCBAKFA@?$CFs?1?$CF08X@ 100b8268     imgui.obj
 0002:00007270       ??_C@_07DFINAGAC@?$CD?$CDChild@ 100b8270     imgui.obj
 0002:00007278       ??_C@_07HDHBJEOI@?$CDRESIZE@ 100b8278     imgui.obj
 0002:00007280       ??_C@_09BJOGEADB@?$CDCOLLAPSE@ 100b8280     imgui.obj
 0002:0000728c       ??_C@_06KIIKKNMI@?$CDCLOSE@ 100b828c     imgui.obj
 0002:00007294       ??_C@_06CBHGEMFM@?$DMNULL?$DO@ 100b8294     imgui.obj
 0002:000072a0       ??_C@_0EB@KDILIEDM@?$FLfocus?$FN?5FocusWindow?$CI?$CC?$CFs?$CC?0?5Unles@ 100b82a0     imgui.obj
 0002:000072e4       ??_C@_04OHJIHAFH@None@     100b82e4     imgui.obj
 0002:000072ec       ??_C@_03HPADHAHE@N?1A@     100b82ec     imgui.obj
 0002:000072f0       ??_C@_06PPGOOJHA@Super?$CL@ 100b82f0     imgui.obj
 0002:000072f8       ??_C@_04IDGAMEF@Alt?$CL@   100b82f8     imgui.obj
 0002:00007300       ??_C@_06DLOONOJK@Shift?$CL@ 100b8300     imgui.obj
 0002:00007308       ??_C@_05DNCIMHKL@Ctrl?$CL@ 100b8308     imgui.obj
 0002:00007310       ??_C@_0L@MOHIGKOO@?$CFs?$CFs?$CFs?$CFs?$CFs@ 100b8310     imgui.obj
 0002:00007320       ??_C@_0EM@FHOJENCA@SetShortcutRouting?$CI?$CFs?0?5flags?$DN?$CF0@ 100b8320     imgui.obj
 0002:00007370       ??_C@_0FJ@JHBPHBJP@SetShortcutRouting?$CI?$CFs?0?5flags?$DN?$CF0@ 100b8370     imgui.obj
 0002:000073d0       ??_C@_0EB@MBBKFMAH@SetShortcutRouting?$CI?$CFs?0?5flags?$DN?$CF0@ 100b83d0     imgui.obj
 0002:00007414       ??_C@_0BM@NCIGIPBK@?9?9?$DO?5granting?5current?5route?6@ 100b8414     imgui.obj
 0002:00007430       ??_C@_04HIBGFPH@NULL@      100b8430     imgui.obj
 0002:00007438       ??_C@_0CA@IDIONDFE@?$FLio?$FN?5LockWheelingWindow?$CI?$CJ?5?$CC?$CFs?$CC?6@ 100b8438     imgui.obj
 0002:00007458       ??_C@_05PEEFLODH@Mouse@    100b8458     imgui.obj
 0002:00007460       ??_C@_0M@KICOAHAM@TouchScreen@ 100b8460     imgui.obj
 0002:0000746c       ??_C@_03KANEGAKD@Pen@      100b846c     imgui.obj
 0002:00007470       ??_C@_0CI@NLCAGBEH@?$FLio?$FN?5?$CFs?3?5MousePos?5?$CI?9FLT_MAX?0?5?9F@ 100b8470     imgui.obj
 0002:00007498       ??_C@_0CF@BKHCFEMJ@?$FLio?$FN?5?$CFs?3?5MousePos?5?$CI?$CF?41f?0?5?$CF?41f?$CJ?5@ 100b8498     imgui.obj
 0002:000074c0       ??_C@_04FNCLCJMC@Down@     100b84c0     imgui.obj
 0002:000074c8       ??_C@_02EFPGLDEA@Up@       100b84c8     imgui.obj
 0002:000074cc       ??_C@_0CB@MABBEIGA@?$FLio?$FN?5?$CFs?3?5MouseButton?5?$CFd?5?$CFs?5?$CI?$CFs?$CJ@ 100b84cc     imgui.obj
 0002:000074f0       ??_C@_0CH@OGJIDLOF@?$FLio?$FN?5?$CFs?3?5MouseWheel?5?$CI?$CF?43f?0?5?$CF?43f@ 100b84f0     imgui.obj
 0002:00007518       ??_C@_0BG@BAABPACK@?$FLio?$FN?5?$CFs?3?5Key?5?$CC?$CFs?$CC?5?$CFs?6@ 100b8518     imgui.obj
 0002:00007530       ??_C@_0BM@HGMGDMMC@?$FLio?$FN?5?$CFs?3?5Text?3?5?$CFc?5?$CIU?$CL?$CF08X?$CJ?6@ 100b8530     imgui.obj
 0002:0000754c       ??_C@_0BI@JDDIGJON@?$FLio?$FN?5?$CFs?3?5AppFocused?5?$CFd?6@ 100b854c     imgui.obj
 0002:00007564       ??_C@_09BIONLCBB@Processed@ 100b8564     imgui.obj
 0002:00007570       ??_C@_09PGGNMDFB@Remaining@ 100b8570     imgui.obj
 0002:0000757c       ??_C@_0P@DHLMFJKK@?$CD?$CDTooltip_?$CF02d@ 100b857c     imgui.obj
 0002:0000758c       ??_C@_0CD@LOACMKE@?$FLpopup?$FN?5OpenPopup?$CI?$CC?$CFs?$CC?5?9?$DO?50x?$CF08@ 100b858c     imgui.obj
 0002:000075b0       ??_C@_0BN@MEGOLGEO@?$FLpopup?$FN?5OpenPopupEx?$CI0x?$CF08X?$CJ?6@ 100b85b0     imgui.obj
 0002:000075d0       ??_C@_0CF@KJFMKFLJ@?$FLpopup?$FN?5ClosePopupsOverWindow?$CI?$CC@ 100b85d0     imgui.obj
 0002:000075f8       ??_C@_0DB@MJNKEABH@?$FLpopup?$FN?5ClosePopupToLevel?$CI?$CFd?$CJ?0?5@ 100b85f8     imgui.obj
 0002:0000762c       ??_C@_0CE@FCCNCIKM@?$FLpopup?$FN?5CloseCurrentPopup?5?$CFd?5?9?$DO@ 100b862c     imgui.obj
 0002:00007650       ??_C@_0M@NANGKBBK@?$CD?$CDMenu_?$CF02d@ 100b8650     imgui.obj
 0002:0000765c       ??_C@_0N@PIPFDMLM@?$CD?$CDPopup_?$CF08x@ 100b865c     imgui.obj
 0002:0000766c       ??_C@_0BM@CFDBCOKD@?$FLfocus?$FN?5SetNavWindow?$CI?$CC?$CFs?$CC?$CJ?6@ 100b866c     imgui.obj
 0002:00007688       ??_C@_0DK@NLPDJHKG@?$FLfocus?$FN?5NavRestoreLayer?3?5from?5?$CC@ 100b8688     imgui.obj
 0002:000076c8       ??_C@_0FE@LKAOFKOF@?$FLnav?$FN?5NavInitRequest?3?5from?5NavI@ 100b86c8     imgui.obj
 0002:00007720       ??_C@_0EJ@EKHMMIGJ@?$FLnav?$FN?5NavInitRequest?3?5ApplyResu@ 100b8720     imgui.obj
 0002:0000776c       ??_C@_0CA@BNPHEIIJ@?$FLnav?$FN?5NavMoveRequestForward?5?$CFd?6@ 100b876c     imgui.obj
 0002:0000778c       ??_C@_0DI@DAIPCILO@?$FLnav?$FN?5NavInitRequest?3?5from?5move@ 100b878c     imgui.obj
 0002:000077c4       ??_C@_0DJ@MAGJKKCG@?$FLnav?$FN?5NavMoveRequest?3?5clamp?5Nav@ 100b87c4     imgui.obj
 0002:00007800       ??_C@_0DB@EPMLAAL@?$FLnav?$FN?5NavMoveSubmitted?5but?5not?5@ 100b8800     imgui.obj
 0002:00007834       ??_C@_0CM@KMMAIAOD@?$FLfocus?$FN?5NavMoveRequest?3?5SetNavW@ 100b8834     imgui.obj
 0002:00007860       ??_C@_0ED@JMNIALPC@?$FLnav?$FN?5NavMoveRequest?3?5result?5Na@ 100b8860     imgui.obj
 0002:000078a4       ??_C@_0CA@JJLLCANH@?$FLnav?$FN?5NavUpdateCancelRequest?$CI?$CJ?6@ 100b88a4     imgui.obj
 0002:000078c4       ??_C@_0BG@NEECCIPG@?$CD?$CD?$CDNavUpdateWindowing@ 100b88c4     imgui.obj
 0002:000078dc       ??_C@_0O@BKOLOJFE@?$CD?$CDMainMenuBar@ 100b88dc     imgui.obj
 0002:000078ec       ??_C@_0BE@EBHFKNCA@?$CD?$CD?$CDNavWindowingList@ 100b88ec     imgui.obj
 0002:00007900       ??_C@_0BM@BLFBIJHB@?$FLdragdrop?$FN?5ClearDragDrop?$CI?$CJ?6@ 100b8900     imgui.obj
 0002:0000791c       ??_C@_0BB@IFIOILBM@?$CD?$CDTooltip_Hidden@ 100b891c     imgui.obj
 0002:00007930       ??_C@_0O@KMAIKFAM@?$CDSourceExtern@ 100b8930     imgui.obj
 0002:00007940       ??_C@_09EDAMLKGL@?5?$CIEXTERN?$CJ@ 100b8940     imgui.obj
 0002:00007950       ??_C@_0EO@KOLGJMFF@?$FLdragdrop?$FN?5BeginDragDropSource?$CI@ 100b8950     imgui.obj
 0002:000079a0       ??_C@_0DO@KIJDIPAA@?$FLdragdrop?$FN?5AcceptDragDropPayloa@ 100b89a0     imgui.obj
 0002:000079e0       ??_C@_02PCIJFNDE@?$AN?6@   100b89e0     imgui.obj
 0002:000079e4       ??_C@_07LFDEMEGD@?$CF?$CKs?$CF?4?$CKs@ 100b89e4     imgui.obj
 0002:000079ec       ??_C@_02BOGAIONP@ab@       100b89ec     imgui.obj
 0002:000079f0       ??_C@_02JDPG@rb@           100b89f0     imgui.obj
 0002:000079f4       ??_C@_02BKFDOEMK@wt@       100b89f4     imgui.obj
 0002:000079f8       ??_C@_03OIJOKPOL@?$CD?$CD?$CD@ 100b89f8     imgui.obj
 0002:000079fc       ??_C@_09GOMOMIIP@Pos?$DN?$CFi?0?$CFi@ 100b89fc     imgui.obj
 0002:00007a08       ??_C@_0L@MPPKDMFA@Size?$DN?$CFi?0?$CFi@ 100b8a08     imgui.obj
 0002:00007a14       ??_C@_0N@IAKNMBB@Collapsed?$DN?$CFd@ 100b8a14     imgui.obj
 0002:00007a24       ??_C@_0L@PAOOMOGA@IsChild?$DN?$CFd@ 100b8a24     imgui.obj
 0002:00007a30       ??_C@_09HNFDDBIF@?$FL?$CFs?$FN?$FL?$CFs?$FN?6@ 100b8a30     imgui.obj
 0002:00007a3c       ??_C@_0L@BALPIDOF@IsChild?$DN1?6@ 100b8a3c     imgui.obj
 0002:00007a48       ??_C@_0M@CFANMDMP@Size?$DN?$CFd?0?$CFd?6@ 100b8a48     imgui.obj
 0002:00007a54       ??_C@_0L@DDMADIHO@Pos?$DN?$CFd?0?$CFd?6@ 100b8a54     imgui.obj
 0002:00007a60       ??_C@_0N@OIFLJBJE@Collapsed?$DN1?6@ 100b8a60     imgui.obj
 0002:00007a70       ??_C@_01MNNFJEPP@?$DM@     100b8a70     imgui.obj
 0002:00007a74       ??_C@_01PPODPGHN@?$DO@     100b8a74     imgui.obj
 0002:00007a78       ??_C@_0N@IKFHBGAL@?$FL?$CFs?$FN?5?$FL?$CF05d?$FN?5@ 100b8a78     imgui.obj
 0002:00007a88       ??_C@_07CHALBAHD@?$FL?$CF05d?$FN?5@ 100b8a88     imgui.obj
 0002:00007a90       ??_C@_04OPMHGHMB@Copy@     100b8a90     imgui.obj
 0002:00007a98       ??_C@_0BC@JHPKFIGH@HoveredId?3?50x?$CF08X@ 100b8a98     imgui.obj
 0002:00007aac       ??_C@_0BM@IIPBLKLJ@Press?5ESC?5to?5abort?5picking?4@ 100b8aac     imgui.obj
 0002:00007ac8       ??_C@_04KPCPLBPL@Left@     100b8ac8     imgui.obj
 0002:00007ad0       ??_C@_05DADPALEM@Right@    100b8ad0     imgui.obj
 0002:00007ad8       ??_C@_06OJAFHGNF@Middle@   100b8ad8     imgui.obj
 0002:00007ae0       ??_C@_0EA@BFCGJGEN@Remap?5w?1?5Ctrl?$CLShift?3?5click?5anyw@ 100b8ae0     imgui.obj
 0002:00007b20       ??_C@_0DM@LGIJPHCL@Click?5?$CFs?5Button?5to?5break?5in?5deb@ 100b8b20     imgui.obj
 0002:00007b5c       ??_C@_04EBNJJJJI@?$CF?4?$CKs@ 100b8b5c     imgui.obj
 0002:00007b64       ??_C@_0M@FNHADFEB@?$CIvoid?$CK?$CJ0x?$CFp@ 100b8b64     imgui.obj
 0002:00007b70       ??_C@_0BC@CHOABEME@0x?$CF08X?5?$FLoverride?$FN@ 100b8b70     imgui.obj
 0002:00007b88       __real@0000000000000000    100b8b88     imgui.obj
 0002:00007b90       __real@1e3ce508            100b8b90     imgui.obj
 0002:00007b94       __real@3727c5ac            100b8b94     imgui.obj
 0002:00007b98       __real@3b808081            100b8b98     imgui.obj
 0002:00007b9c       __real@3d23d70a            100b8b9c     imgui.obj
 0002:00007ba0       __real@3d4ccccd            100b8ba0     imgui.obj
 0002:00007ba4       __real@3dcccccd            100b8ba4     imgui.obj
 0002:00007ba8       __real@3e19999a            100b8ba8     imgui.obj
 0002:00007bac       __real@3e2aaaab            100b8bac     imgui.obj
 0002:00007bb0       __real@3e4ccccd            100b8bb0     imgui.obj
 0002:00007bb4       __real@3e800000            100b8bb4     imgui.obj
 0002:00007bb8       __real@3e99999a            100b8bb8     imgui.obj
 0002:00007bc0       __real@3ee4f8b580000000    100b8bc0     imgui.obj
 0002:00007bc8       __real@3f19999a            100b8bc8     imgui.obj
 0002:00007bcc       __real@3f266666            100b8bcc     imgui.obj
 0002:00007bd0       __real@3f2b851f            100b8bd0     imgui.obj
 0002:00007bd4       __real@3f333333            100b8bd4     imgui.obj
 0002:00007bd8       __real@3f3851ec            100b8bd8     imgui.obj
 0002:00007bdc       __real@3f400000            100b8bdc     imgui.obj
 0002:00007be0       __real@3f490fdb            100b8be0     imgui.obj
 0002:00007be4       __real@3f7fff58            100b8be4     imgui.obj
 0002:00007be8       __real@3f8ccccd            100b8be8     imgui.obj
 0002:00007bec       __real@3faccccd            100b8bec     imgui.obj
 0002:00007bf0       __real@3feffffde0000000    100b8bf0     imgui.obj
 0002:00007bf8       __real@40200000            100b8bf8     imgui.obj
 0002:00007bfc       __real@40600000            100b8bfc     imgui.obj
 0002:00007c00       __real@40c00000            100b8c00     imgui.obj
 0002:00007c04       __real@41000000            100b8c04     imgui.obj
 0002:00007c08       __real@41200000            100b8c08     imgui.obj
 0002:00007c0c       __real@41400000            100b8c0c     imgui.obj
 0002:00007c10       __real@41500000            100b8c10     imgui.obj
 0002:00007c14       __real@41800000            100b8c14     imgui.obj
 0002:00007c18       __real@41a00000            100b8c18     imgui.obj
 0002:00007c1c       __real@41c00000            100b8c1c     imgui.obj
 0002:00007c20       __real@41f00000            100b8c20     imgui.obj
 0002:00007c24       __real@42700000            100b8c24     imgui.obj
 0002:00007c28       __real@437f0000            100b8c28     imgui.obj
 0002:00007c2c       __real@44160000            100b8c2c     imgui.obj
 0002:00007c30       __real@44480000            100b8c30     imgui.obj
 0002:00007c34       __real@447a0000            100b8c34     imgui.obj
 0002:00007c38       __real@4b800000            100b8c38     imgui.obj
 0002:00007c3c       __real@beaaaaab            100b8c3c     imgui.obj
 0002:00007c40       __real@bf800000            100b8c40     imgui.obj
 0002:00007c44       __real@c87a0000            100b8c44     imgui.obj
 0002:00007c48       __real@cb800000            100b8c48     imgui.obj
 0002:00007c4c       __real@ff7fffff            100b8c4c     imgui.obj
 0002:00007c50       __xmm@00000000000000020000000300000001 100b8c50     imgui.obj
 0002:00007c60       __xmm@00000002000000000000000100000003 100b8c60     imgui.obj
 0002:00007c70       __xmm@000002020000020e0000020d0000020c 100b8c70     imgui.obj
 0002:00007c80       __xmm@0000027c0000027b000002790000027a 100b8c80     imgui.obj
 0002:00007c90       __xmm@000002800000027f0000027d0000027e 100b8c90     imgui.obj
 0002:00007ca0       __xmm@bff0000000000000bff0000000000000 100b8ca0     imgui.obj
 0002:0000b938       ??_C@_04EICJPCEA@cmap@     100bc938     imgui_draw.obj
 0002:0000b940       ??_C@_04DACNFKGE@loca@     100bc940     imgui_draw.obj
 0002:0000b948       ??_C@_04NEODDMOL@head@     100bc948     imgui_draw.obj
 0002:0000b950       ??_C@_04LLIHEPK@glyf@      100bc950     imgui_draw.obj
 0002:0000b958       ??_C@_04FMPHLIKP@hhea@     100bc958     imgui_draw.obj
 0002:0000b960       ??_C@_04ONMNCIMC@hmtx@     100bc960     imgui_draw.obj
 0002:0000b968       ??_C@_04HHMMLDJI@kern@     100bc968     imgui_draw.obj
 0002:0000b970       ??_C@_04PCFDEHHD@GPOS@     100bc970     imgui_draw.obj
 0002:0000b978       ??_C@_04HJGCPIEK@CFF?5@    100bc978     imgui_draw.obj
 0002:0000b980       ??_C@_04KODIGLGG@maxp@     100bc980     imgui_draw.obj
 0002:0000b988       ??_C@_0BG@CONABPA@ProggyClean?4ttf?0?5?$CFdpx@ 100bc988     imgui_draw.obj
 0002:0000b9a8       __real@37800000            100bc9a8     imgui_draw.obj
 0002:0000b9ac       __real@38800000            100bc9ac     imgui_draw.obj
 0002:0000b9b0       __real@3eb33333            100bc9b0     imgui_draw.obj
 0002:0000b9b4       __real@3ecccccd            100bc9b4     imgui_draw.obj
 0002:0000b9b8       __real@3efae148            100bc9b8     imgui_draw.obj
 0002:0000b9bc       __real@3f5db22d            100bc9bc     imgui_draw.obj
 0002:0000b9c0       __real@3f7d70a4            100bc9c0     imgui_draw.obj
 0002:0000b9c4       __real@3f7fffef            100bc9c4     imgui_draw.obj
 0002:0000b9c8       __real@3fb0c15240000000    100bc9c8     imgui_draw.obj
 0002:0000b9d0       __real@40490fdb            100bc9d0     imgui_draw.obj
 0002:0000b9d4       __real@40c90fdb            100bc9d4     imgui_draw.obj
 0002:0000b9d8       __real@42400000            100bc9d8     imgui_draw.obj
 0002:0000b9dc       __real@42f60000            100bc9dc     imgui_draw.obj
 0002:0000b9e0       __real@44333333            100bc9e0     imgui_draw.obj
 0002:0000b9e4       __real@44b33333            100bc9e4     imgui_draw.obj
 0002:0000b9e8       __real@45333333            100bc9e8     imgui_draw.obj
 0002:0000b9ec       __real@bf400000            100bc9ec     imgui_draw.obj
 0002:0000b9f0       __real@bf5db22d            100bc9f0     imgui_draw.obj
 0002:0000ba00       __xmm@00000003000000020000000100000000 100bca00     imgui_draw.obj
 0002:0000ba10       __xmm@0000000c0000000c0000000c0000000c 100bca10     imgui_draw.obj
 0002:0000ba20       __xmm@0000002e0000002e0000002e0000002e 100bca20     imgui_draw.obj
 0002:0000ba30       __xmm@00000058000000580000005800000058 100bca30     imgui_draw.obj
 0002:0000ba40       __xmm@3f80000000000000000000003f800000 100bca40     imgui_draw.obj
 0002:0000ba50       ??_C@_0M@LODKKDJJ@?$CD?$CDInstances@ 100bca50     imgui_tables.obj
 0002:0000ba5c       ??_C@_01DNKMNLPK@?$HM@     100bca5c     imgui_tables.obj
 0002:0000ba60       ??_C@_0O@BMOANCPA@?$CD?$CDContextMenu@ 100bca60     imgui_tables.obj
 0002:0000ba70       ??_C@_09MGFHLAFE@?$DMUnknown?$DO@ 100bca70     imgui_tables.obj
 0002:0000ba7c       ??_C@_09BDLBIGPI@0x?$CF08X?0?$CFd@ 100bca7c     imgui_tables.obj
 0002:0000ba88       ??_C@_0M@LAOOHBLO@RefScale?$DN?$CFf@ 100bca88     imgui_tables.obj
 0002:0000ba94       ??_C@_0M@JOECNJOM@Column?5?$CFd?$CFn@ 100bca94     imgui_tables.obj
 0002:0000baa0       ??_C@_0BA@KAIOJKEL@UserID?$DN0x?$CF08X?$CFn@ 100bcaa0     imgui_tables.obj
 0002:0000bab0       ??_C@_0L@LJLKPCDP@Width?$DN?$CFd?$CFn@ 100bcab0     imgui_tables.obj
 0002:0000babc       ??_C@_0M@IJODOCHC@Weight?$DN?$CFf?$CFn@ 100bcabc     imgui_tables.obj
 0002:0000bac8       ??_C@_0N@EKALHFOF@Visible?$DN?$CFd?$CFn@ 100bcac8     imgui_tables.obj
 0002:0000bad8       ??_C@_0L@BHOFPJL@Order?$DN?$CFd?$CFn@ 100bcad8     imgui_tables.obj
 0002:0000bae4       ??_C@_0M@KGHCDDIO@Sort?$DN?$CFd?$CFc?$CFn@ 100bcae4     imgui_tables.obj
 0002:0000baf0       ??_C@_0BB@PGHPBJD@?$FL?$CFs?$FN?$FL0x?$CF08X?0?$CFd?$FN?6@ 100bcaf0     imgui_tables.obj
 0002:0000bb04       ??_C@_0N@NHEEPCEH@RefScale?$DN?$CFg?6@ 100bcb04     imgui_tables.obj
 0002:0000bb14       ??_C@_0M@JLNIJDCE@Column?5?$CF?92d@ 100bcb14     imgui_tables.obj
 0002:0000bb20       ??_C@_0N@PGBEGIHP@?5UserID?$DN?$CF08X@ 100bcb20     imgui_tables.obj
 0002:0000bb30       ??_C@_0N@MFKBBKPH@?5Weight?$DN?$CF?44f@ 100bcb30     imgui_tables.obj
 0002:0000bb40       ??_C@_09PBOBBCAP@?5Width?$DN?$CFd@ 100bcb40     imgui_tables.obj
 0002:0000bb4c       ??_C@_0M@CIPDPODB@?5Visible?$DN?$CFd@ 100bcb4c     imgui_tables.obj
 0002:0000bb58       ??_C@_09CFPCIBAG@?5Order?$DN?$CFd@ 100bcb58     imgui_tables.obj
 0002:0000bb64       ??_C@_0L@EAJILIBD@?5Sort?$DN?$CFd?$CFc@ 100bcb64     imgui_tables.obj
 0002:0000bb70       ??_C@_05LFBINIGO@Table@    100bcb70     imgui_tables.obj
 0002:0000bb78       ??_C@_03JMFMNIFM@?9?9?9@   100bcb78     imgui_tables.obj
 0002:0000bb7c       __real@00800000            100bcb7c     imgui_tables.obj
 0002:0000bb80       __real@3c23d70a            100bcb80     imgui_tables.obj
 0002:0000bb84       __real@3d75c28f            100bcb84     imgui_tables.obj
 0002:0000bb90       __xmm@ffffffffffffffffffffffffffffffff 100bcb90     imgui_tables.obj
 0002:0000bc40       ??_C@_02HJNLAKPP@S8@       100bcc40     imgui_widgets.obj
 0002:0000bc44       ??_C@_02HNFGHGEN@U8@       100bcc44     imgui_widgets.obj
 0002:0000bc48       ??_C@_02GMHACPFF@?$CFu@    100bcc48     imgui_widgets.obj
 0002:0000bc4c       ??_C@_03KLLGJOHN@S16@      100bcc4c     imgui_widgets.obj
 0002:0000bc50       ??_C@_03IONNMBKB@U16@      100bcc50     imgui_widgets.obj
 0002:0000bc54       ??_C@_03MMFOIPBH@S32@      100bcc54     imgui_widgets.obj
 0002:0000bc58       ??_C@_03OJDFNAML@U32@      100bcc58     imgui_widgets.obj
 0002:0000bc5c       ??_C@_03JMMPOKHK@S64@      100bcc5c     imgui_widgets.obj
 0002:0000bc60       ??_C@_05LLAMLEHD@?$CFI64d@ 100bcc60     imgui_widgets.obj
 0002:0000bc68       ??_C@_03LJKELFKG@U64@      100bcc68     imgui_widgets.obj
 0002:0000bc6c       ??_C@_05OINFJHGD@?$CFI64u@ 100bcc6c     imgui_widgets.obj
 0002:0000bc74       ??_C@_05KNFBNCOH@float@    100bcc74     imgui_widgets.obj
 0002:0000bc7c       ??_C@_04GFJLOHHD@?$CF?43f@ 100bcc7c     imgui_widgets.obj
 0002:0000bc84       ??_C@_02NJPGOMH@?$CFf@     100bcc84     imgui_widgets.obj
 0002:0000bc88       ??_C@_06BNJCAIGJ@double@   100bcc88     imgui_widgets.obj
 0002:0000bc90       ??_C@_03DLDNIBIK@?$CFlf@   100bcc90     imgui_widgets.obj
 0002:0000bc94       ??_C@_01LBDDMOBJ@?$FN@     100bcc94     imgui_widgets.obj
 0002:0000bc98       ??_C@_01OHGJGJJP@?$FL@     100bcc98     imgui_widgets.obj
 0002:0000bc9c       ??_C@_08ENAFOMOP@?$CDSCROLLX@ 100bcc9c     imgui_widgets.obj
 0002:0000bca8       ??_C@_08FEBONNKO@?$CDSCROLLY@ 100bcca8     imgui_widgets.obj
 0002:0000bcb4       ??_C@_03JDMNMOAD@?$FL?$HO?$FN@ 100bccb4     imgui_widgets.obj
 0002:0000bcb8       ??_C@_03JHEALCLB@?$FLx?$FN@ 100bccb8     imgui_widgets.obj
 0002:0000bcbc       ??_C@_03PFOPMNLJ@?$FL?5?$FN@ 100bccbc     imgui_widgets.obj
 0002:0000bcc0       ??_C@_03KFJJABDB@?$CIx?$CJ@ 100bccc0     imgui_widgets.obj
 0002:0000bcc4       ??_C@_03MHDGHODJ@?$CI?5?$CJ@ 100bccc4     imgui_widgets.obj
 0002:0000bcc8       ??_C@_02LLHJFGPH@?5?$HM@   100bccc8     imgui_widgets.obj
 0002:0000bccc       ??_C@_0CC@IODDEFBI@?9?9?9?9?9?9?9?9?9?9?9?9?9?9?9?9?9?9?9?9?9?9?9?9?9?9?9?9?9?9?9@ 100bcccc     imgui_widgets.obj
 0002:0000bcf0       ??_C@_0N@LNBMNBNO@?$CD?$CDComboPopup@ 100bccf0     imgui_widgets.obj
 0002:0000bd00       ??_C@_01CELHOKLL@?$HN@     100bcd00     imgui_widgets.obj
 0002:0000bd04       ??_C@_01HCONENDN@?$HL@     100bcd04     imgui_widgets.obj
 0002:0000bd08       ??_C@_0N@JOGGDHMO@?$CD?$CDCombo_?$CF02d@ 100bcd08     imgui_widgets.obj
 0002:0000bd18       ??_C@_0P@HFPOEILF@?$CKUnknown?5item?$CK@ 100bcd18     imgui_widgets.obj
 0002:0000bd50       ??_C@_01JOAMLHOP@?9@       100bcd50     imgui_widgets.obj
 0002:0000bd54       ??_C@_01MIFGBAGJ@?$CL@     100bcd54     imgui_widgets.obj
 0002:0000bd58       ??_C@_04JIMNDDED@?$CF08X@  100bcd58     imgui_widgets.obj
 0002:0000bd60       ??_C@_03CEFFAPNG@?$CD?$CDX@ 100bcd60     imgui_widgets.obj
 0002:0000bd64       ??_C@_03DNEODOJH@?$CD?$CDY@ 100bcd64     imgui_widgets.obj
 0002:0000bd68       ??_C@_03BGGDGNFE@?$CD?$CDZ@ 100bcd68     imgui_widgets.obj
 0002:0000bd6c       ??_C@_03KDMNBDBJ@?$CD?$CDW@ 100bcd6c     imgui_widgets.obj
 0002:0000bd70       ??_C@_03GOOLIKIF@?$CF3d@   100bcd70     imgui_widgets.obj
 0002:0000bd74       ??_C@_05FELKPNOB@R?3?$CF3d@ 100bcd74     imgui_widgets.obj
 0002:0000bd7c       ??_C@_05HKBGOMJ@G?3?$CF3d@ 100bcd7c     imgui_widgets.obj
 0002:0000bd84       ??_C@_05FHGMPPHK@B?3?$CF3d@ 100bcd84     imgui_widgets.obj
 0002:0000bd8c       ??_C@_05NBPIINNE@A?3?$CF3d@ 100bcd8c     imgui_widgets.obj
 0002:0000bd94       ??_C@_05PGPHNMBM@H?3?$CF3d@ 100bcd94     imgui_widgets.obj
 0002:0000bd9c       ??_C@_05JPOGCOEE@S?3?$CF3d@ 100bcd9c     imgui_widgets.obj
 0002:0000bda4       ??_C@_05MPCLLPPH@V?3?$CF3d@ 100bcda4     imgui_widgets.obj
 0002:0000bdac       ??_C@_05ONBKDNLK@?$CF0?43f@ 100bcdac     imgui_widgets.obj
 0002:0000bdb4       ??_C@_07CCOKENNH@R?3?$CF0?43f@ 100bcdb4     imgui_widgets.obj
 0002:0000bdbc       ??_C@_07BGLBHCJI@G?3?$CF0?43f@ 100bcdbc     imgui_widgets.obj
 0002:0000bdc4       ??_C@_07FOFBHMPM@B?3?$CF0?43f@ 100bcdc4     imgui_widgets.obj
 0002:0000bdcc       ??_C@_07NANOHLBP@A?3?$CF0?43f@ 100bcdcc     imgui_widgets.obj
 0002:0000bdd4       ??_C@_07MPJBGADE@H?3?$CF0?43f@ 100bcdd4     imgui_widgets.obj
 0002:0000bddc       ??_C@_07OOEAENEJ@S?3?$CF0?43f@ 100bcddc     imgui_widgets.obj
 0002:0000bde4       ??_C@_07KGKAEDCN@V?3?$CF0?43f@ 100bcde4     imgui_widgets.obj
 0002:0000bdec       ??_C@_07FFNLLALM@M?30?4000@ 100bcdec     imgui_widgets.obj
 0002:0000bdf4       ??_C@_05BNGMMMAL@M?3000@   100bcdf4     imgui_widgets.obj
 0002:0000bdfc       ??_C@_07JKKCBBMM@context@  100bcdfc     imgui_widgets.obj
 0002:0000be04       ??_C@_0BC@CKPCOFBK@?$CD?$CF02X?$CF02X?$CF02X?$CF02X@ 100bce04     imgui_widgets.obj
 0002:0000be18       ??_C@_0O@MBPBDFLP@?$CD?$CF02X?$CF02X?$CF02X@ 100bce18     imgui_widgets.obj
 0002:0000be28       ??_C@_06MNCEJPDI@?$CD?$CDText@ 100bce28     imgui_widgets.obj
 0002:0000be30       ??_C@_0BB@DDMGLOLI@?$CF02X?$CF02X?$CF02X?$CF02X@ 100bce30     imgui_widgets.obj
 0002:0000be44       ??_C@_0N@KODLFHPJ@?$CF02X?$CF02X?$CF02X@ 100bce44     imgui_widgets.obj
 0002:0000be54       ??_C@_0O@GLNBIEEK@?$CD?$CDColorButton@ 100bce54     imgui_widgets.obj
 0002:0000be64       ??_C@_06MAKAMBBI@picker@   100bce64     imgui_widgets.obj
 0002:0000be6c       ??_C@_08HHEANBBL@?$CD?$CDpicker@ 100bce6c     imgui_widgets.obj
 0002:0000be78       ??_C@_06LFKNFKEK@_COL3F@   100bce78     imgui_widgets.obj
 0002:0000be80       ??_C@_06LAOCEMMP@_COL4F@   100bce80     imgui_widgets.obj
 0002:0000be88       ??_C@_03PPLPHHG@hsv@       100bce88     imgui_widgets.obj
 0002:0000be8c       ??_C@_02CPGMCOJE@sv@       100bce8c     imgui_widgets.obj
 0002:0000be90       ??_C@_03GKJJMKFG@hue@      100bce90     imgui_widgets.obj
 0002:0000be94       ??_C@_05IAEKHIAN@alpha@    100bce94     imgui_widgets.obj
 0002:0000be9c       ??_C@_07EDIFFIJI@Current@  100bce9c     imgui_widgets.obj
 0002:0000bea4       ??_C@_09CDENILGE@?$CD?$CDcurrent@ 100bcea4     imgui_widgets.obj
 0002:0000beb0       ??_C@_08DCPBJHAO@Original@ 100bceb0     imgui_widgets.obj
 0002:0000bebc       ??_C@_0L@IGJKOBOK@?$CD?$CDoriginal@ 100bcebc     imgui_widgets.obj
 0002:0000bec8       ??_C@_05JCABMAIH@?$CD?$CDrgb@ 100bcec8     imgui_widgets.obj
 0002:0000bed0       ??_C@_05JICEKLIF@?$CD?$CDhsv@ 100bced0     imgui_widgets.obj
 0002:0000bed8       ??_C@_05BOAMFJMJ@?$CD?$CDhex@ 100bced8     imgui_widgets.obj
 0002:0000bee0       ??_C@_05PDOBBJNA@Color@    100bcee0     imgui_widgets.obj
 0002:0000bee8       ??_C@_09JCCDBEFL@?$CD?$CDpreview@ 100bcee8     imgui_widgets.obj
 0002:0000bef4       ??_C@_0DF@FAPNKOHO@?$CD?$CF02X?$CF02X?$CF02X?6R?3?5?$CFd?0?5G?3?5?$CFd?0?5B?3?5@ 100bcef4     imgui_widgets.obj
 0002:0000bf30       ??_C@_0EC@EBPMGCGK@?$CD?$CF02X?$CF02X?$CF02X?$CF02X?6R?3?$CFd?0?5G?3?$CFd?0?5B@ 100bcf30     imgui_widgets.obj
 0002:0000bf74       ??_C@_0BK@HKNBICJE@H?3?5?$CF?43f?0?5S?3?5?$CF?43f?0?5V?3?5?$CF?43f@ 100bcf74     imgui_widgets.obj
 0002:0000bf90       ??_C@_0CD@EEDEAEPG@H?3?5?$CF?43f?0?5S?3?5?$CF?43f?0?5V?3?5?$CF?43f?0?5A?3?5?$CF@ 100bcf90     imgui_widgets.obj
 0002:0000bfb4       ??_C@_03ICFFBAI@RGB@       100bcfb4     imgui_widgets.obj
 0002:0000bfb8       ??_C@_03CAADKAK@HSV@       100bcfb8     imgui_widgets.obj
 0002:0000bfbc       ??_C@_03CJOBKKAE@Hex@      100bcfbc     imgui_widgets.obj
 0002:0000bfc0       ??_C@_06FDBEKFBH@0?4?4255@ 100bcfc0     imgui_widgets.obj
 0002:0000bfc8       ??_C@_0L@MDNPBJBM@0?400?4?41?400@ 100bcfc8     imgui_widgets.obj
 0002:0000bfd4       ??_C@_09NMCCFHEI@Copy?5as?4?4@ 100bcfd4     imgui_widgets.obj
 0002:0000bfe0       ??_C@_0BN@GKCJMPCH@?$CI?$CF?43ff?0?5?$CF?43ff?0?5?$CF?43ff?0?5?$CF?43ff?$CJ@ 100bcfe0     imgui_widgets.obj
 0002:0000c000       ??_C@_0O@EJHNAHBL@?$CI?$CFd?0?$CFd?0?$CFd?0?$CFd?$CJ@ 100bd000     imgui_widgets.obj
 0002:0000c010       ??_C@_0N@KFBFGFJL@?$CD?$CDselectable@ 100bd010     imgui_widgets.obj
 0002:0000c020       ??_C@_0BE@ENPGBMIC@?$CD?$CDpreviewing_picker@ 100bd020     imgui_widgets.obj
 0002:0000c034       ??_C@_09KEDLMDJL@Alpha?5Bar@ 100bd034     imgui_widgets.obj
 0002:0000c040       ??_C@_03CFMEKBHF@?$CD?$CD?$DM@ 100bd040     imgui_widgets.obj
 0002:0000c044       ??_C@_03BHPCMDPH@?$CD?$CD?$DO@ 100bd044     imgui_widgets.obj
 0002:0000c048       ??_C@_03CPFCAGPK@?$CD?$CDv@ 100bd048     imgui_widgets.obj
 0002:0000c04c       __real@38d1b717            100bd04c     imgui_widgets.obj
 0002:0000c050       __real@3cdd2f1b            100bd050     imgui_widgets.obj
 0002:0000c054       __real@3da3d70a            100bd054     imgui_widgets.obj
 0002:0000c058       __real@3e09374c            100bd058     imgui_widgets.obj
 0002:0000c060       __real@3eb0c6f7a0000000    100bd060     imgui_widgets.obj
 0002:0000c068       __real@3f0ccccd            100bd068     imgui_widgets.obj
 0002:0000c06c       __real@3f350481            100bd06c     imgui_widgets.obj
 0002:0000c070       __real@3f5db3d0            100bd070     imgui_widgets.obj
 0002:0000c074       __real@3f99999a            100bd074     imgui_widgets.obj
 0002:0000c078       __real@3fb99999a0000000    100bd078     imgui_widgets.obj
 0002:0000c080       __real@3fc00000            100bd080     imgui_widgets.obj
 0002:0000c088       __real@3fe0000000000000    100bd088     imgui_widgets.obj
 0002:0000c090       __real@3ff3333340000000    100bd090     imgui_widgets.obj
 0002:0000c098       __real@4024000000000000    100bd098     imgui_widgets.obj
 0002:0000c0a0       __real@403f5c29            100bd0a0     imgui_widgets.obj
 0002:0000c0a4       __real@40666666            100bd0a4     imgui_widgets.obj
 0002:0000c0a8       __real@428c0000            100bd0a8     imgui_widgets.obj
 0002:0000c0b0       __real@47efffffe0000000    100bd0b0     imgui_widgets.obj
 0002:0000c0b8       __real@7fefffffffffffff    100bd0b8     imgui_widgets.obj
 0002:0000c0c0       __real@be800000            100bd0c0     imgui_widgets.obj
 0002:0000c0c4       __real@bf000000            100bd0c4     imgui_widgets.obj
 0002:0000c0c8       __real@bf5db3d0            100bd0c8     imgui_widgets.obj
 0002:0000c0d0       __real@bfe0000000000000    100bd0d0     imgui_widgets.obj
 0002:0000c0d8       __real@c2c80000            100bd0d8     imgui_widgets.obj
 0002:0000c0e0       __real@ffefffffffffffff    100bd0e0     imgui_widgets.obj
 0002:0000c0f0       __xmm@437f0000437f0000437f0000437f0000 100bd0f0     imgui_widgets.obj
 0002:0000c100       __xmm@80000000000000008000000000000000 100bd100     imgui_widgets.obj
 0002:0000c110       ??_C@_0P@PJLJBPPP@imgui_impl_dx9@ 100bd110     imgui_impl_dx9.obj
 0002:0000c120       __xmm@0000000000000000000000003f800000 100bd120     imgui_impl_dx9.obj
 0002:0000c130       __xmm@00000000000000003f80000000000000 100bd130     imgui_impl_dx9.obj
 0002:0000c140       __xmm@000000003f8000000000000000000000 100bd140     imgui_impl_dx9.obj
 0002:0000c150       __xmm@3f800000000000000000000000000000 100bd150     imgui_impl_dx9.obj
 0002:0000c160       ??_C@_0BB@FLGJPPJK@imgui_impl_win32@ 100bd160     imgui_impl_win32.obj
 0002:0000c174       ??_C@_0O@LNFLKCMF@xinput1_4?4dll@ 100bd174     imgui_impl_win32.obj
 0002:0000c184       ??_C@_0O@KAFOJCHN@xinput1_3?4dll@ 100bd184     imgui_impl_win32.obj
 0002:0000c194       ??_C@_0BA@GHGALGFD@xinput9_1_0?4dll@ 100bd194     imgui_impl_win32.obj
 0002:0000c1a4       ??_C@_0O@GLACEBNI@xinput1_2?4dll@ 100bd1a4     imgui_impl_win32.obj
 0002:0000c1b4       ??_C@_0O@ONJGDDHG@xinput1_1?4dll@ 100bd1b4     imgui_impl_win32.obj
 0002:0000c1c4       ??_C@_0BG@ELBNFOBA@XInputGetCapabilities@ 100bd1c4     imgui_impl_win32.obj
 0002:0000c1dc       ??_C@_0P@FCCEJHCC@XInputGetState@ 100bd1dc     imgui_impl_win32.obj
 0002:0000c1ec       __real@43610000            100bd1ec     imgui_impl_win32.obj
 0002:0000c1f0       __real@46c2ac00            100bd1f0     imgui_impl_win32.obj
 0002:0000c1f4       __real@c6c2ae00            100bd1f4     imgui_impl_win32.obj
 0002:0000c1f8       ??_C@_0P@GHFPNOJB@bad?5allocation@ 100bd1f8     libcpmt:xthrow.obj
 0002:0000c20c       ??_7bad_function_call@std@@6B@ 100bd20c     libcpmt:xthrow.obj
 0002:0000c214       ??_C@_0BC@DPJNKNAF@bad?5function?5call@ 100bd214     libcpmt:xthrow.obj
 0002:0000c22c       ??_7logic_error@std@@6B@   100bd22c     libcpmt:xthrow.obj
 0002:0000c238       ??_7length_error@std@@6B@  100bd238     libcpmt:xthrow.obj
 0002:0000c244       ??_7out_of_range@std@@6B@  100bd244     libcpmt:xthrow.obj
 0002:0000c284       ??_C@_0BI@NGCEHDD@device?5or?5resource?5busy@ 100bd284     libcpmt:thread0.obj
 0002:0000c29c       ??_C@_0BB@FCMFBGOM@invalid?5argument@ 100bd29c     libcpmt:thread0.obj
 0002:0000c2b0       ??_C@_0BA@ENLPPKBN@no?5such?5process@ 100bd2b0     libcpmt:thread0.obj
 0002:0000c2c0       ??_C@_0BC@ENOOLCNF@not?5enough?5memory@ 100bd2c0     libcpmt:thread0.obj
 0002:0000c2d4       ??_C@_0BI@OHIEJAAB@operation?5not?5permitted@ 100bd2d4     libcpmt:thread0.obj
 0002:0000c2ec       ??_C@_0BO@BJBOMOEJ@resource?5deadlock?5would?5occur@ 100bd2ec     libcpmt:thread0.obj
 0002:0000c30c       ??_C@_0BP@LKNGHENJ@resource?5unavailable?5try?5again@ 100bd30c     libcpmt:thread0.obj
 0002:0000c330       ??_7_Generic_error_category@std@@6B@ 100bd330     libcpmt:thread0.obj
 0002:0000c348       ??_C@_07DCLBNMLN@generic@  100bd348     libcpmt:thread0.obj
 0002:0000e880       __ymm@0000001f0000001f0000001f0000001f0000001f0000001f0000001f0000001f 100bf880     libcpmt:vector_algorithms.obj
 0002:0000e8a0       ?nothrow@std@@3Unothrow_t@1@B 100bf8a0     libcpmt:nothrow.obj
 0002:0000edc0       ??_C@_07IPNMCAN@success@   100bfdc0     libcpmt:syserror.obj
 0002:0000edc8       ??_C@_0BN@LKKBCCDB@address?5family?5not?5supported@ 100bfdc8     libcpmt:syserror.obj
 0002:0000ede8       ??_C@_0P@LDMLAFHI@address?5in?5use@ 100bfde8     libcpmt:syserror.obj
 0002:0000edf8       ??_C@_0BG@DHPCNBJB@address?5not?5available@ 100bfdf8     libcpmt:syserror.obj
 0002:0000ee10       ??_C@_0BC@DFIBIBIL@already?5connected@ 100bfe10     libcpmt:syserror.obj
 0002:0000ee24       ??_C@_0BH@CAKOHOMI@argument?5list?5too?5long@ 100bfe24     libcpmt:syserror.obj
 0002:0000ee3c       ??_C@_0BH@CGIMPKIM@argument?5out?5of?5domain@ 100bfe3c     libcpmt:syserror.obj
 0002:0000ee54       ??_C@_0M@KGHGGJGL@bad?5address@ 100bfe54     libcpmt:syserror.obj
 0002:0000ee60       ??_C@_0BE@MPJPGCEO@bad?5file?5descriptor@ 100bfe60     libcpmt:syserror.obj
 0002:0000ee74       ??_C@_0M@PMMIEFCP@bad?5message@ 100bfe74     libcpmt:syserror.obj
 0002:0000ee80       ??_C@_0M@KPHOFDBE@broken?5pipe@ 100bfe80     libcpmt:syserror.obj
 0002:0000ee8c       ??_C@_0BD@MGNDDEGM@connection?5aborted@ 100bfe8c     libcpmt:syserror.obj
 0002:0000eea0       ??_C@_0BP@KAIHPOGN@connection?5already?5in?5progress@ 100bfea0     libcpmt:syserror.obj
 0002:0000eec0       ??_C@_0BD@PJLIIJEL@connection?5refused@ 100bfec0     libcpmt:syserror.obj
 0002:0000eed4       ??_C@_0BB@IECNJNOI@connection?5reset@ 100bfed4     libcpmt:syserror.obj
 0002:0000eee8       ??_C@_0BC@PPHBOELF@cross?5device?5link@ 100bfee8     libcpmt:syserror.obj
 0002:0000eefc       ??_C@_0BN@KDMIFEIP@destination?5address?5required@ 100bfefc     libcpmt:syserror.obj
 0002:0000ef1c       ??_C@_0BE@JIDOCPHM@directory?5not?5empty@ 100bff1c     libcpmt:syserror.obj
 0002:0000ef30       ??_C@_0BI@BNCLIGPB@executable?5format?5error@ 100bff30     libcpmt:syserror.obj
 0002:0000ef48       ??_C@_0M@MIDIAGJP@file?5exists@ 100bff48     libcpmt:syserror.obj
 0002:0000ef54       ??_C@_0P@DNAJLBJK@file?5too?5large@ 100bff54     libcpmt:syserror.obj
 0002:0000ef64       ??_C@_0BC@EJHOMAAK@filename?5too?5long@ 100bff64     libcpmt:syserror.obj
 0002:0000ef78       ??_C@_0BH@KEFGLDAF@function?5not?5supported@ 100bff78     libcpmt:syserror.obj
 0002:0000ef90       ??_C@_0BB@DHFDFGDM@host?5unreachable@ 100bff90     libcpmt:syserror.obj
 0002:0000efa4       ??_C@_0BD@JPHBMONG@identifier?5removed@ 100bffa4     libcpmt:syserror.obj
 0002:0000efb8       ??_C@_0BG@CDNPAGJK@illegal?5byte?5sequence@ 100bffb8     libcpmt:syserror.obj
 0002:0000efd0       ??_C@_0CD@BNPLBMNA@inappropriate?5io?5control?5operat@ 100bffd0     libcpmt:syserror.obj
 0002:0000eff4       ??_C@_0M@EGEKIIMP@interrupted@ 100bfff4     libcpmt:syserror.obj
 0002:0000f000       ??_C@_0N@OHAFKDEK@invalid?5seek@ 100c0000     libcpmt:syserror.obj
 0002:0000f010       ??_C@_08GLNPIFBN@io?5error@ 100c0010     libcpmt:syserror.obj
 0002:0000f01c       ??_C@_0P@FLLDBIDK@is?5a?5directory@ 100c001c     libcpmt:syserror.obj
 0002:0000f02c       ??_C@_0N@IFLPBIOP@message?5size@ 100c002c     libcpmt:syserror.obj
 0002:0000f03c       ??_C@_0N@KIIEAAIO@network?5down@ 100c003c     libcpmt:syserror.obj
 0002:0000f04c       ??_C@_0O@FNPDBHEE@network?5reset@ 100c004c     libcpmt:syserror.obj
 0002:0000f05c       ??_C@_0BE@IFNCKGE@network?5unreachable@ 100c005c     libcpmt:syserror.obj
 0002:0000f070       ??_C@_0BA@PFFCAOFK@no?5buffer?5space@ 100c0070     libcpmt:syserror.obj
 0002:0000f080       ??_C@_0BB@IEPBLJHK@no?5child?5process@ 100c0080     libcpmt:syserror.obj
 0002:0000f094       ??_C@_07PLECNNKG@no?5link@ 100c0094     libcpmt:syserror.obj
 0002:0000f09c       ??_C@_0BC@NJECKMKE@no?5lock?5available@ 100c009c     libcpmt:syserror.obj
 0002:0000f0b0       ??_C@_0BF@PBGGPKKE@no?5message?5available@ 100c00b0     libcpmt:syserror.obj
 0002:0000f0c8       ??_C@_0L@EDOLMPAK@no?5message@ 100c00c8     libcpmt:syserror.obj
 0002:0000f0d4       ??_C@_0BD@EAMBFIDF@no?5protocol?5option@ 100c00d4     libcpmt:syserror.obj
 0002:0000f0e8       ??_C@_0BD@IJDJKDEA@no?5space?5on?5device@ 100c00e8     libcpmt:syserror.obj
 0002:0000f0fc       ??_C@_0BE@MKFDAFMP@no?5stream?5resources@ 100c00fc     libcpmt:syserror.obj
 0002:0000f110       ??_C@_0BK@IMCPHCBI@no?5such?5device?5or?5address@ 100c0110     libcpmt:syserror.obj
 0002:0000f12c       ??_C@_0P@FDINDDOK@no?5such?5device@ 100c012c     libcpmt:syserror.obj
 0002:0000f13c       ??_C@_0BK@NDOCBPGE@no?5such?5file?5or?5directory@ 100c013c     libcpmt:syserror.obj
 0002:0000f158       ??_C@_0BA@DOCPFFJG@not?5a?5directory@ 100c0158     libcpmt:syserror.obj
 0002:0000f168       ??_C@_0N@POEIPGGF@not?5a?5socket@ 100c0168     libcpmt:syserror.obj
 0002:0000f178       ??_C@_0N@LGAPMMPI@not?5a?5stream@ 100c0178     libcpmt:syserror.obj
 0002:0000f188       ??_C@_0O@GLMIBBEG@not?5connected@ 100c0188     libcpmt:syserror.obj
 0002:0000f198       ??_C@_0O@NHEDABJP@not?5supported@ 100c0198     libcpmt:syserror.obj
 0002:0000f1a8       ??_C@_0BD@MOLBPMEA@operation?5canceled@ 100c01a8     libcpmt:syserror.obj
 0002:0000f1bc       ??_C@_0BG@KDKHOPCO@operation?5in?5progress@ 100c01bc     libcpmt:syserror.obj
 0002:0000f1d4       ??_C@_0BI@LNEGIFLN@operation?5not?5supported@ 100c01d4     libcpmt:syserror.obj
 0002:0000f1ec       ??_C@_0BG@OEMDKMEE@operation?5would?5block@ 100c01ec     libcpmt:syserror.obj
 0002:0000f204       ??_C@_0L@BLPOFLNJ@owner?5dead@ 100c0204     libcpmt:syserror.obj
 0002:0000f210       ??_C@_0BC@CIJDGCDI@permission?5denied@ 100c0210     libcpmt:syserror.obj
 0002:0000f224       ??_C@_0P@FNPOCJBE@protocol?5error@ 100c0224     libcpmt:syserror.obj
 0002:0000f234       ??_C@_0BH@JPPPLHJB@protocol?5not?5supported@ 100c0234     libcpmt:syserror.obj
 0002:0000f24c       ??_C@_0BG@EICBIHDP@read?5only?5file?5system@ 100c024c     libcpmt:syserror.obj
 0002:0000f264       ??_C@_0BE@GOIPJJHG@result?5out?5of?5range@ 100c0264     libcpmt:syserror.obj
 0002:0000f278       ??_C@_0BG@MPLKFPAE@state?5not?5recoverable@ 100c0278     libcpmt:syserror.obj
 0002:0000f290       ??_C@_0P@DIIFGFCG@stream?5timeout@ 100c0290     libcpmt:syserror.obj
 0002:0000f2a0       ??_C@_0P@IPFDMIFL@text?5file?5busy@ 100c02a0     libcpmt:syserror.obj
 0002:0000f2b0       ??_C@_09KJPPMAOI@timed?5out@ 100c02b0     libcpmt:syserror.obj
 0002:0000f2bc       ??_C@_0BO@HACHBEKI@too?5many?5files?5open?5in?5system@ 100c02bc     libcpmt:syserror.obj
 0002:0000f2dc       ??_C@_0BE@GHAFMPAH@too?5many?5files?5open@ 100c02dc     libcpmt:syserror.obj
 0002:0000f2f0       ??_C@_0P@HCOMKFCC@too?5many?5links@ 100c02f0     libcpmt:syserror.obj
 0002:0000f300       ??_C@_0BO@EFGOJEF@too?5many?5symbolic?5link?5levels@ 100c0300     libcpmt:syserror.obj
 0002:0000f320       ??_C@_0BA@KGKGOOJA@value?5too?5large@ 100c0320     libcpmt:syserror.obj
 0002:0000f330       ??_C@_0BE@MIEJDDNH@wrong?5protocol?5type@ 100c0330     libcpmt:syserror.obj
 0002:0000f344       ??_C@_0O@BFJCFAAK@unknown?5error@ 100c0344     libcpmt:syserror.obj
 0002:0000f358       ??_7_Locimp@locale@std@@6B@ 100c0358     libcpmt:locale0.obj
 0002:0000f364       ??_C@_01NBENCBCI@?$CK@     100c0364     libcpmt:locale0.obj
 0002:0000f368       ?_BADOFF@std@@3_JB         100c0368     libcpmt:ios.obj
 0002:0000f3c4       ??_C@_02GMLFBBN@wb@        100c03c4     libcpmt:fiopen.obj
 0002:0000f3c8       ??_C@_02CBLLGHLK@r?$CL@    100c03c8     libcpmt:fiopen.obj
 0002:0000f3cc       ??_C@_02CHHAKFFB@w?$CL@    100c03cc     libcpmt:fiopen.obj
 0002:0000f3d0       ??_C@_02DPNLHKJD@a?$CL@    100c03d0     libcpmt:fiopen.obj
 0002:0000f3d4       ??_C@_03HMFOOINA@r?$CLb@   100c03d4     libcpmt:fiopen.obj
 0002:0000f3d8       ??_C@_03ELIABIOC@w?$CLb@   100c03d8     libcpmt:fiopen.obj
 0002:0000f3dc       ??_C@_03DOPCBAKB@a?$CLb@   100c03dc     libcpmt:fiopen.obj
 0002:0000f3e0       ??_C@_02LGOGKLMG@wx@       100c03e0     libcpmt:fiopen.obj
 0002:0000f3e4       ??_C@_03PLKNOCDJ@w?$CLx@   100c03e4     libcpmt:fiopen.obj
 0002:0000f3e8       ??_C@_03IEOGFEHG@wbx@      100c03e8     libcpmt:fiopen.obj
 0002:0000f3ec       ??_C@_04KJKJPALC@w?$CLbx@  100c03ec     libcpmt:fiopen.obj
 0002:0000f3f4       ??_C@_1BK@MGMFAEKH@?$AAk?$AAe?$AAr?$AAn?$AAe?$AAl?$AA3?$AA2?$AA?4?$AAd?$AAl?$AAl@ 100c03f4     libcpmt:winapisupp.obj
 0002:0000f410       ??_C@_0BP@FPNJPEJC@GetSystemTimePreciseAsFileTime@ 100c0410     libcpmt:winapisupp.obj
 0002:0000f430       ??_C@_0O@NNMIPI@GetTempPath2W@ 100c0430     libcpmt:winapisupp.obj
 0002:0000f540       ??_C@_13IMODFHAA@?$AA?9@   100c0540     libcpmt:wlocale.obj
 0002:0000f5e8       ??_7type_info@@6B@         100c05e8     LIBCMT:std_type_info_static.obj
 0002:0000f5ec       ___dyn_tls_init_callback   100c05ec     LIBCMT:tlsdyn.obj
 0002:0000f628       __pDefaultRawDllMain       100c0628     LIBCMT:dll_dllmain.obj
 0002:0000f628       __pRawDllMain              100c0628     LIBCMT:dll_dllmain.obj
 0002:0000f62c       __pDestructExceptionObject 100c062c     libvcruntime:ehhelpers.obj
 0002:0000f630       __xmm@00000000000000000000000000000000 100c0630     libvcruntime:wcsstr.obj
 0002:0000f644       ??_7bad_exception@std@@6B@ 100c0644     libvcruntime:frame.obj
 0002:0000f64c       ??_C@_0O@DPKOEFFH@bad?5exception@ 100c064c     libvcruntime:frame.obj
 0002:0000f9e8       ??_C@_08EHJDFFNH@__based?$CI@ 100c09e8     libvcruntime:undname.obj
 0002:0000f9f4       ??_C@_07KOLFKCDI@__cdecl@  100c09f4     libvcruntime:undname.obj
 0002:0000f9fc       ??_C@_09IFJBGAPI@__stdcall@ 100c09fc     libvcruntime:undname.obj
 0002:0000fa08       ??_C@_0L@NPHFGOKO@__thiscall@ 100c0a08     libvcruntime:undname.obj
 0002:0000fa14       ??_C@_0L@JMKHOMEK@__fastcall@ 100c0a14     libvcruntime:undname.obj
 0002:0000fa20       ??_C@_0N@BCKKPABJ@__vectorcall@ 100c0a20     libvcruntime:undname.obj
 0002:0000fa30       ??_C@_0BA@NAGGFLJK@__preserve_none@ 100c0a30     libvcruntime:undname.obj
 0002:0000fa40       ??_C@_09HIJEGCPM@__clrcall@ 100c0a40     libvcruntime:undname.obj
 0002:0000fa4c       ??_C@_06GHPCKEAG@__eabi@   100c0a4c     libvcruntime:undname.obj
 0002:0000fa54       ??_C@_09IOPIDJLG@__swift_1@ 100c0a54     libvcruntime:undname.obj
 0002:0000fa60       ??_C@_09KFNFGKHF@__swift_2@ 100c0a60     libvcruntime:undname.obj
 0002:0000fa6c       ??_C@_09LMMOFLDE@__swift_3@ 100c0a6c     libvcruntime:undname.obj
 0002:0000fa78       ??_C@_07JOMMBBKO@__ptr64@  100c0a78     libvcruntime:undname.obj
 0002:0000fa80       ??_C@_0L@PILCLIHE@__restrict@ 100c0a80     libvcruntime:undname.obj
 0002:0000fa8c       ??_C@_0M@GFIIJFMG@__unaligned@ 100c0a8c     libvcruntime:undname.obj
 0002:0000fa98       ??_C@_09DHDLOLLB@restrict?$CI@ 100c0a98     libvcruntime:undname.obj
 0002:0000faa4       ??_C@_04NIHEBCM@?5new@     100c0aa4     libvcruntime:undname.obj
 0002:0000faac       ??_C@_07FPCDHGMM@?5delete@ 100c0aac     libvcruntime:undname.obj
 0002:0000fab4       ??_C@_01NEMOKFLO@?$DN@     100c0ab4     libvcruntime:undname.obj
 0002:0000fab8       ??_C@_02GPIOPFAK@?$DO?$DO@ 100c0ab8     libvcruntime:undname.obj
 0002:0000fabc       ??_C@_02FODMEDOG@?$DM?$DM@ 100c0abc     libvcruntime:undname.obj
 0002:0000fac0       ??_C@_01DCLJPIOD@?$CB@     100c0ac0     libvcruntime:undname.obj
 0002:0000fac4       ??_C@_02EGOFBIJA@?$DN?$DN@ 100c0ac4     libvcruntime:undname.obj
 0002:0000fac8       ??_C@_02FDNJECIE@?$CB?$DN@ 100c0ac8     libvcruntime:undname.obj
 0002:0000facc       ??_C@_02GPECMEKF@?$FL?$FN@ 100c0acc     libvcruntime:undname.obj
 0002:0000fad0       ??_C@_08LHJFAFGD@operator@ 100c0ad0     libvcruntime:undname.obj
 0002:0000fadc       ??_C@_02HBOOOICD@?9?$DO@   100c0adc     libvcruntime:undname.obj
 0002:0000fae0       ??_C@_02ECNGHCIF@?$CL?$CL@ 100c0ae0     libvcruntime:undname.obj
 0002:0000fae4       ??_C@_02BAABKJLB@?9?9@     100c0ae4     libvcruntime:undname.obj
 0002:0000fae8       ??_C@_01HNPIGOCE@?$CG@     100c0ae8     libvcruntime:undname.obj
 0002:0000faec       ??_C@_03MNHNFDLC@?9?$DO?$CK@ 100c0aec     libvcruntime:undname.obj
 0002:0000faf0       ??_C@_01KMDKNFGN@?1@       100c0af0     libvcruntime:undname.obj
 0002:0000faf4       ??_C@_01FGNFDNOH@?$CF@     100c0af4     libvcruntime:undname.obj
 0002:0000faf8       ??_C@_02EHCHHCKH@?$DM?$DN@ 100c0af8     libvcruntime:undname.obj
 0002:0000fafc       ??_C@_02EEKDKGMJ@?$DO?$DN@ 100c0afc     libvcruntime:undname.obj
 0002:0000fb00       ??_C@_01IHBHIGKO@?0@       100c0b00     libvcruntime:undname.obj
 0002:0000fb04       ??_C@_02HCKGKOFO@?$CI?$CJ@ 100c0b04     libvcruntime:undname.obj
 0002:0000fb08       ??_C@_01PJKLJHI@?$HO@      100c0b08     libvcruntime:undname.obj
 0002:0000fb0c       ??_C@_01JKBOJNNK@?$FO@     100c0b0c     libvcruntime:undname.obj
 0002:0000fb10       ??_C@_02PPKAJPJL@?$CG?$CG@ 100c0b10     libvcruntime:undname.obj
 0002:0000fb14       ??_C@_02NONPIBCD@?$HM?$HM@ 100c0b14     libvcruntime:undname.obj
 0002:0000fb18       ??_C@_02FPIMKNGF@?$CK?$DN@ 100c0b18     libvcruntime:undname.obj
 0002:0000fb1c       ??_C@_02FOEOMHFC@?$CL?$DN@ 100c0b1c     libvcruntime:undname.obj
 0002:0000fb20       ??_C@_02FKMDLLOA@?9?$DN@   100c0b20     libvcruntime:undname.obj
 0002:0000fb24       ??_C@_02FJEHGPIO@?1?$DN@   100c0b24     libvcruntime:undname.obj
 0002:0000fb28       ??_C@_02FENAOKFI@?$CF?$DN@ 100c0b28     libvcruntime:undname.obj
 0002:0000fb2c       ??_C@_03IKFCCPFF@?$DO?$DO?$DN@ 100c0b2c     libvcruntime:undname.obj
 0002:0000fb30       ??_C@_03CDNPDDLA@?$DM?$DM?$DN@ 100c0b30     libvcruntime:undname.obj
 0002:0000fb34       ??_C@_02FGJGFEAB@?$CG?$DN@ 100c0b34     libvcruntime:undname.obj
 0002:0000fb38       ??_C@_02DHLNPPGH@?$HM?$DN@ 100c0b38     libvcruntime:undname.obj
 0002:0000fb3c       ??_C@_02MHEGNOJ@?$FO?$DN@  100c0b3c     libvcruntime:undname.obj
 0002:0000fb40       ??_C@_09IFPLHPGF@?$GAvftable?8@ 100c0b40     libvcruntime:undname.obj
 0002:0000fb4c       ??_C@_09BLBHBJP@?$GAvbtable?8@ 100c0b4c     libvcruntime:undname.obj
 0002:0000fb58       ??_C@_07FEEIOKP@?$GAvcall?8@ 100c0b58     libvcruntime:undname.obj
 0002:0000fb60       ??_C@_08LLFFHHDJ@?$GAtypeof?8@ 100c0b60     libvcruntime:undname.obj
 0002:0000fb6c       ??_C@_0BF@KDPPACIK@?$GAlocal?5static?5guard?8@ 100c0b6c     libvcruntime:undname.obj
 0002:0000fb84       ??_C@_08OBABFOLI@?$GAstring?8@ 100c0b84     libvcruntime:undname.obj
 0002:0000fb90       ??_C@_0BD@JDLKDPAB@?$GAvbase?5destructor?8@ 100c0b90     libvcruntime:undname.obj
 0002:0000fba4       ??_C@_0BN@DEGPLNFK@?$GAvector?5deleting?5destructor?8@ 100c0ba4     libvcruntime:undname.obj
 0002:0000fbc4       ??_C@_0BO@OBMKPJIG@?$GAdefault?5constructor?5closure?8@ 100c0bc4     libvcruntime:undname.obj
 0002:0000fbe4       ??_C@_0BN@IMDCHIKM@?$GAscalar?5deleting?5destructor?8@ 100c0be4     libvcruntime:undname.obj
 0002:0000fc04       ??_C@_0BO@PFGOCPJJ@?$GAvector?5constructor?5iterator?8@ 100c0c04     libvcruntime:undname.obj
 0002:0000fc24       ??_C@_0BN@LFPFMEDL@?$GAvector?5destructor?5iterator?8@ 100c0c24     libvcruntime:undname.obj
 0002:0000fc44       ??_C@_0CE@IKBNEHA@?$GAvector?5vbase?5constructor?5itera@ 100c0c44     libvcruntime:undname.obj
 0002:0000fc68       ??_C@_0BL@NILFHHPC@?$GAvirtual?5displacement?5map?8@ 100c0c68     libvcruntime:undname.obj
 0002:0000fc84       ??_C@_0CB@JONCMFFK@?$GAeh?5vector?5constructor?5iterator@ 100c0c84     libvcruntime:undname.obj
 0002:0000fca8       ??_C@_0CA@GCEOPDGL@?$GAeh?5vector?5destructor?5iterator?8@ 100c0ca8     libvcruntime:undname.obj
 0002:0000fcc8       ??_C@_0CH@OOJPLCPH@?$GAeh?5vector?5vbase?5constructor?5it@ 100c0cc8     libvcruntime:undname.obj
 0002:0000fcf0       ??_C@_0BL@LLKPOHJI@?$GAcopy?5constructor?5closure?8@ 100c0cf0     libvcruntime:undname.obj
 0002:0000fd0c       ??_C@_0BA@KBCDOMBN@?$GAudt?5returning?8@ 100c0d0c     libvcruntime:undname.obj
 0002:0000fd1c       ??_C@_03KLGMFNMG@?$GAEH@   100c0d1c     libvcruntime:undname.obj
 0002:0000fd20       ??_C@_05KHLCHHI@?$GARTTI@  100c0d20     libvcruntime:undname.obj
 0002:0000fd28       ??_C@_0BA@KKLDJDLB@?$GAlocal?5vftable?8@ 100c0d28     libvcruntime:undname.obj
 0002:0000fd38       ??_C@_0CE@IIHCMGGL@?$GAlocal?5vftable?5constructor?5clos@ 100c0d38     libvcruntime:undname.obj
 0002:0000fd5c       ??_C@_06FHBGPFGH@?5new?$FL?$FN@ 100c0d5c     libvcruntime:undname.obj
 0002:0000fd64       ??_C@_09LBNFPBCA@?5delete?$FL?$FN@ 100c0d64     libvcruntime:undname.obj
 0002:0000fd70       ??_C@_0P@HJKNJFNN@?$GAomni?5callsig?8@ 100c0d70     libvcruntime:undname.obj
 0002:0000fd80       ??_C@_0BL@CNOONJFP@?$GAplacement?5delete?5closure?8@ 100c0d80     libvcruntime:undname.obj
 0002:0000fd9c       ??_C@_0BN@CKNJLHMB@?$GAplacement?5delete?$FL?$FN?5closure?8@ 100c0d9c     libvcruntime:undname.obj
 0002:0000fdbc       ??_C@_0CG@CFDHKGGD@?$GAmanaged?5vector?5constructor?5ite@ 100c0dbc     libvcruntime:undname.obj
 0002:0000fde4       ??_C@_0CF@IMGKMJNO@?$GAmanaged?5vector?5destructor?5iter@ 100c0de4     libvcruntime:undname.obj
 0002:0000fe0c       ??_C@_0CG@HLDDJMAG@?$GAeh?5vector?5copy?5constructor?5ite@ 100c0e0c     libvcruntime:undname.obj
 0002:0000fe34       ??_C@_0CM@FCBBDIGB@?$GAeh?5vector?5vbase?5copy?5construct@ 100c0e34     libvcruntime:undname.obj
 0002:0000fe60       ??_C@_0BL@CLIPGLGB@?$GAdynamic?5initializer?5for?5?8@ 100c0e60     libvcruntime:undname.obj
 0002:0000fe7c       ??_C@_0CB@PDBIFEP@?$GAdynamic?5atexit?5destructor?5for?5@ 100c0e7c     libvcruntime:undname.obj
 0002:0000fea0       ??_C@_0CD@CGAJBKEJ@?$GAvector?5copy?5constructor?5iterat@ 100c0ea0     libvcruntime:undname.obj
 0002:0000fec4       ??_C@_0CJ@GJELGAMM@?$GAvector?5vbase?5copy?5constructor?5@ 100c0ec4     libvcruntime:undname.obj
 0002:0000fef0       ??_C@_0CL@FGIJHLCE@?$GAmanaged?5vector?5copy?5constructo@ 100c0ef0     libvcruntime:undname.obj
 0002:0000ff1c       ??_C@_0BM@PMGGMLDN@?$GAlocal?5static?5thread?5guard?8@ 100c0f1c     libvcruntime:undname.obj
 0002:0000ff38       ??_C@_0N@BDNMDMOL@operator?5?$CC?$CC?5@ 100c0f38     libvcruntime:undname.obj
 0002:0000ff48       ??_C@_0BC@GGEBGALA@operator?5co_await@ 100c0f48     libvcruntime:undname.obj
 0002:0000ff5c       ??_C@_0M@GAAIMMOH@operator?$DM?$DN?$DO@ 100c0f5c     libvcruntime:undname.obj
 0002:0000ff68       ??_C@_0BC@DAFEJGAK@?5Type?5Descriptor?8@ 100c0f68     libvcruntime:undname.obj
 0002:0000ff7c       ??_C@_0BM@LDKODKLH@?5Base?5Class?5Descriptor?5at?5?$CI@ 100c0f7c     libvcruntime:undname.obj
 0002:0000ff98       ??_C@_0BD@LGICGFMM@?5Base?5Class?5Array?8@ 100c0f98     libvcruntime:undname.obj
 0002:0000ffac       ??_C@_0BN@MECKDCOJ@?5Class?5Hierarchy?5Descriptor?8@ 100c0fac     libvcruntime:undname.obj
 0002:0000ffcc       ??_C@_0BK@CFCOFLF@?5Complete?5Object?5Locator?8@ 100c0fcc     libvcruntime:undname.obj
 0002:0000ffe8       ??_C@_0BG@JNJLAMPM@?$GAanonymous?5namespace?8@ 100c0fe8     libvcruntime:undname.obj
 0002:0001000c       ??_C@_1DM@KHCHBNEB@?$AAa?$AAp?$AAi?$AA?9?$AAm?$AAs?$AA?9?$AAw?$AAi?$AAn?$AA?9?$AAc?$AAo?$AAr?$AAe@ 100c100c     libvcruntime:winapi_downlevel.obj
 0002:00010048       ??_C@_1DK@LPPGFMPP@?$AAa?$AAp?$AAi?$AA?9?$AAm?$AAs?$AA?9?$AAw?$AAi?$AAn?$AA?9?$AAc?$AAo?$AAr?$AAe@ 100c1048     libvcruntime:winapi_downlevel.obj
 0002:00010084       ??_C@_1BC@GDMECMAK@?$AAk?$AAe?$AAr?$AAn?$AAe?$AAl?$AA3?$AA2@ 100c1084     libvcruntime:winapi_downlevel.obj
 0002:00010098       ??_C@_1BA@PFFKHIOG@?$AAa?$AAp?$AAi?$AA?9?$AAm?$AAs?$AA?9@ 100c1098     libvcruntime:winapi_downlevel.obj
 0002:000100b0       ??_C@_08KNHFBNJ@FlsAlloc@  100c10b0     libvcruntime:winapi_downlevel.obj
 0002:000100c4       ??_C@_07PEJMOBNF@FlsFree@  100c10c4     libvcruntime:winapi_downlevel.obj
 0002:000100d4       ??_C@_0M@GDNOONDI@FlsGetValue@ 100c10d4     libvcruntime:winapi_downlevel.obj
 0002:000100e8       ??_C@_0M@JCPCPOEF@FlsSetValue@ 100c10e8     libvcruntime:winapi_downlevel.obj
 0002:000100fc       ??_C@_0BM@HCFOFFN@InitializeCriticalSectionEx@ 100c10fc     libvcruntime:winapi_downlevel.obj
 0002:00010118       ?standard_lookup_table_spectre@__crt_stdio_output@@3V?$spectre_mitigated_lookup_table@Ustate_transition_pair@__crt_stdio_output@@$0IA@@1@B 100c1118     libucrt:output.obj
 0002:00010218       ?format_validation_lookup_table_spectre@__crt_stdio_output@@3V?$spectre_mitigated_lookup_table@Ustate_transition_pair@__crt_stdio_output@@$0IA@@1@B 100c1218     libucrt:output.obj
 0002:00010318       ??_C@_1O@CEDCILHN@?$AA?$CI?$AAn?$AAu?$AAl?$AAl?$AA?$CJ@ 100c1318     libucrt:output.obj
 0002:00010328       ?large_power_data@?1??multiply_by_power_of_ten@__crt_strtox@@YA_NAAUbig_integer@2@I@Z@4QBIB 100c1328     libucrt:input.obj
 0002:00010c30       ?large_power_indices@?1??multiply_by_power_of_ten@__crt_strtox@@YA_NAAUbig_integer@2@I@Z@4QBUunpack_index@?1??12@YA_N0I@Z@B 100c1c30     libucrt:input.obj
 0002:00010cc8       ?small_powers_of_ten@?1??multiply_by_power_of_ten@__crt_strtox@@YA_NAAUbig_integer@2@I@Z@4QBIB 100c1cc8     libucrt:input.obj
 0002:00010cf0       ??_C@_1GE@DPGDJKLM@?$AAm?$AAi?$AAn?$AAk?$AAe?$AAr?$AAn?$AAe?$AAl?$AA?2?$AAc?$AAr?$AAt?$AAs?$AA?2@ 100c1cf0     libucrt:input.obj
 0002:00010d58       ??_C@_1FM@FELNCOBF@?$AA_?$AA_?$AAc?$AAr?$AAt?$AA_?$AAs?$AAt?$AAr?$AAt?$AAo?$AAx?$AA?3?$AA?3?$AAf@ 100c1d58     libucrt:input.obj
 0002:00010db4       ??_C@_1BG@GEMHBGAF@?$AA_?$AAi?$AAs?$AA_?$AAd?$AAo?$AAu?$AAb?$AAl?$AAe@ 100c1db4     libucrt:input.obj
 0002:00010dd0       ??_C@_1FK@JOJELFFO@?$AA_?$AA_?$AAc?$AAr?$AAt?$AA_?$AAs?$AAt?$AAr?$AAt?$AAo?$AAx?$AA?3?$AA?3?$AAf@ 100c1dd0     libucrt:input.obj
 0002:00010e2c       ??_C@_1BI@BANMPGJI@?$AA?$CB?$AA_?$AAi?$AAs?$AA_?$AAd?$AAo?$AAu?$AAb?$AAl?$AAe@ 100c1e2c     libucrt:input.obj
 0002:00010e48       ?constraints@?1??is_length_valid@__crt_stdio_input@@YA_NW4conversion_mode@2@W4length_modifier@2@@Z@4QAY0M@$$CBEA 100c1e48     libucrt:input.obj
 0002:00010ec0       ?inf_uppercase@?1???$parse_floating_point_possible_infinity@_WV?$input_adapter_character_source@V?$string_input_adapter@_W@__crt_stdio_input@@@__crt_strtox@@_K@__crt_strtox@@YA?AW4floating_point_parse_result@1@AA_WAAV?$input_adapter_character_source@V?$string_input_adapter@_W@__crt_stdio_input@@@1@_K@Z@4QB_WB 100c1ec0     libucrt:input.obj
 0002:00010ec8       ?inf_lowercase@?1???$parse_floating_point_possible_infinity@_WV?$input_adapter_character_source@V?$string_input_adapter@_W@__crt_stdio_input@@@__crt_strtox@@_K@__crt_strtox@@YA?AW4floating_point_parse_result@1@AA_WAAV?$input_adapter_character_source@V?$string_input_adapter@_W@__crt_stdio_input@@@1@_K@Z@4QB_WB 100c1ec8     libucrt:input.obj
 0002:00010ed0       ?inity_uppercase@?1???$parse_floating_point_possible_infinity@_WV?$input_adapter_character_source@V?$string_input_adapter@_W@__crt_stdio_input@@@__crt_strtox@@_K@__crt_strtox@@YA?AW4floating_point_parse_result@1@AA_WAAV?$input_adapter_character_source@V?$string_input_adapter@_W@__crt_stdio_input@@@1@_K@Z@4QB_WB 100c1ed0     libucrt:input.obj
 0002:00010edc       ?inity_lowercase@?1???$parse_floating_point_possible_infinity@_WV?$input_adapter_character_source@V?$string_input_adapter@_W@__crt_stdio_input@@@__crt_strtox@@_K@__crt_strtox@@YA?AW4floating_point_parse_result@1@AA_WAAV?$input_adapter_character_source@V?$string_input_adapter@_W@__crt_stdio_input@@@1@_K@Z@4QB_WB 100c1edc     libucrt:input.obj
 0002:00010ee8       ?uppercase@?1???$parse_floating_point_possible_nan@_WV?$input_adapter_character_source@V?$string_input_adapter@_W@__crt_stdio_input@@@__crt_strtox@@_K@__crt_strtox@@YA?AW4floating_point_parse_result@1@AA_WAAV?$input_adapter_character_source@V?$string_input_adapter@_W@__crt_stdio_input@@@1@_K@Z@4QB_WB 100c1ee8     libucrt:input.obj
 0002:00010ef0       ?lowercase@?1???$parse_floating_point_possible_nan@_WV?$input_adapter_character_source@V?$string_input_adapter@_W@__crt_stdio_input@@@__crt_strtox@@_K@__crt_strtox@@YA?AW4floating_point_parse_result@1@AA_WAAV?$input_adapter_character_source@V?$string_input_adapter@_W@__crt_stdio_input@@@1@_K@Z@4QB_WB 100c1ef0     libucrt:input.obj
 0002:00010ef8       ?inf_uppercase@?1???$parse_floating_point_possible_infinity@DV?$input_adapter_character_source@V?$string_input_adapter@D@__crt_stdio_input@@@__crt_strtox@@_K@__crt_strtox@@YA?AW4floating_point_parse_result@1@AADAAV?$input_adapter_character_source@V?$string_input_adapter@D@__crt_stdio_input@@@1@_K@Z@4QBDB 100c1ef8     libucrt:input.obj
 0002:00010efc       ?inf_lowercase@?1???$parse_floating_point_possible_infinity@DV?$input_adapter_character_source@V?$string_input_adapter@D@__crt_stdio_input@@@__crt_strtox@@_K@__crt_strtox@@YA?AW4floating_point_parse_result@1@AADAAV?$input_adapter_character_source@V?$string_input_adapter@D@__crt_stdio_input@@@1@_K@Z@4QBDB 100c1efc     libucrt:input.obj
 0002:00010f00       ?inity_uppercase@?1???$parse_floating_point_possible_infinity@DV?$input_adapter_character_source@V?$string_input_adapter@D@__crt_stdio_input@@@__crt_strtox@@_K@__crt_strtox@@YA?AW4floating_point_parse_result@1@AADAAV?$input_adapter_character_source@V?$string_input_adapter@D@__crt_stdio_input@@@1@_K@Z@4QBDB 100c1f00     libucrt:input.obj
 0002:00010f08       ?inity_lowercase@?1???$parse_floating_point_possible_infinity@DV?$input_adapter_character_source@V?$string_input_adapter@D@__crt_stdio_input@@@__crt_strtox@@_K@__crt_strtox@@YA?AW4floating_point_parse_result@1@AADAAV?$input_adapter_character_source@V?$string_input_adapter@D@__crt_stdio_input@@@1@_K@Z@4QBDB 100c1f08     libucrt:input.obj
 0002:00010f10       ?uppercase@?1???$parse_floating_point_possible_nan@DV?$input_adapter_character_source@V?$string_input_adapter@D@__crt_stdio_input@@@__crt_strtox@@_K@__crt_strtox@@YA?AW4floating_point_parse_result@1@AADAAV?$input_adapter_character_source@V?$string_input_adapter@D@__crt_stdio_input@@@1@_K@Z@4QBDB 100c1f10     libucrt:input.obj
 0002:00010f14       ?lowercase@?1???$parse_floating_point_possible_nan@DV?$input_adapter_character_source@V?$string_input_adapter@D@__crt_stdio_input@@@__crt_strtox@@_K@__crt_strtox@@YA?AW4floating_point_parse_result@1@AADAAV?$input_adapter_character_source@V?$string_input_adapter@D@__crt_stdio_input@@@1@_K@Z@4QBDB 100c1f14     libucrt:input.obj
 0002:00010f18       ?uppercase@?1???$parse_floating_point_possible_nan_is_snan@_WV?$input_adapter_character_source@V?$string_input_adapter@_W@__crt_stdio_input@@@__crt_strtox@@@__crt_strtox@@YA_NAA_WAAV?$input_adapter_character_source@V?$string_input_adapter@_W@__crt_stdio_input@@@1@@Z@4QB_WB 100c1f18     libucrt:input.obj
 0002:00010f24       ?lowercase@?1???$parse_floating_point_possible_nan_is_snan@_WV?$input_adapter_character_source@V?$string_input_adapter@_W@__crt_stdio_input@@@__crt_strtox@@@__crt_strtox@@YA_NAA_WAAV?$input_adapter_character_source@V?$string_input_adapter@_W@__crt_stdio_input@@@1@@Z@4QB_WB 100c1f24     libucrt:input.obj
 0002:00010f30       ?uppercase@?1???$parse_floating_point_possible_nan_is_ind@_WV?$input_adapter_character_source@V?$string_input_adapter@_W@__crt_stdio_input@@@__crt_strtox@@@__crt_strtox@@YA_NAA_WAAV?$input_adapter_character_source@V?$string_input_adapter@_W@__crt_stdio_input@@@1@@Z@4QB_WB 100c1f30     libucrt:input.obj
 0002:00010f38       ?lowercase@?1???$parse_floating_point_possible_nan_is_ind@_WV?$input_adapter_character_source@V?$string_input_adapter@_W@__crt_stdio_input@@@__crt_strtox@@@__crt_strtox@@YA_NAA_WAAV?$input_adapter_character_source@V?$string_input_adapter@_W@__crt_stdio_input@@@1@@Z@4QB_WB 100c1f38     libucrt:input.obj
 0002:00010f40       ?uppercase@?1???$parse_floating_point_possible_nan_is_snan@DV?$input_adapter_character_source@V?$string_input_adapter@D@__crt_stdio_input@@@__crt_strtox@@@__crt_strtox@@YA_NAADAAV?$input_adapter_character_source@V?$string_input_adapter@D@__crt_stdio_input@@@1@@Z@4QBDB 100c1f40     libucrt:input.obj
 0002:00010f48       ?lowercase@?1???$parse_floating_point_possible_nan_is_snan@DV?$input_adapter_character_source@V?$string_input_adapter@D@__crt_stdio_input@@@__crt_strtox@@@__crt_strtox@@YA_NAADAAV?$input_adapter_character_source@V?$string_input_adapter@D@__crt_stdio_input@@@1@@Z@4QBDB 100c1f48     libucrt:input.obj
 0002:00010f50       ?uppercase@?1???$parse_floating_point_possible_nan_is_ind@DV?$input_adapter_character_source@V?$string_input_adapter@D@__crt_stdio_input@@@__crt_strtox@@@__crt_strtox@@YA_NAADAAV?$input_adapter_character_source@V?$string_input_adapter@D@__crt_stdio_input@@@1@@Z@4QBDB 100c1f50     libucrt:input.obj
 0002:00010f54       ?lowercase@?1???$parse_floating_point_possible_nan_is_ind@DV?$input_adapter_character_source@V?$string_input_adapter@D@__crt_stdio_input@@@__crt_strtox@@@__crt_strtox@@YA_NAADAAV?$input_adapter_character_source@V?$string_input_adapter@D@__crt_stdio_input@@@1@@Z@4QBDB 100c1f54     libucrt:input.obj
 0002:00010f58       __d_inf                    100c1f58     libucrt:frexp.obj
 0002:00010f60       __d_max                    100c1f60     libucrt:frexp.obj
 0002:00010f68       __d_mzero                  100c1f68     libucrt:frexp.obj
 0002:00011110       __OP_FMODjmptab            100c2110     libucrt:87fmod_impl.obj
 0002:00011280       ?inf_uppercase@?1???$parse_floating_point_possible_infinity@DV?$c_string_character_source@D@__crt_strtox@@PBD@__crt_strtox@@YA?AW4floating_point_parse_result@1@AADAAV?$c_string_character_source@D@1@PBD@Z@4QBDB 100c2280     libucrt:atof.obj
 0002:00011284       ?inf_lowercase@?1???$parse_floating_point_possible_infinity@DV?$c_string_character_source@D@__crt_strtox@@PBD@__crt_strtox@@YA?AW4floating_point_parse_result@1@AADAAV?$c_string_character_source@D@1@PBD@Z@4QBDB 100c2284     libucrt:atof.obj
 0002:00011288       ?inity_uppercase@?1???$parse_floating_point_possible_infinity@DV?$c_string_character_source@D@__crt_strtox@@PBD@__crt_strtox@@YA?AW4floating_point_parse_result@1@AADAAV?$c_string_character_source@D@1@PBD@Z@4QBDB 100c2288     libucrt:atof.obj
 0002:00011290       ?inity_lowercase@?1???$parse_floating_point_possible_infinity@DV?$c_string_character_source@D@__crt_strtox@@PBD@__crt_strtox@@YA?AW4floating_point_parse_result@1@AADAAV?$c_string_character_source@D@1@PBD@Z@4QBDB 100c2290     libucrt:atof.obj
 0002:00011298       ?uppercase@?1???$parse_floating_point_possible_nan@DV?$c_string_character_source@D@__crt_strtox@@PBD@__crt_strtox@@YA?AW4floating_point_parse_result@1@AADAAV?$c_string_character_source@D@1@PBD@Z@4QBDB 100c2298     libucrt:atof.obj
 0002:0001129c       ?lowercase@?1???$parse_floating_point_possible_nan@DV?$c_string_character_source@D@__crt_strtox@@PBD@__crt_strtox@@YA?AW4floating_point_parse_result@1@AADAAV?$c_string_character_source@D@1@PBD@Z@4QBDB 100c229c     libucrt:atof.obj
 0002:000112a0       ?uppercase@?1???$parse_floating_point_possible_nan_is_snan@DV?$c_string_character_source@D@__crt_strtox@@@__crt_strtox@@YA_NAADAAV?$c_string_character_source@D@1@@Z@4QBDB 100c22a0     libucrt:atof.obj
 0002:000112a8       ?lowercase@?1???$parse_floating_point_possible_nan_is_snan@DV?$c_string_character_source@D@__crt_strtox@@@__crt_strtox@@YA_NAADAAV?$c_string_character_source@D@1@@Z@4QBDB 100c22a8     libucrt:atof.obj
 0002:000112b0       ?uppercase@?1???$parse_floating_point_possible_nan_is_ind@DV?$c_string_character_source@D@__crt_strtox@@@__crt_strtox@@YA_NAADAAV?$c_string_character_source@D@1@@Z@4QBDB 100c22b0     libucrt:atof.obj
 0002:000112b4       ?lowercase@?1???$parse_floating_point_possible_nan_is_ind@DV?$c_string_character_source@D@__crt_strtox@@@__crt_strtox@@YA_NAADAAV?$c_string_character_source@D@1@@Z@4QBDB 100c22b4     libucrt:atof.obj
 0002:00011460       ___newctype                100c2460     libucrt:ctype.obj
 0002:00011760       ___newclmap                100c2760     libucrt:ctype.obj
 0002:000118e0       ___newcumap                100c28e0     libucrt:ctype.obj
 0002:00011a60       __wctype                   100c2a60     libucrt:ctype.obj
 0002:00011dd0       ___acrt_exception_action_table 100c2dd0     libucrt:exception_filter.obj
 0002:00011e60       ___acrt_signal_action_table_count 100c2e60     libucrt:exception_filter.obj
 0002:00011e64       ___acrt_signal_action_first_fpe_index 100c2e64     libucrt:exception_filter.obj
 0002:00011e68       ___acrt_signal_action_fpe_count 100c2e68     libucrt:exception_filter.obj
 0002:00011e6c       ??_C@_1BI@BGOHAHKC@?$AAm?$AAs?$AAc?$AAo?$AAr?$AAe?$AAe?$AA?4?$AAd?$AAl?$AAl@ 100c2e6c     libucrt:exit.obj
 0002:00011e84       ??_C@_0P@MIGLKIOC@CorExitProcess@ 100c2e84     libucrt:exit.obj
 0002:00012000       ??_C@_03KHJOGHMM@exp@      100c3000     libucrt:fpexcept.obj
 0002:00012004       ??_C@_03JGHBODFD@pow@      100c3004     libucrt:fpexcept.obj
 0002:00012008       ??_C@_03MGHMBJCF@log@      100c3008     libucrt:fpexcept.obj
 0002:0001200c       ??_C@_05HGHHAHAP@log10@    100c300c     libucrt:fpexcept.obj
 0002:00012014       ??_C@_04COOMCNPB@sinh@     100c3014     libucrt:fpexcept.obj
 0002:0001201c       ??_C@_04HPJJNFIM@cosh@     100c301c     libucrt:fpexcept.obj
 0002:00012024       ??_C@_04FJHINJAO@tanh@     100c3024     libucrt:fpexcept.obj
 0002:0001202c       ??_C@_04FIHNOPOL@asin@     100c302c     libucrt:fpexcept.obj
 0002:00012034       ??_C@_04PDIFKINK@acos@     100c3034     libucrt:fpexcept.obj
 0002:0001203c       ??_C@_04MLLJIGOK@atan@     100c303c     libucrt:fpexcept.obj
 0002:00012044       ??_C@_05KNGEOGJB@atan2@    100c3044     libucrt:fpexcept.obj
 0002:0001204c       ??_C@_04EIAKFFMI@sqrt@     100c304c     libucrt:fpexcept.obj
 0002:00012054       ??_C@_03BLEJJJBH@sin@      100c3054     libucrt:fpexcept.obj
 0002:00012058       ??_C@_03LALBNOCG@cos@      100c3058     libucrt:fpexcept.obj
 0002:0001205c       ??_C@_03IIINPABG@tan@      100c305c     libucrt:fpexcept.obj
 0002:00012060       ??_C@_04GFPJNGEK@ceil@     100c3060     libucrt:fpexcept.obj
 0002:00012068       ??_C@_05PBJFFIGL@floor@    100c3068     libucrt:fpexcept.obj
 0002:00012070       ??_C@_04ODHECPBC@fabs@     100c3070     libucrt:fpexcept.obj
 0002:00012078       ??_C@_04EHEDPDJG@modf@     100c3078     libucrt:fpexcept.obj
 0002:00012080       ??_C@_05CEJMAHNP@ldexp@    100c3080     libucrt:fpexcept.obj
 0002:00012088       ??_C@_05KBKMEMPO@_cabs@    100c3088     libucrt:fpexcept.obj
 0002:00012090       ??_C@_06MEIMCGCF@_hypot@   100c3090     libucrt:fpexcept.obj
 0002:00012098       ??_C@_04KEPJIHGP@fmod@     100c3098     libucrt:fpexcept.obj
 0002:000120a0       ??_C@_05GKKHEGJL@frexp@    100c30a0     libucrt:fpexcept.obj
 0002:000120a8       ??_C@_03MJLDFKDL@_y0@      100c30a8     libucrt:fpexcept.obj
 0002:000120ac       ??_C@_03NAKIGLHK@_y1@      100c30ac     libucrt:fpexcept.obj
 0002:000120b0       ??_C@_03ONILCKOB@_yn@      100c30b0     libucrt:fpexcept.obj
 0002:000120b4       ??_C@_05JGDBENOH@_logb@    100c30b4     libucrt:fpexcept.obj
 0002:000120bc       ??_C@_0L@KDOEJCKC@_nextafter@ 100c30bc     libucrt:fpexcept.obj
 0002:00012148       ___lc_category             100c3148     libucrt:wsetlocale.obj
 0002:00012190       ??_C@_1O@GIFLHMA@?$AAL?$AAC?$AA_?$AAA?$AAL?$AAL@ 100c3190     libucrt:wsetlocale.obj
 0002:000121a0       ??_C@_1BG@PPOMIBNJ@?$AAL?$AAC?$AA_?$AAC?$AAO?$AAL?$AAL?$AAA?$AAT?$AAE@ 100c31a0     libucrt:wsetlocale.obj
 0002:000121b8       ??_C@_1BC@FFJGAPJM@?$AAL?$AAC?$AA_?$AAC?$AAT?$AAY?$AAP?$AAE@ 100c31b8     libucrt:wsetlocale.obj
 0002:000121cc       ??_C@_1BI@PCKFNJFB@?$AAL?$AAC?$AA_?$AAM?$AAO?$AAN?$AAE?$AAT?$AAA?$AAR?$AAY@ 100c31cc     libucrt:wsetlocale.obj
 0002:000121e4       ??_C@_1BG@ENIEDKID@?$AAL?$AAC?$AA_?$AAN?$AAU?$AAM?$AAE?$AAR?$AAI?$AAC@ 100c31e4     libucrt:wsetlocale.obj
 0002:000121fc       ??_C@_1BA@HAAOMIIG@?$AAL?$AAC?$AA_?$AAT?$AAI?$AAM?$AAE@ 100c31fc     libucrt:wsetlocale.obj
 0002:0001220c       ??_C@_15NBPDDFIP@?$AA?$DN?$AA?$DL@ 100c320c     libucrt:wsetlocale.obj
 0002:00012214       ??_C@_13PJJBFPED@?$AA?$DL@ 100c3214     libucrt:wsetlocale.obj
 0002:00012218       ??_C@_13NMPKAAJP@?$AA?$DN@ 100c3218     libucrt:wsetlocale.obj
 0002:0001221c       ??_C@_17EFJLDFDO@?$AA?9?$AA_?$AA?4@ 100c321c     libucrt:wsetlocale.obj
 0002:00012224       ??_C@_13FHBKNHDA@?$AAC@    100c3224     libucrt:wsetlocale.obj
 0002:00012228       ??_C@_17MBJJLFDM@?$AA_?$AA?4?$AA?0@ 100c3228     libucrt:wsetlocale.obj
 0002:00012230       ??_C@_13ENNFDPBH@?$AA_@    100c3230     libucrt:wsetlocale.obj
 0002:00012234       ??_C@_13JOFGPIOO@?$AA?4@   100c3234     libucrt:wsetlocale.obj
 0002:00012238       ___lc_time_c               100c3238     libucrt:nlsdata.obj
 0002:0001239c       ??_C@_03KOEHGMDN@Sun@      100c339c     libucrt:nlsdata.obj
 0002:000123a0       ??_C@_03PDAGKDH@Mon@       100c33a0     libucrt:nlsdata.obj
 0002:000123a4       ??_C@_03NAGEINEP@Tue@      100c33a4     libucrt:nlsdata.obj
 0002:000123a8       ??_C@_03MHOMLAJA@Wed@      100c33a8     libucrt:nlsdata.obj
 0002:000123ac       ??_C@_03IOFIKPDN@Thu@      100c33ac     libucrt:nlsdata.obj
 0002:000123b0       ??_C@_03IDIOELNC@Fri@      100c33b0     libucrt:nlsdata.obj
 0002:000123b4       ??_C@_03FEFJNEK@Sat@       100c33b4     libucrt:nlsdata.obj
 0002:000123b8       ??_C@_06OOPIFAJ@Sunday@    100c33b8     libucrt:nlsdata.obj
 0002:000123c0       ??_C@_06JLEDEDGH@Monday@   100c33c0     libucrt:nlsdata.obj
 0002:000123c8       ??_C@_07BAAGCFCM@Tuesday@  100c33c8     libucrt:nlsdata.obj
 0002:000123d0       ??_C@_09DLIGFAKA@Wednesday@ 100c33d0     libucrt:nlsdata.obj
 0002:000123dc       ??_C@_08HACCIKIA@Thursday@ 100c33dc     libucrt:nlsdata.obj
 0002:000123e8       ??_C@_06JECMNKMI@Friday@   100c33e8     libucrt:nlsdata.obj
 0002:000123f0       ??_C@_08INBOOONO@Saturday@ 100c33f0     libucrt:nlsdata.obj
 0002:000123fc       ??_C@_03JIHJHPIE@Jan@      100c33fc     libucrt:nlsdata.obj
 0002:00012400       ??_C@_03HJBDCHOM@Feb@      100c3400     libucrt:nlsdata.obj
 0002:00012404       ??_C@_03ODNJBKGA@Mar@      100c3404     libucrt:nlsdata.obj
 0002:00012408       ??_C@_03LEOLGMJP@Apr@      100c3408     libucrt:nlsdata.obj
 0002:0001240c       ??_C@_03CNMDKL@May@        100c340c     libucrt:nlsdata.obj
 0002:00012410       ??_C@_03IDFGHECI@Jun@      100c3410     libucrt:nlsdata.obj
 0002:00012414       ??_C@_03LBGABGKK@Jul@      100c3414     libucrt:nlsdata.obj
 0002:00012418       ??_C@_03IFJFEIGA@Aug@      100c3418     libucrt:nlsdata.obj
 0002:0001241c       ??_C@_03GGCAPAJC@Sep@      100c341c     libucrt:nlsdata.obj
 0002:00012420       ??_C@_03BMAOKBAD@Oct@      100c3420     libucrt:nlsdata.obj
 0002:00012424       ??_C@_03JPJOFNIA@Nov@      100c3424     libucrt:nlsdata.obj
 0002:00012428       ??_C@_03MKABNOCG@Dec@      100c3428     libucrt:nlsdata.obj
 0002:0001242c       ??_C@_07CGJPFGJA@January@  100c342c     libucrt:nlsdata.obj
 0002:00012434       ??_C@_08GNJGEPFN@February@ 100c3434     libucrt:nlsdata.obj
 0002:00012440       ??_C@_05HPCKOFNC@March@    100c3440     libucrt:nlsdata.obj
 0002:00012448       ??_C@_05DMJDNLEJ@April@    100c3448     libucrt:nlsdata.obj
 0002:00012450       ??_C@_04CNLMGBGM@June@     100c3450     libucrt:nlsdata.obj
 0002:00012458       ??_C@_04MIEPOIFP@July@     100c3458     libucrt:nlsdata.obj
 0002:00012460       ??_C@_06LBBHFDDG@August@   100c3460     libucrt:nlsdata.obj
 0002:00012468       ??_C@_09BHHEALKD@September@ 100c3468     libucrt:nlsdata.obj
 0002:00012474       ??_C@_07JJNFCEND@October@  100c3474     libucrt:nlsdata.obj
 0002:0001247c       ??_C@_08HCHEGEOA@November@ 100c347c     libucrt:nlsdata.obj
 0002:00012488       ??_C@_08EDHMEBNP@December@ 100c3488     libucrt:nlsdata.obj
 0002:00012494       ??_C@_02DEDBPAFC@AM@       100c3494     libucrt:nlsdata.obj
 0002:00012498       ??_C@_02CJNFDJBF@PM@       100c3498     libucrt:nlsdata.obj
 0002:0001249c       ??_C@_08BPBNCDIB@MM?1dd?1yy@ 100c349c     libucrt:nlsdata.obj
 0002:000124a8       ??_C@_0BE@CKGJFCPC@dddd?0?5MMMM?5dd?0?5yyyy@ 100c34a8     libucrt:nlsdata.obj
 0002:000124bc       ??_C@_08JCCMCCIL@HH?3mm?3ss@ 100c34bc     libucrt:nlsdata.obj
 0002:000124c8       ??_C@_17MBGCMIPB@?$AAS?$AAu?$AAn@ 100c34c8     libucrt:nlsdata.obj
 0002:000124d0       ??_C@_17KBOMKBF@?$AAM?$AAo?$AAn@ 100c34d0     libucrt:nlsdata.obj
 0002:000124d8       ??_C@_17BMKGEGOJ@?$AAT?$AAu?$AAe@ 100c34d8     libucrt:nlsdata.obj
 0002:000124e0       ??_C@_17CJEDCEPE@?$AAW?$AAe?$AAd@ 100c34e0     libucrt:nlsdata.obj
 0002:000124e8       ??_C@_17PDPHAADD@?$AAT?$AAh?$AAu@ 100c34e8     libucrt:nlsdata.obj
 0002:000124f0       ??_C@_17HFOLPPLP@?$AAF?$AAr?$AAi@ 100c34f0     libucrt:nlsdata.obj
 0002:000124f8       ??_C@_17GGIBDPIH@?$AAS?$AAa?$AAt@ 100c34f8     libucrt:nlsdata.obj
 0002:00012500       ??_C@_1O@IHNHDHPB@?$AAS?$AAu?$AAn?$AAd?$AAa?$AAy@ 100c3500     libucrt:nlsdata.obj
 0002:00012510       ??_C@_1O@MMNBFLIA@?$AAM?$AAo?$AAn?$AAd?$AAa?$AAy@ 100c3510     libucrt:nlsdata.obj
 0002:00012520       ??_C@_1BA@ENFBFFEK@?$AAT?$AAu?$AAe?$AAs?$AAd?$AAa?$AAy@ 100c3520     libucrt:nlsdata.obj
 0002:00012530       ??_C@_1BE@EBOGMDOH@?$AAW?$AAe?$AAd?$AAn?$AAe?$AAs?$AAd?$AAa?$AAy@ 100c3530     libucrt:nlsdata.obj
 0002:00012544       ??_C@_1BC@HHMNLIHE@?$AAT?$AAh?$AAu?$AAr?$AAs?$AAd?$AAa?$AAy@ 100c3544     libucrt:nlsdata.obj
 0002:00012558       ??_C@_1O@PDICJHAG@?$AAF?$AAr?$AAi?$AAd?$AAa?$AAy@ 100c3558     libucrt:nlsdata.obj
 0002:00012568       ??_C@_1BC@ENMNNPAJ@?$AAS?$AAa?$AAt?$AAu?$AAr?$AAd?$AAa?$AAy@ 100c3568     libucrt:nlsdata.obj
 0002:0001257c       ??_C@_17DKNBKCHM@?$AAJ?$AAa?$AAn@ 100c357c     libucrt:nlsdata.obj
 0002:00012584       ??_C@_17LMDJEKJN@?$AAF?$AAe?$AAb@ 100c3584     libucrt:nlsdata.obj
 0002:0001258c       ??_C@_17CKNLEDEC@?$AAM?$AAa?$AAr@ 100c358c     libucrt:nlsdata.obj
 0002:00012594       ??_C@_17LFPOIHDD@?$AAA?$AAp?$AAr@ 100c3594     libucrt:nlsdata.obj
 0002:0001259c       ??_C@_17PNNKMEED@?$AAM?$AAa?$AAy@ 100c359c     libucrt:nlsdata.obj
 0002:000125a4       ??_C@_17KCJGOCPB@?$AAJ?$AAu?$AAn@ 100c35a4     libucrt:nlsdata.obj
 0002:000125ac       ??_C@_17IJPCKHK@?$AAJ?$AAu?$AAl@ 100c35ac     libucrt:nlsdata.obj
 0002:000125b4       ??_C@_17ICPELBCN@?$AAA?$AAu?$AAg@ 100c35b4     libucrt:nlsdata.obj
 0002:000125bc       ??_C@_17HCHCOKMG@?$AAS?$AAe?$AAp@ 100c35bc     libucrt:nlsdata.obj
 0002:000125c4       ??_C@_17FNLKOI@?$AAO?$AAc?$AAt@ 100c35c4     libucrt:nlsdata.obj
 0002:000125cc       ??_C@_17BBDMLCIG@?$AAN?$AAo?$AAv@ 100c35cc     libucrt:nlsdata.obj
 0002:000125d4       ??_C@_17EGKACKIF@?$AAD?$AAe?$AAc@ 100c35d4     libucrt:nlsdata.obj
 0002:000125dc       ??_C@_1BA@EFMEIEBA@?$AAJ?$AAa?$AAn?$AAu?$AAa?$AAr?$AAy@ 100c35dc     libucrt:nlsdata.obj
 0002:000125ec       ??_C@_1BC@JGDDFFAM@?$AAF?$AAe?$AAb?$AAr?$AAu?$AAa?$AAr?$AAy@ 100c35ec     libucrt:nlsdata.obj
 0002:00012600       ??_C@_1M@IKEENEDF@?$AAM?$AAa?$AAr?$AAc?$AAh@ 100c3600     libucrt:nlsdata.obj
 0002:0001260c       ??_C@_1M@GJNLMHFD@?$AAA?$AAp?$AAr?$AAi?$AAl@ 100c360c     libucrt:nlsdata.obj
 0002:00012618       ??_C@_19EPFLPGAP@?$AAJ?$AAu?$AAn?$AAe@ 100c3618     libucrt:nlsdata.obj
 0002:00012624       ??_C@_19BIFMLPCD@?$AAJ?$AAu?$AAl?$AAy@ 100c3624     libucrt:nlsdata.obj
 0002:00012630       ??_C@_1O@PAHLKOAC@?$AAA?$AAu?$AAg?$AAu?$AAs?$AAt@ 100c3630     libucrt:nlsdata.obj
 0002:00012640       ??_C@_1BE@DKAAMBJL@?$AAS?$AAe?$AAp?$AAt?$AAe?$AAm?$AAb?$AAe?$AAr@ 100c3640     libucrt:nlsdata.obj
 0002:00012654       ??_C@_1BA@EPANDLNG@?$AAO?$AAc?$AAt?$AAo?$AAb?$AAe?$AAr@ 100c3654     libucrt:nlsdata.obj
 0002:00012664       ??_C@_1BC@BGLIFPF@?$AAN?$AAo?$AAv?$AAe?$AAm?$AAb?$AAe?$AAr@ 100c3664     libucrt:nlsdata.obj
 0002:00012678       ??_C@_1BC@FEMKIFH@?$AAD?$AAe?$AAc?$AAe?$AAm?$AAb?$AAe?$AAr@ 100c3678     libucrt:nlsdata.obj
 0002:0001268c       ??_C@_15ODEHAHHF@?$AAA?$AAM@ 100c368c     libucrt:nlsdata.obj
 0002:00012694       ??_C@_15CLMNNGEL@?$AAP?$AAM@ 100c3694     libucrt:nlsdata.obj
 0002:0001269c       ??_C@_1BC@IEBCMHCM@?$AAM?$AAM?$AA?1?$AAd?$AAd?$AA?1?$AAy?$AAy@ 100c369c     libucrt:nlsdata.obj
 0002:000126b0       ??_C@_1CI@KNAKOEBC@?$AAd?$AAd?$AAd?$AAd?$AA?0?$AA?5?$AAM?$AAM?$AAM?$AAM?$AA?5?$AAd?$AAd?$AA?0?$AA?5@ 100c36b0     libucrt:nlsdata.obj
 0002:000126d8       ??_C@_1BC@GDGBMEMK@?$AAH?$AAH?$AA?3?$AAm?$AAm?$AA?3?$AAs?$AAs@ 100c36d8     libucrt:nlsdata.obj
 0002:000126ec       ??_C@_1M@BMHNFIME@?$AAe?$AAn?$AA?9?$AAU?$AAS@ 100c36ec     libucrt:nlsdata.obj
 0002:00012738       ??_C@_03OEIAHPBN@INF@      100c3738     libucrt:cvt.obj
 0002:0001273c       ??_C@_03OJHLLCGB@inf@      100c373c     libucrt:cvt.obj
 0002:00012740       ??_C@_03LKNCIKJB@NAN@      100c3740     libucrt:cvt.obj
 0002:00012744       ??_C@_03LHCJEHON@nan@      100c3744     libucrt:cvt.obj
 0002:00012748       ??_C@_09OFJJIMPC@NAN?$CISNAN?$CJ@ 100c3748     libucrt:cvt.obj
 0002:00012754       ??_C@_09IPFBKMDL@nan?$CIsnan?$CJ@ 100c3754     libucrt:cvt.obj
 0002:00012760       ??_C@_08IKHNHAJ@NAN?$CIIND?$CJ@ 100c3760     libucrt:cvt.obj
 0002:0001276c       ??_C@_08OFCDMILK@nan?$CIind?$CJ@ 100c376c     libucrt:cvt.obj
 0002:00012778       ??_C@_05KLBDPFGC@e?$CL000@ 100c3778     libucrt:cvt.obj
 0002:00012780       ?ccs@?1???$__acrt_stdio_parse_mode@D@@YA?AU__acrt_stdio_stream_mode@@QBD@Z@4QBDB 100c3780     libucrt:openfile.obj
 0002:00012784       ?utf8_encoding@?1???$__acrt_stdio_parse_mode@D@@YA?AU__acrt_stdio_stream_mode@@QBD@Z@4QBDB 100c3784     libucrt:openfile.obj
 0002:0001278c       ?utf16_encoding@?1???$__acrt_stdio_parse_mode@D@@YA?AU__acrt_stdio_stream_mode@@QBD@Z@4QBDB 100c378c     libucrt:openfile.obj
 0002:00012794       ?unicode_encoding@?1???$__acrt_stdio_parse_mode@D@@YA?AU__acrt_stdio_stream_mode@@QBD@Z@4QBDB 100c3794     libucrt:openfile.obj
 0002:0001279c       ?ccs@?1???$__acrt_stdio_parse_mode@_W@@YA?AU__acrt_stdio_stream_mode@@QB_W@Z@4QB_WB 100c379c     libucrt:openfile.obj
 0002:000127a4       ?utf8_encoding@?1???$__acrt_stdio_parse_mode@_W@@YA?AU__acrt_stdio_stream_mode@@QB_W@Z@4QB_WB 100c37a4     libucrt:openfile.obj
 0002:000127b0       ?utf16_encoding@?1???$__acrt_stdio_parse_mode@_W@@YA?AU__acrt_stdio_stream_mode@@QB_W@Z@4QB_WB 100c37b0     libucrt:openfile.obj
 0002:000127c0       ?unicode_encoding@?1???$__acrt_stdio_parse_mode@_W@@YA?AU__acrt_stdio_stream_mode@@QB_W@Z@4QB_WB 100c37c0     libucrt:openfile.obj
 0002:00012830       ??_C@_1EA@JGEFHKEI@?$AAa?$AAp?$AAi?$AA?9?$AAm?$AAs?$AA?9?$AAw?$AAi?$AAn?$AA?9?$AAc?$AAo?$AAr?$AAe@ 100c3830     libucrt:winapi_thunks.obj
 0002:00012870       ??_C@_1DM@LFJCLCKP@?$AAa?$AAp?$AAi?$AA?9?$AAm?$AAs?$AA?9?$AAw?$AAi?$AAn?$AA?9?$AAc?$AAo?$AAr?$AAe@ 100c3870     libucrt:winapi_thunks.obj
 0002:000128ac       ??_C@_1DI@KMEPCBPN@?$AAa?$AAp?$AAi?$AA?9?$AAm?$AAs?$AA?9?$AAw?$AAi?$AAn?$AA?9?$AAc?$AAo?$AAr?$AAe@ 100c38ac     libucrt:winapi_thunks.obj
 0002:000128e4       ??_C@_1DI@IJCEHOCB@?$AAa?$AAp?$AAi?$AA?9?$AAm?$AAs?$AA?9?$AAw?$AAi?$AAn?$AA?9?$AAc?$AAo?$AAr?$AAe@ 100c38e4     libucrt:winapi_thunks.obj
 0002:0001291c       ??_C@_1DI@FFFOPEOO@?$AAa?$AAp?$AAi?$AA?9?$AAm?$AAs?$AA?9?$AAw?$AAi?$AAn?$AA?9?$AAc?$AAo?$AAr?$AAe@ 100c391c     libucrt:winapi_thunks.obj
 0002:00012958       ??_C@_1EI@MPIAOHOC@?$AAa?$AAp?$AAi?$AA?9?$AAm?$AAs?$AA?9?$AAw?$AAi?$AAn?$AA?9?$AAc?$AAo?$AAr?$AAe@ 100c3958     libucrt:winapi_thunks.obj
 0002:000129a0       ??_C@_1FK@FPHCKFIE@?$AAa?$AAp?$AAi?$AA?9?$AAm?$AAs?$AA?9?$AAw?$AAi?$AAn?$AA?9?$AAc?$AAo?$AAr?$AAe@ 100c39a0     libucrt:winapi_thunks.obj
 0002:00012a00       ??_C@_1EM@DILCGIIO@?$AAa?$AAp?$AAi?$AA?9?$AAm?$AAs?$AA?9?$AAw?$AAi?$AAn?$AA?9?$AAc?$AAo?$AAr?$AAe@ 100c3a00     libucrt:winapi_thunks.obj
 0002:00012a4c       ??_C@_1DM@LNCGDDPN@?$AAa?$AAp?$AAi?$AA?9?$AAm?$AAs?$AA?9?$AAw?$AAi?$AAn?$AA?9?$AAc?$AAo?$AAr?$AAe@ 100c3a4c     libucrt:winapi_thunks.obj
 0002:00012a88       ??_C@_1DO@FPAPJEMD@?$AAa?$AAp?$AAi?$AA?9?$AAm?$AAs?$AA?9?$AAw?$AAi?$AAn?$AA?9?$AAc?$AAo?$AAr?$AAe@ 100c3a88     libucrt:winapi_thunks.obj
 0002:00012ac8       ??_C@_1DK@NDHNAHIO@?$AAa?$AAp?$AAi?$AA?9?$AAm?$AAs?$AA?9?$AAw?$AAi?$AAn?$AA?9?$AAc?$AAo?$AAr?$AAe@ 100c3ac8     libucrt:winapi_thunks.obj
 0002:00012b04       ??_C@_1DM@KGHDGBCM@?$AAa?$AAp?$AAi?$AA?9?$AAm?$AAs?$AA?9?$AAw?$AAi?$AAn?$AA?9?$AAc?$AAo?$AAr?$AAe@ 100c3b04     libucrt:winapi_thunks.obj
 0002:00012b40       ??_C@_1EO@IJIOEFOH@?$AAa?$AAp?$AAi?$AA?9?$AAm?$AAs?$AA?9?$AAw?$AAi?$AAn?$AA?9?$AAr?$AAt?$AAc?$AAo@ 100c3b40     libucrt:winapi_thunks.obj
 0002:00012b90       ??_C@_1FG@HHGEKANL@?$AAa?$AAp?$AAi?$AA?9?$AAm?$AAs?$AA?9?$AAw?$AAi?$AAn?$AA?9?$AAs?$AAe?$AAc?$AAu@ 100c3b90     libucrt:winapi_thunks.obj
 0002:00012be8       ??_C@_1EG@DBIOJECG@?$AAe?$AAx?$AAt?$AA?9?$AAm?$AAs?$AA?9?$AAw?$AAi?$AAn?$AA?9?$AAn?$AAt?$AAu?$AAs@ 100c3be8     libucrt:winapi_thunks.obj
 0002:00012c30       ??_C@_1EO@FIHMJCLF@?$AAe?$AAx?$AAt?$AA?9?$AAm?$AAs?$AA?9?$AAw?$AAi?$AAn?$AA?9?$AAn?$AAt?$AAu?$AAs@ 100c3c30     libucrt:winapi_thunks.obj
 0002:00012c80       ??_C@_1BC@DNHGCMLG@?$AAa?$AAd?$AAv?$AAa?$AAp?$AAi?$AA3?$AA2@ 100c3c80     libucrt:winapi_thunks.obj
 0002:00012c94       ??_C@_1BG@CJPGBMEF@?$AAk?$AAe?$AAr?$AAn?$AAe?$AAl?$AAb?$AAa?$AAs?$AAe@ 100c3c94     libucrt:winapi_thunks.obj
 0002:00012cac       ??_C@_1M@OAIMIKLP@?$AAn?$AAt?$AAd?$AAl?$AAl@ 100c3cac     libucrt:winapi_thunks.obj
 0002:00012cb8       ??_C@_1EG@DPGNFKGC@?$AAa?$AAp?$AAi?$AA?9?$AAm?$AAs?$AA?9?$AAw?$AAi?$AAn?$AA?9?$AAa?$AAp?$AAp?$AAm@ 100c3cb8     libucrt:winapi_thunks.obj
 0002:00012d00       ??_C@_1O@BCCLBEOE@?$AAu?$AAs?$AAe?$AAr?$AA3?$AA2@ 100c3d00     libucrt:winapi_thunks.obj
 0002:00012d10       ??_C@_1BA@IAIFMGEF@?$AAe?$AAx?$AAt?$AA?9?$AAm?$AAs?$AA?9@ 100c3d10     libucrt:winapi_thunks.obj
 0002:00012d24       ??_C@_0BA@FHFNEAED@AreFileApisANSI@ 100c3d24     libucrt:winapi_thunks.obj
 0002:00012d3c       ??_C@_0BA@IHGNDAEB@CompareStringEx@ 100c3d3c     libucrt:winapi_thunks.obj
 0002:00012d54       ??_C@_0BE@LJANKFHF@EnumSystemLocalesEx@ 100c3d54     libucrt:winapi_thunks.obj
 0002:00012d70       ??_C@_0N@MFBBDCAC@FlsGetValue2@ 100c3d70     libucrt:winapi_thunks.obj
 0002:00012d88       ??_C@_0BA@EPCJIIPD@GetDateFormatEx@ 100c3d88     libucrt:winapi_thunks.obj
 0002:00012da0       ??_C@_0BA@ONOKGCMP@GetLocaleInfoEx@ 100c3da0     libucrt:winapi_thunks.obj
 0002:00012db8       ??_C@_0BA@CIJJKCJJ@GetTimeFormatEx@ 100c3db8     libucrt:winapi_thunks.obj
 0002:00012dd0       ??_C@_0BJ@PBCCBIPI@GetUserDefaultLocaleName@ 100c3dd0     libucrt:winapi_thunks.obj
 0002:00012df4       ??_C@_0BC@CELBKLLA@IsValidLocaleName@ 100c3df4     libucrt:winapi_thunks.obj
 0002:00012e10       ??_C@_0O@KKBNKAPF@LCMapStringEx@ 100c3e10     libucrt:winapi_thunks.obj
 0002:00012e28       ??_C@_0BB@CDHDDLLP@LCIDToLocaleName@ 100c3e28     libucrt:winapi_thunks.obj
 0002:00012e44       ??_C@_0BB@HBDEELFH@LocaleNameToLCID@ 100c3e44     libucrt:winapi_thunks.obj
 0002:00012e5c       ??_C@_0CF@OJOFEIGO@AppPolicyGetProcessTerminationM@ 100c3e5c     libucrt:winapi_thunks.obj
 0002:00012eb0       ___acrt_cos_sin_ctable     100c3eb0     libucrt:cos_sin_ctable.obj
 0002:000136f0       __indefinite               100c46f0     libucrt:87disp.obj
 0002:000136fa       __piby2                    100c46fa     libucrt:87disp.obj
 0002:00013704       __piby4                    100c4704     libucrt:87disp.obj
 0002:00013740       ___acrt_acos_asin_tbl_addr 100c4740     libucrt:acos_asin_tbl_addr.obj
 0002:00014640       ___acrt_acos_asin_t_table  100c5640     libucrt:acos_asin_t_table.obj
 0002:00014e40       __OP_ATAN2jmptab           100c5e40     libucrt:87triga.obj
 0002:00014ea0       ___acrt_log_table_b        100c5ea0     libucrt:log_tables.obj
 0002:000152b0       ___acrt_log_table_t        100c62b0     libucrt:log_tables.obj
 0002:000156c4       __half                     100c66c4     libucrt:pow_impl.obj
 0002:000156d0       ___acrt_pow_rcp_t1         100c66d0     libucrt:pow_tables.obj
 0002:00015ae0       ___acrt_pow_log2_t1        100c6ae0     libucrt:pow_tables.obj
 0002:000162f0       ___acrt_pow_rcp_t2         100c72f0     libucrt:pow_tables.obj
 0002:00016700       ___acrt_pow_log2_t2        100c7700     libucrt:pow_tables.obj
 0002:00016f10       ___acrt_pow_rcp_t3         100c7f10     libucrt:pow_tables.obj
 0002:00017720       ___acrt_pow_log2_t3        100c8720     libucrt:pow_tables.obj
 0002:00018730       ___acrt_pow_clv            100c9730     libucrt:pow_tables.obj
 0002:00018750       ___acrt_pow_exp2_tbl       100c9750     libucrt:pow_tables.obj
 0002:00018f60       ??_C@_1M@HPNHIDJI@?$AAj?$AAa?$AA?9?$AAJ?$AAP@ 100c9f60     libucrt:mbctype.obj
 0002:00018f6c       ??_C@_1M@BIBDDEMK@?$AAz?$AAh?$AA?9?$AAC?$AAN@ 100c9f6c     libucrt:mbctype.obj
 0002:00018f78       ??_C@_1M@JLOOOEGK@?$AAk?$AAo?$AA?9?$AAK?$AAR@ 100c9f78     libucrt:mbctype.obj
 0002:00018f84       ??_C@_1M@CLNBBOPM@?$AAz?$AAh?$AA?9?$AAT?$AAW@ 100c9f84     libucrt:mbctype.obj
 0002:00018f90       ___acrt_rg_language        100c9f90     libucrt:get_qualified_locale.obj
 0002:0001929c       ___acrt_rg_language_count  100ca29c     libucrt:get_qualified_locale.obj
 0002:000192a0       ___acrt_rg_country         100ca2a0     libucrt:get_qualified_locale.obj
 0002:000193b4       ___acrt_rg_country_count   100ca3b4     libucrt:get_qualified_locale.obj
 0002:000193b8       ??_C@_1BC@LLOKLNP@?$AAa?$AAm?$AAe?$AAr?$AAi?$AAc?$AAa?$AAn@ 100ca3b8     libucrt:get_qualified_locale.obj
 0002:000193cc       ??_C@_1CC@HEIGCDGG@?$AAa?$AAm?$AAe?$AAr?$AAi?$AAc?$AAa?$AAn?$AA?5?$AAe?$AAn?$AAg?$AAl?$AAi?$AAs@ 100ca3cc     libucrt:get_qualified_locale.obj
 0002:000193f0       ??_C@_1CC@IHCNOMIN@?$AAa?$AAm?$AAe?$AAr?$AAi?$AAc?$AAa?$AAn?$AA?9?$AAe?$AAn?$AAg?$AAl?$AAi?$AAs@ 100ca3f0     libucrt:get_qualified_locale.obj
 0002:00019414       ??_C@_1BG@GKAGPCGG@?$AAa?$AAu?$AAs?$AAt?$AAr?$AAa?$AAl?$AAi?$AAa?$AAn@ 100ca414     libucrt:get_qualified_locale.obj
 0002:0001942c       ??_C@_1BA@GMENCENF@?$AAb?$AAe?$AAl?$AAg?$AAi?$AAa?$AAn@ 100ca42c     libucrt:get_qualified_locale.obj
 0002:0001943c       ??_C@_1BC@PJMIIAAN@?$AAc?$AAa?$AAn?$AAa?$AAd?$AAi?$AAa?$AAn@ 100ca43c     libucrt:get_qualified_locale.obj
 0002:00019450       ??_C@_17NOIMNFBF@?$AAc?$AAh?$AAh@ 100ca450     libucrt:get_qualified_locale.obj
 0002:00019458       ??_C@_17GGDALCHA@?$AAc?$AAh?$AAi@ 100ca458     libucrt:get_qualified_locale.obj
 0002:00019460       ??_C@_1BA@NPNJKIBL@?$AAc?$AAh?$AAi?$AAn?$AAe?$AAs?$AAe@ 100ca460     libucrt:get_qualified_locale.obj
 0002:00019470       ??_C@_1CC@DINBAMMJ@?$AAc?$AAh?$AAi?$AAn?$AAe?$AAs?$AAe?$AA?9?$AAh?$AAo?$AAn?$AAg?$AAk?$AAo?$AAn@ 100ca470     libucrt:get_qualified_locale.obj
 0002:00019494       ??_C@_1CG@IOBJPACO@?$AAc?$AAh?$AAi?$AAn?$AAe?$AAs?$AAe?$AA?9?$AAs?$AAi?$AAm?$AAp?$AAl?$AAi?$AAf@ 100ca494     libucrt:get_qualified_locale.obj
 0002:000194bc       ??_C@_1CE@GAJNDCKG@?$AAc?$AAh?$AAi?$AAn?$AAe?$AAs?$AAe?$AA?9?$AAs?$AAi?$AAn?$AAg?$AAa?$AAp?$AAo@ 100ca4bc     libucrt:get_qualified_locale.obj
 0002:000194e0       ??_C@_1CI@PAJPIOOD@?$AAc?$AAh?$AAi?$AAn?$AAe?$AAs?$AAe?$AA?9?$AAt?$AAr?$AAa?$AAd?$AAi?$AAt?$AAi@ 100ca4e0     libucrt:get_qualified_locale.obj
 0002:00019508       ??_C@_1BM@NILJBMMD@?$AAd?$AAu?$AAt?$AAc?$AAh?$AA?9?$AAb?$AAe?$AAl?$AAg?$AAi?$AAa?$AAn@ 100ca508     libucrt:get_qualified_locale.obj
 0002:00019524       ??_C@_1CC@OOJPJNEJ@?$AAe?$AAn?$AAg?$AAl?$AAi?$AAs?$AAh?$AA?9?$AAa?$AAm?$AAe?$AAr?$AAi?$AAc?$AAa@ 100ca524     libucrt:get_qualified_locale.obj
 0002:00019548       ??_C@_1BI@IOLFEEM@?$AAe?$AAn?$AAg?$AAl?$AAi?$AAs?$AAh?$AA?9?$AAa?$AAu?$AAs@ 100ca548     libucrt:get_qualified_locale.obj
